ARM GAS  C:\Users\isaac\AppData\Local\Temp\cc1fpKCw.s 			page 1


   1              		.syntax unified
   2              		.cpu cortex-m3
   3              		.fpu softvfp
   4              		.eabi_attribute 20, 1
   5              		.eabi_attribute 21, 1
   6              		.eabi_attribute 23, 3
   7              		.eabi_attribute 24, 1
   8              		.eabi_attribute 25, 1
   9              		.eabi_attribute 26, 1
  10              		.eabi_attribute 30, 1
  11              		.eabi_attribute 34, 1
  12              		.eabi_attribute 18, 4
  13              		.thumb
  14              		.syntax unified
  15              		.file	"main.c"
  16              		.text
  17              	.Ltext0:
  18              		.cfi_sections	.debug_frame
  19              		.section	.text.pause_handler,"ax",%progbits
  20              		.align	2
  21              		.global	pause_handler
  22              		.thumb
  23              		.thumb_func
  24              		.type	pause_handler, %function
  25              	pause_handler:
  26              	.LFB84:
  27              		.file 1 "main.c"
   1:main.c        **** #include "project.h"
   2:main.c        **** #include "stdio.h"
   3:main.c        **** #include "GlobalDef.h"
   4:main.c        **** //#include "PixelEngine.h"
   5:main.c        **** //#include "GlobalFunc.h"
   6:main.c        **** #include "SnakeGame.h"
   7:main.c        **** //Global Variables
   8:main.c        **** 
   9:main.c        **** struct player{
  10:main.c        ****     char name[5];
  11:main.c        ****     int score;
  12:main.c        **** };
  13:main.c        **** 
  14:main.c        **** struct player players[4];
  15:main.c        **** 
  16:main.c        **** char cur_name[5] = "isaac";
  17:main.c        **** 
  18:main.c        **** int SnakeBoard[snake_board_height][snake_board_length] = {
  19:main.c        ****     {0,3,3,3,3,3,3,3,3,3,3,3,3,3,3,3,3,3,3,0},
  20:main.c        ****     {3,0,0,0,0,0,0,0,0,0,0,0,0,0,0,0,0,0,0,3},
  21:main.c        ****     {3,0,0,0,0,0,0,0,0,0,0,0,0,0,0,0,0,0,0,3},
  22:main.c        ****     {3,0,0,0,0,0,0,0,0,0,0,0,0,0,0,0,0,0,0,3},
  23:main.c        ****     {3,0,0,0,0,0,0,0,0,0,0,0,0,0,0,0,0,0,0,3},
  24:main.c        ****     {3,0,0,0,0,0,0,0,0,0,0,0,0,0,0,0,0,0,0,3},
  25:main.c        ****     {3,0,0,0,0,0,0,0,0,0,0,0,0,0,0,0,0,0,0,3},
  26:main.c        ****     {3,0,0,0,0,0,0,0,0,0,0,0,0,0,0,0,0,0,0,3},
  27:main.c        ****     {3,0,0,0,0,0,0,0,0,0,0,0,0,0,0,0,0,0,0,3},
  28:main.c        ****     {3,0,0,0,0,0,0,0,0,0,0,0,0,0,0,0,0,0,0,3},
  29:main.c        ****     {3,0,0,0,0,0,0,0,0,0,0,0,0,0,0,0,0,0,0,3},
  30:main.c        ****     {3,0,0,0,0,0,0,0,0,0,0,0,0,0,0,0,0,0,0,3},
ARM GAS  C:\Users\isaac\AppData\Local\Temp\cc1fpKCw.s 			page 2


  31:main.c        ****     {3,0,0,0,0,0,0,0,0,0,0,0,0,0,0,0,0,0,0,3},
  32:main.c        ****     {3,0,0,0,0,0,0,0,0,0,0,0,0,0,0,0,0,0,0,3},
  33:main.c        ****     {3,0,0,0,0,0,0,0,0,0,0,0,0,0,0,0,0,0,0,3},
  34:main.c        ****     {0,3,3,3,3,3,3,3,3,3,3,3,3,3,3,3,3,3,3,0}
  35:main.c        **** };
  36:main.c        **** 
  37:main.c        **** //-----------Comm Handler-----------------
  38:main.c        **** char codigo[32] = "NNN,0,0,F";
  39:main.c        **** char check[32] = "000000000";
  40:main.c        **** char foo;
  41:main.c        **** int cs = 0;
  42:main.c        **** int pass = 1;
  43:main.c        **** int comas = 0;
  44:main.c        **** int read = 1;
  45:main.c        **** char com_state = 'm';
  46:main.c        **** int max_comas = 0;
  47:main.c        **** //Flags
  48:main.c        **** int name_wait = 0;
  49:main.c        **** int pause_status = 0;
  50:main.c        **** //Counters
  51:main.c        **** int time_paused = 0;
  52:main.c        **** int period_offs_old = 0;
  53:main.c        **** //Function Prototypes
  54:main.c        **** void Animation();
  55:main.c        **** void UpdateStatus();
  56:main.c        **** //EEPROM Functions
  57:main.c        **** void EepromFirstInit();
  58:main.c        **** void PlaceHolders();
  59:main.c        **** void WriteNewScores();
  60:main.c        **** void ReadScores();
  61:main.c        **** bool UpdateFirstPlace();
  62:main.c        **** 
  63:main.c        **** CY_ISR_PROTO(com_handler);
  64:main.c        **** 
  65:main.c        **** CY_ISR_PROTO(pause_handler);
  66:main.c        **** CY_ISR_PROTO(resume_handler);
  67:main.c        **** CY_ISR_PROTO(real_handler);
  68:main.c        **** CY_ISR_PROTO(tic_handler);
  69:main.c        **** char state = 'h';
  70:main.c        **** int main(void)
  71:main.c        **** {
  72:main.c        ****     CyGlobalIntEnable; 
  73:main.c        ****     //Inits of the modules
  74:main.c        ****     EEPROM_Start();
  75:main.c        ****     LCD_Start();
  76:main.c        ****     Timer_Seed_Start();
  77:main.c        ****     UART_Start();
  78:main.c        ****     //ISR
  79:main.c        ****     com_StartEx(com_handler);
  80:main.c        ****     isr_PAUSE_StartEx(pause_handler);
  81:main.c        ****     isr_RESUME_StartEx(resume_handler);
  82:main.c        ****     isr_REAL_StartEx(real_handler);
  83:main.c        ****     isr_TIC_StartEx(tic_handler);
  84:main.c        ****     //Randomizations
  85:main.c        ****     srand(Timer_Seed_ReadCounter());
  86:main.c        ****     Timer_Seed_Stop();
  87:main.c        ****     
ARM GAS  C:\Users\isaac\AppData\Local\Temp\cc1fpKCw.s 			page 3


  88:main.c        ****     
  89:main.c        ****     for(;;)
  90:main.c        ****     {
  91:main.c        ****         switch(state){
  92:main.c        ****             case 'h':
  93:main.c        ****                 //EepromFirstInit();
  94:main.c        ****                 ReadScores();
  95:main.c        ****                 int flag = 0;
  96:main.c        ****                 for(int i = 0; i < 5; i++){
  97:main.c        ****                     if(players[0].name[i] == 0){
  98:main.c        ****                         flag = 1;
  99:main.c        ****                         break;
 100:main.c        ****                     }
 101:main.c        ****                 }
 102:main.c        ****                 if(flag == 1){
 103:main.c        ****                     EepromFirstInit();
 104:main.c        ****                 }
 105:main.c        ****                 state = 's';
 106:main.c        ****                 break;
 107:main.c        ****             case 's':
 108:main.c        ****                 //Start State
 109:main.c        ****                 LCD_ClearDisplay();
 110:main.c        ****                 Start_Snake(SnakeBoard);
 111:main.c        ****                 LCD_Position(0,0);
 112:main.c        ****                 LCD_PrintString("Waiting For");
 113:main.c        ****                 LCD_Position(1,0);
 114:main.c        ****                 LCD_PrintString("Names To Start");
 115:main.c        ****                 
 116:main.c        ****                 //Get in a loop to accept cur player name.
 117:main.c        ****                 while(name_wait == 0){CyDelay(5);}
 118:main.c        ****                 
 119:main.c        ****                 //Start timer to cicle the Snake
 120:main.c        ****                 Animation();
 121:main.c        ****                 Timer_Tic_Start();
 122:main.c        ****                 Timer_Tic_WritePeriod(1000);
 123:main.c        ****                 
 124:main.c        ****                 state = 'g';
 125:main.c        ****                 UpdateStatus();
 126:main.c        ****                 break;
 127:main.c        ****             case 'p':
 128:main.c        ****                 //Pause State
 129:main.c        ****                 Timer_Tic_Sleep();
 130:main.c        ****                 Animation();
 131:main.c        ****                 Timer_Real_Start();
 132:main.c        ****                 time_paused = 0;
 133:main.c        ****                 period_offs_old = 0;
 134:main.c        ****                 while(pause_status == 1){
 135:main.c        ****                     if(time_paused == 15){
 136:main.c        ****                         LCD_Position(0,4);
 137:main.c        ****                         LCD_PrintString("SLEEP");
 138:main.c        ****                         CyDelay(250);
 139:main.c        ****                         LCD_Sleep();
 140:main.c        ****                         UART_Sleep();
 141:main.c        ****                         //Timer_Tic_Sleep();
 142:main.c        ****                         CyPmSaveClocks();
 143:main.c        ****                         CyPmHibernate();
 144:main.c        ****                         CyPmRestoreClocks();
ARM GAS  C:\Users\isaac\AppData\Local\Temp\cc1fpKCw.s 			page 4


 145:main.c        ****                         UART_Wakeup();
 146:main.c        ****                         LCD_Wakeup();
 147:main.c        ****                         time_paused = 0;
 148:main.c        ****                         state = 'g';
 149:main.c        ****                         Timer_Tic_Wakeup();
 150:main.c        ****                         break;
 151:main.c        ****                     }
 152:main.c        ****                     LCD_Position(0,4);
 153:main.c        ****                     LCD_PrintString("PAUSED");
 154:main.c        ****                     CyDelay(150);
 155:main.c        ****                     LCD_ClearDisplay();
 156:main.c        ****                     CyDelay(150);
 157:main.c        ****                 }
 158:main.c        ****                 Timer_Real_Stop();
 159:main.c        ****                 Animation();
 160:main.c        ****                 Timer_Tic_Wakeup();
 161:main.c        ****                 state = 'g';
 162:main.c        ****                 UpdateStatus();
 163:main.c        ****                 break;
 164:main.c        ****             case 'g':
 165:main.c        ****                 //Game is Ocurring so nothing has to happen.
 166:main.c        ****                 break;
 167:main.c        ****              case 'e':
 168:main.c        ****                 //RIP Dialog
 169:main.c        ****                 Animation();
 170:main.c        ****                 LCD_Position(0,3);
 171:main.c        ****                 LCD_PrintString("Game Over");
 172:main.c        ****                 LCD_Position(1,0);
 173:main.c        ****                 LCD_PrintString(cur_name);
 174:main.c        ****                 LCD_Position(1,6);
 175:main.c        ****                 LCD_PrintString("SC:");
 176:main.c        ****                 LCD_Position(1,9);
 177:main.c        ****                 LCD_PrintNumber(match_score);
 178:main.c        ****                 CyDelay(50);
 179:main.c        ****                 state = 'c';
 180:main.c        ****                 UpdateStatus();
 181:main.c        ****                 break;
 182:main.c        ****             case 'm':
 183:main.c        ****                 //Achieven the max score
 184:main.c        ****                 Animation();
 185:main.c        ****                 LCD_Position(0,0);
 186:main.c        ****                 LCD_PrintString("Max Score Achived!");
 187:main.c        ****                 CyDelay(50);
 188:main.c        ****                 state = 'c';
 189:main.c        ****                 UpdateStatus();
 190:main.c        ****                 break;
 191:main.c        ****             case 'c':
 192:main.c        ****                 //Add Max Scoes Wait a bit and reset
 193:main.c        ****                 if(UpdateFirstPlace()){
 194:main.c        ****                     WriteNewScores();
 195:main.c        ****                     ReadScores();
 196:main.c        ****                 }
 197:main.c        ****                 for(int i = 0; i < 3; i++){
 198:main.c        ****                 LCD_ClearDisplay();
 199:main.c        ****                 LCD_Position(0,0);
 200:main.c        ****                 if(i == 0){LCD_PrintString("First Place:");}
 201:main.c        ****                 if(i == 1){LCD_PrintString("Second Place:");}
ARM GAS  C:\Users\isaac\AppData\Local\Temp\cc1fpKCw.s 			page 5


 202:main.c        ****                 if(i == 2){LCD_PrintString("Third Place:");}
 203:main.c        ****                 LCD_Position(1,0);
 204:main.c        ****                 LCD_PrintString(players[i].name);
 205:main.c        ****                 LCD_Position(1,6);
 206:main.c        ****                 LCD_PrintString("SC:");
 207:main.c        ****                 LCD_Position(1,9);
 208:main.c        ****                 LCD_PrintNumber(players[i].score);
 209:main.c        ****                 CyDelay(2000);
 210:main.c        ****                 }
 211:main.c        ****                 state = 's';
 212:main.c        ****                 name_wait = 0;
 213:main.c        ****                 UpdateStatus();
 214:main.c        ****                 break;
 215:main.c        ****         }
 216:main.c        ****     }
 217:main.c        **** }
 218:main.c        **** 
 219:main.c        **** //Eeprom functionality
 220:main.c        **** void EepromFirstInit(){
 221:main.c        ****     PlaceHolders();
 222:main.c        ****     //First Write to EEPROM
 223:main.c        ****     for(int i = 0; i < 3; i++){
 224:main.c        ****         EEPROM_WriteByte(players[i].score, 0 + i*6);
 225:main.c        ****         for(int j = 1; j < 6; j++){
 226:main.c        ****             EEPROM_WriteByte(players[i].name[j - 1], j + i*6);
 227:main.c        ****         }
 228:main.c        ****     }
 229:main.c        **** }
 230:main.c        **** void PlaceHolders(){
 231:main.c        ****         for(int i = 0; i < 3; i++){
 232:main.c        ****         players[i].score = 0;
 233:main.c        ****         for(int j = 1; j < 6; j++){
 234:main.c        ****             players[i].name[j - 1] = '#';
 235:main.c        ****         }
 236:main.c        ****     }
 237:main.c        **** }
 238:main.c        **** void WriteNewScores(){
 239:main.c        ****     for(int i = 0; i < 3; i++){
 240:main.c        ****         EEPROM_WriteByte(players[i].score, 0 + i*6);
 241:main.c        ****         for(int j = 1; j < 6; j++){
 242:main.c        ****             EEPROM_WriteByte(players[i].name[j - 1], j + i*6);
 243:main.c        ****         }
 244:main.c        ****     }
 245:main.c        **** }
 246:main.c        **** void ReadScores(){
 247:main.c        ****     for(int i = 0; i < 3; i++){
 248:main.c        ****         players[i].score = EEPROM_ReadByte(0 + i*6);
 249:main.c        ****         for(int j = 1; j < 6; j++){
 250:main.c        ****             players[i].name[j - 1] = EEPROM_ReadByte(j + i*6);
 251:main.c        ****         }
 252:main.c        ****     }
 253:main.c        **** }
 254:main.c        **** bool UpdateFirstPlace(){
 255:main.c        ****     int target = -1;
 256:main.c        ****     struct player players_temp;
 257:main.c        ****     
 258:main.c        ****     for(int i = 0; i < 3; i++){
ARM GAS  C:\Users\isaac\AppData\Local\Temp\cc1fpKCw.s 			page 6


 259:main.c        ****         if(match_score > players[i].score){
 260:main.c        ****             target = i;
 261:main.c        ****             break;
 262:main.c        ****         }
 263:main.c        ****     }
 264:main.c        ****     
 265:main.c        ****     if (target != -1){
 266:main.c        ****         players[3].score = match_score;
 267:main.c        ****         for(int i = 0; i < 5; i++){
 268:main.c        ****         players[3].name[i] = cur_name[i];
 269:main.c        ****         }
 270:main.c        ****         //Bubble sorting
 271:main.c        ****         for (int c = 0 ; c < 4 - 1; c++) {
 272:main.c        ****             for (int d = 0 ; d < 4 - c - 1; d++){
 273:main.c        ****              if (players[d].score < players[d+1].score){
 274:main.c        ****                 players_temp = players[d];
 275:main.c        ****                 players[d]   = players[d+1];
 276:main.c        ****                 players[d+1] = players_temp;
 277:main.c        ****                 }
 278:main.c        ****             }
 279:main.c        ****         }
 280:main.c        ****         return true;
 281:main.c        ****     }
 282:main.c        ****     return false;
 283:main.c        **** }
 284:main.c        **** //Animation for transitions.
 285:main.c        **** void Animation(){
 286:main.c        ****     for(int i = 0; i < 8; i++){
 287:main.c        ****         LCD_Position(0,8 + i);
 288:main.c        ****         LCD_PutChar('#');
 289:main.c        ****         LCD_Position(0,7 - i);
 290:main.c        ****         LCD_PutChar('#');
 291:main.c        ****         LCD_Position(1,8 + i);
 292:main.c        ****         LCD_PutChar('#');
 293:main.c        ****         LCD_Position(1,7 - i);
 294:main.c        ****         LCD_PutChar('#');
 295:main.c        ****         CyDelay(100);
 296:main.c        ****     }
 297:main.c        ****     LCD_ClearDisplay();
 298:main.c        ****     for(int i = 0; i < 16; i++){
 299:main.c        ****         LCD_Position(0,i);
 300:main.c        ****         LCD_PutChar('%');
 301:main.c        ****         LCD_Position(1,i);
 302:main.c        ****         LCD_PutChar('%');
 303:main.c        ****     }
 304:main.c        ****     CyDelay(100);
 305:main.c        ****     LCD_ClearDisplay();
 306:main.c        **** }
 307:main.c        **** 
 308:main.c        **** //Interruption rutines
 309:main.c        **** CY_ISR(pause_handler){
  28              		.loc 1 309 0
  29              		.cfi_startproc
  30              		@ args = 0, pretend = 0, frame = 0
  31              		@ frame_needed = 0, uses_anonymous_args = 0
  32 0000 08B5     		push	{r3, lr}
  33              		.cfi_def_cfa_offset 8
ARM GAS  C:\Users\isaac\AppData\Local\Temp\cc1fpKCw.s 			page 7


  34              		.cfi_offset 3, -8
  35              		.cfi_offset 14, -4
 310:main.c        ****     CyDelay(50);
  36              		.loc 1 310 0
  37 0002 3220     		movs	r0, #50
  38 0004 FFF7FEFF 		bl	CyDelay
  39              	.LVL0:
 311:main.c        ****     if(state == 'g'){
  40              		.loc 1 311 0
  41 0008 074B     		ldr	r3, .L4
  42 000a 1B78     		ldrb	r3, [r3]	@ zero_extendqisi2
  43 000c 672B     		cmp	r3, #103
  44 000e 05D1     		bne	.L2
 312:main.c        ****     state = 'p';
  45              		.loc 1 312 0
  46 0010 7022     		movs	r2, #112
  47 0012 054B     		ldr	r3, .L4
  48 0014 1A70     		strb	r2, [r3]
 313:main.c        ****     pause_status = 1;
  49              		.loc 1 313 0
  50 0016 0122     		movs	r2, #1
  51 0018 044B     		ldr	r3, .L4+4
  52 001a 1A60     		str	r2, [r3]
  53              	.L2:
 314:main.c        ****     }
 315:main.c        ****     Pause_ClearInterrupt();
  54              		.loc 1 315 0
  55 001c FFF7FEFF 		bl	Pause_ClearInterrupt
  56              	.LVL1:
 316:main.c        ****     isr_PAUSE_ClearPending();
  57              		.loc 1 316 0
  58 0020 FFF7FEFF 		bl	isr_PAUSE_ClearPending
  59              	.LVL2:
  60 0024 08BD     		pop	{r3, pc}
  61              	.L5:
  62 0026 00BF     		.align	2
  63              	.L4:
  64 0028 00000000 		.word	.LANCHOR0
  65 002c 00000000 		.word	.LANCHOR1
  66              		.cfi_endproc
  67              	.LFE84:
  68              		.size	pause_handler, .-pause_handler
  69              		.section	.text.resume_handler,"ax",%progbits
  70              		.align	2
  71              		.global	resume_handler
  72              		.thumb
  73              		.thumb_func
  74              		.type	resume_handler, %function
  75              	resume_handler:
  76              	.LFB85:
 317:main.c        **** }
 318:main.c        **** 
 319:main.c        **** CY_ISR(resume_handler){
  77              		.loc 1 319 0
  78              		.cfi_startproc
  79              		@ args = 0, pretend = 0, frame = 0
  80              		@ frame_needed = 0, uses_anonymous_args = 0
ARM GAS  C:\Users\isaac\AppData\Local\Temp\cc1fpKCw.s 			page 8


  81 0000 08B5     		push	{r3, lr}
  82              		.cfi_def_cfa_offset 8
  83              		.cfi_offset 3, -8
  84              		.cfi_offset 14, -4
 320:main.c        ****     if(pause_status == 1){
  85              		.loc 1 320 0
  86 0002 064B     		ldr	r3, .L9
  87 0004 1B68     		ldr	r3, [r3]
  88 0006 012B     		cmp	r3, #1
  89 0008 02D1     		bne	.L7
 321:main.c        ****         pause_status = 0;
  90              		.loc 1 321 0
  91 000a 0022     		movs	r2, #0
  92 000c 034B     		ldr	r3, .L9
  93 000e 1A60     		str	r2, [r3]
  94              	.L7:
 322:main.c        ****     }
 323:main.c        ****     Resume_ClearInterrupt();
  95              		.loc 1 323 0
  96 0010 FFF7FEFF 		bl	Resume_ClearInterrupt
  97              	.LVL3:
 324:main.c        ****     isr_RESUME_ClearPending();
  98              		.loc 1 324 0
  99 0014 FFF7FEFF 		bl	isr_RESUME_ClearPending
 100              	.LVL4:
 101 0018 08BD     		pop	{r3, pc}
 102              	.L10:
 103 001a 00BF     		.align	2
 104              	.L9:
 105 001c 00000000 		.word	.LANCHOR1
 106              		.cfi_endproc
 107              	.LFE85:
 108              		.size	resume_handler, .-resume_handler
 109              		.section	.text.real_handler,"ax",%progbits
 110              		.align	2
 111              		.global	real_handler
 112              		.thumb
 113              		.thumb_func
 114              		.type	real_handler, %function
 115              	real_handler:
 116              	.LFB87:
 325:main.c        **** }
 326:main.c        **** CY_ISR(tic_handler){
 327:main.c        ****     switch(state){
 328:main.c        ****         case 'g':
 329:main.c        ****         if(RandNum(0,100) < 10){
 330:main.c        ****                         add_bait();
 331:main.c        ****                     }
 332:main.c        ****                     bool good_move = move_snake();
 333:main.c        ****                     if (!good_move){
 334:main.c        ****                         draw_snake();    
 335:main.c        ****                     }
 336:main.c        ****                     else {
 337:main.c        ****                         state = 'e';
 338:main.c        ****                         UpdateStatus();
 339:main.c        ****                     }
 340:main.c        ****                     if(match_score == max_score){
ARM GAS  C:\Users\isaac\AppData\Local\Temp\cc1fpKCw.s 			page 9


 341:main.c        ****                         state = 'm';
 342:main.c        ****                         UpdateStatus();
 343:main.c        ****                     }
 344:main.c        ****             break;
 345:main.c        ****     }
 346:main.c        ****     if(period_offs_old != period_offs){
 347:main.c        ****     int res = 1000/(2*period_offs);
 348:main.c        ****     //int res = 1000 - 100*period_offs;
 349:main.c        ****     Timer_Tic_WritePeriod(res);
 350:main.c        ****     }
 351:main.c        ****     period_offs_old = period_offs;
 352:main.c        ****     Timer_Tic_ReadStatusRegister();
 353:main.c        ****     isr_TIC_ClearPending();
 354:main.c        **** }
 355:main.c        **** CY_ISR(real_handler){
 117              		.loc 1 355 0
 118              		.cfi_startproc
 119              		@ args = 0, pretend = 0, frame = 0
 120              		@ frame_needed = 0, uses_anonymous_args = 0
 121 0000 08B5     		push	{r3, lr}
 122              		.cfi_def_cfa_offset 8
 123              		.cfi_offset 3, -8
 124              		.cfi_offset 14, -4
 356:main.c        ****     if(time_paused < 15){
 125              		.loc 1 356 0
 126 0002 064B     		ldr	r3, .L14
 127 0004 5B68     		ldr	r3, [r3, #4]
 128 0006 0E2B     		cmp	r3, #14
 129 0008 02DC     		bgt	.L12
 357:main.c        ****     time_paused++;
 130              		.loc 1 357 0
 131 000a 0133     		adds	r3, r3, #1
 132 000c 034A     		ldr	r2, .L14
 133 000e 5360     		str	r3, [r2, #4]
 134              	.L12:
 358:main.c        ****     }
 359:main.c        ****     Timer_Real_ReadStatusRegister();
 135              		.loc 1 359 0
 136 0010 FFF7FEFF 		bl	Timer_Real_ReadStatusRegister
 137              	.LVL5:
 360:main.c        ****     isr_REAL_ClearPending();
 138              		.loc 1 360 0
 139 0014 FFF7FEFF 		bl	isr_REAL_ClearPending
 140              	.LVL6:
 141 0018 08BD     		pop	{r3, pc}
 142              	.L15:
 143 001a 00BF     		.align	2
 144              	.L14:
 145 001c 00000000 		.word	.LANCHOR1
 146              		.cfi_endproc
 147              	.LFE87:
 148              		.size	real_handler, .-real_handler
 149              		.section	.text.Pos_2D,"ax",%progbits
 150              		.align	2
 151              		.global	Pos_2D
 152              		.thumb
 153              		.thumb_func
ARM GAS  C:\Users\isaac\AppData\Local\Temp\cc1fpKCw.s 			page 10


 154              		.type	Pos_2D, %function
 155              	Pos_2D:
 156              	.LFB64:
 157              		.file 2 "GlobalFunc.h"
   1:GlobalFunc.h  **** //Global Functions
   2:GlobalFunc.h  **** #include <stdio.h>
   3:GlobalFunc.h  **** #include <string.h>
   4:GlobalFunc.h  **** #include <stdlib.h>
   5:GlobalFunc.h  **** #include <stdbool.h>
   6:GlobalFunc.h  **** //Basic Conversion
   7:GlobalFunc.h  **** int Pos_2D(int posx, int posy){
 158              		.loc 2 7 0
 159              		.cfi_startproc
 160              		@ args = 0, pretend = 0, frame = 0
 161              		@ frame_needed = 0, uses_anonymous_args = 0
 162              		@ link register save eliminated.
 163              	.LVL7:
   8:GlobalFunc.h  ****     int c = 16*posy + posx; 
   9:GlobalFunc.h  ****     return c;
  10:GlobalFunc.h  **** }
 164              		.loc 2 10 0
 165 0000 00EB0110 		add	r0, r0, r1, lsl #4
 166              	.LVL8:
 167 0004 7047     		bx	lr
 168              		.cfi_endproc
 169              	.LFE64:
 170              		.size	Pos_2D, .-Pos_2D
 171 0006 00BF     		.section	.text.RandNum,"ax",%progbits
 172              		.align	2
 173              		.global	RandNum
 174              		.thumb
 175              		.thumb_func
 176              		.type	RandNum, %function
 177              	RandNum:
 178              	.LFB65:
  11:GlobalFunc.h  **** 
  12:GlobalFunc.h  **** int RandNum(int lower,int upper){
 179              		.loc 2 12 0
 180              		.cfi_startproc
 181              		@ args = 0, pretend = 0, frame = 0
 182              		@ frame_needed = 0, uses_anonymous_args = 0
 183              	.LVL9:
 184 0000 38B5     		push	{r3, r4, r5, lr}
 185              		.cfi_def_cfa_offset 16
 186              		.cfi_offset 3, -16
 187              		.cfi_offset 4, -12
 188              		.cfi_offset 5, -8
 189              		.cfi_offset 14, -4
 190 0002 0546     		mov	r5, r0
 191 0004 0C46     		mov	r4, r1
  13:GlobalFunc.h  ****     int num = (rand() % (upper - lower + 1)) + lower; 
 192              		.loc 2 13 0
 193 0006 FFF7FEFF 		bl	rand
 194              	.LVL10:
 195 000a 641B     		subs	r4, r4, r5
 196              	.LVL11:
 197 000c 631C     		adds	r3, r4, #1
ARM GAS  C:\Users\isaac\AppData\Local\Temp\cc1fpKCw.s 			page 11


 198 000e 90FBF3F2 		sdiv	r2, r0, r3
 199 0012 03FB1200 		mls	r0, r3, r2, r0
 200              	.LVL12:
  14:GlobalFunc.h  ****     return num;
  15:GlobalFunc.h  **** }...
 201              		.loc 2 15 0
 202 0016 2844     		add	r0, r0, r5
 203              	.LVL13:
 204 0018 38BD     		pop	{r3, r4, r5, pc}
 205              		.cfi_endproc
 206              	.LFE65:
 207              		.size	RandNum, .-RandNum
 208 001a 00BF     		.section	.text.RenderBoard,"ax",%progbits
 209              		.align	2
 210              		.global	RenderBoard
 211              		.thumb
 212              		.thumb_func
 213              		.type	RenderBoard, %function
 214              	RenderBoard:
 215              	.LFB67:
 216              		.file 3 "PixelEngine.h"
   1:PixelEngine.h **** //The following header contains functions to support a Pixel Engine for the Hitachi LCD 16x2 Module
   2:PixelEngine.h **** //Written By: Isaac Kuri.
   3:PixelEngine.h **** #include "GlobalDef.h"
   4:PixelEngine.h **** #include "project.h"
   5:PixelEngine.h **** 
   6:PixelEngine.h **** uint8 lcd_ram[lcd_ram_size];
   7:PixelEngine.h **** 
   8:PixelEngine.h **** void RenderBoard(int posx);
   9:PixelEngine.h **** uint8 PosToByte(int var_);
  10:PixelEngine.h **** 
  11:PixelEngine.h **** void ShowBoard(int Board[snake_board_height][snake_board_length]){
  12:PixelEngine.h ****     //Transforms a given board to a uint8 64bytes format.
  13:PixelEngine.h ****     int sub_x = 0;
  14:PixelEngine.h ****     int sub_y = 0;
  15:PixelEngine.h ****     int seg_line = 0;
  16:PixelEngine.h ****     int seg_tracker = 0;
  17:PixelEngine.h ****     uint8 ram_buff = 0;
  18:PixelEngine.h ****     
  19:PixelEngine.h ****     for(int i = 0; i < lcd_ram_size; i++){
  20:PixelEngine.h ****         for(int x = 0; x < segment_length; x++){
  21:PixelEngine.h ****             if(Board[sub_y][sub_x + x] >= 1){
  22:PixelEngine.h ****             ram_buff += PosToByte(x);
  23:PixelEngine.h ****             }
  24:PixelEngine.h ****         }
  25:PixelEngine.h ****         lcd_ram[i] = ram_buff;
  26:PixelEngine.h ****         ram_buff = 0;
  27:PixelEngine.h ****         if(seg_line < segment_height - 1){
  28:PixelEngine.h ****             seg_line++;
  29:PixelEngine.h ****             sub_y++;
  30:PixelEngine.h ****         }
  31:PixelEngine.h ****         else{
  32:PixelEngine.h ****             seg_line = 0;
  33:PixelEngine.h ****             seg_tracker++;
  34:PixelEngine.h ****             sub_x += segment_length;
  35:PixelEngine.h ****             if(seg_tracker == 4){
  36:PixelEngine.h ****                 sub_x =0;
ARM GAS  C:\Users\isaac\AppData\Local\Temp\cc1fpKCw.s 			page 12


  37:PixelEngine.h ****             }
  38:PixelEngine.h ****             if(seg_tracker > 3){
  39:PixelEngine.h ****                 sub_y = segment_height;
  40:PixelEngine.h ****             }
  41:PixelEngine.h ****             else {
  42:PixelEngine.h ****                 sub_y = 0;
  43:PixelEngine.h ****             }
  44:PixelEngine.h ****         }
  45:PixelEngine.h ****     }
  46:PixelEngine.h ****     RenderBoard(0);
  47:PixelEngine.h **** }
  48:PixelEngine.h **** 
  49:PixelEngine.h **** void RenderBoard(int posx){
 217              		.loc 3 49 0
 218              		.cfi_startproc
 219              		@ args = 0, pretend = 0, frame = 0
 220              		@ frame_needed = 0, uses_anonymous_args = 0
 221              	.LVL14:
 222 0000 F8B5     		push	{r3, r4, r5, r6, r7, lr}
 223              		.cfi_def_cfa_offset 24
 224              		.cfi_offset 3, -24
 225              		.cfi_offset 4, -20
 226              		.cfi_offset 5, -16
 227              		.cfi_offset 6, -12
 228              		.cfi_offset 7, -8
 229              		.cfi_offset 14, -4
 230 0002 0446     		mov	r4, r0
  50:PixelEngine.h ****     //load LCD RAM and Display
  51:PixelEngine.h ****     //LCD_ClearDisplay();
  52:PixelEngine.h ****     LCD_LoadCustomFonts(lcd_ram);
 231              		.loc 3 52 0
 232 0004 2148     		ldr	r0, .L21
 233              	.LVL15:
 234 0006 FFF7FEFF 		bl	LCD_LoadCustomFonts
 235              	.LVL16:
  53:PixelEngine.h **** 
  54:PixelEngine.h ****     LCD_Position(0, posx);
 236              		.loc 3 54 0
 237 000a E4B2     		uxtb	r4, r4
 238              	.LVL17:
 239 000c 2146     		mov	r1, r4
 240 000e 0020     		movs	r0, #0
 241 0010 FFF7FEFF 		bl	LCD_Position
 242              	.LVL18:
  55:PixelEngine.h ****     LCD_PutChar(LCD_CUSTOM_0);
 243              		.loc 3 55 0
 244 0014 0020     		movs	r0, #0
 245 0016 FFF7FEFF 		bl	LCD_PutChar
 246              	.LVL19:
  56:PixelEngine.h ****     LCD_Position(0, posx + 1);
 247              		.loc 3 56 0
 248 001a 671C     		adds	r7, r4, #1
 249 001c FFB2     		uxtb	r7, r7
 250 001e 3946     		mov	r1, r7
 251 0020 0020     		movs	r0, #0
 252 0022 FFF7FEFF 		bl	LCD_Position
 253              	.LVL20:
ARM GAS  C:\Users\isaac\AppData\Local\Temp\cc1fpKCw.s 			page 13


  57:PixelEngine.h ****     LCD_PutChar(LCD_CUSTOM_1);
 254              		.loc 3 57 0
 255 0026 0120     		movs	r0, #1
 256 0028 FFF7FEFF 		bl	LCD_PutChar
 257              	.LVL21:
  58:PixelEngine.h ****     LCD_Position(0, posx + 2);
 258              		.loc 3 58 0
 259 002c A61C     		adds	r6, r4, #2
 260 002e F6B2     		uxtb	r6, r6
 261 0030 3146     		mov	r1, r6
 262 0032 0020     		movs	r0, #0
 263 0034 FFF7FEFF 		bl	LCD_Position
 264              	.LVL22:
  59:PixelEngine.h ****     LCD_PutChar(LCD_CUSTOM_2);
 265              		.loc 3 59 0
 266 0038 0220     		movs	r0, #2
 267 003a FFF7FEFF 		bl	LCD_PutChar
 268              	.LVL23:
  60:PixelEngine.h ****     LCD_Position(0, posx + 3);
 269              		.loc 3 60 0
 270 003e E51C     		adds	r5, r4, #3
 271 0040 EDB2     		uxtb	r5, r5
 272 0042 2946     		mov	r1, r5
 273 0044 0020     		movs	r0, #0
 274 0046 FFF7FEFF 		bl	LCD_Position
 275              	.LVL24:
  61:PixelEngine.h ****     LCD_PutChar(LCD_CUSTOM_3);
 276              		.loc 3 61 0
 277 004a 0320     		movs	r0, #3
 278 004c FFF7FEFF 		bl	LCD_PutChar
 279              	.LVL25:
  62:PixelEngine.h ****     LCD_Position(1, posx);
 280              		.loc 3 62 0
 281 0050 2146     		mov	r1, r4
 282 0052 0120     		movs	r0, #1
 283 0054 FFF7FEFF 		bl	LCD_Position
 284              	.LVL26:
  63:PixelEngine.h ****     LCD_PutChar(LCD_CUSTOM_4);
 285              		.loc 3 63 0
 286 0058 0420     		movs	r0, #4
 287 005a FFF7FEFF 		bl	LCD_PutChar
 288              	.LVL27:
  64:PixelEngine.h ****     LCD_Position(1, posx + 1);
 289              		.loc 3 64 0
 290 005e 3946     		mov	r1, r7
 291 0060 0120     		movs	r0, #1
 292 0062 FFF7FEFF 		bl	LCD_Position
 293              	.LVL28:
  65:PixelEngine.h ****     LCD_PutChar(LCD_CUSTOM_5);
 294              		.loc 3 65 0
 295 0066 0520     		movs	r0, #5
 296 0068 FFF7FEFF 		bl	LCD_PutChar
 297              	.LVL29:
  66:PixelEngine.h ****     LCD_Position(1, posx + 2);
 298              		.loc 3 66 0
 299 006c 3146     		mov	r1, r6
 300 006e 0120     		movs	r0, #1
ARM GAS  C:\Users\isaac\AppData\Local\Temp\cc1fpKCw.s 			page 14


 301 0070 FFF7FEFF 		bl	LCD_Position
 302              	.LVL30:
  67:PixelEngine.h ****     LCD_PutChar(LCD_CUSTOM_6);
 303              		.loc 3 67 0
 304 0074 0620     		movs	r0, #6
 305 0076 FFF7FEFF 		bl	LCD_PutChar
 306              	.LVL31:
  68:PixelEngine.h ****     LCD_Position(1, posx + 3);
 307              		.loc 3 68 0
 308 007a 2946     		mov	r1, r5
 309 007c 0120     		movs	r0, #1
 310 007e FFF7FEFF 		bl	LCD_Position
 311              	.LVL32:
  69:PixelEngine.h ****     LCD_PutChar(LCD_CUSTOM_7);
 312              		.loc 3 69 0
 313 0082 0720     		movs	r0, #7
 314 0084 FFF7FEFF 		bl	LCD_PutChar
 315              	.LVL33:
 316 0088 F8BD     		pop	{r3, r4, r5, r6, r7, pc}
 317              	.L22:
 318 008a 00BF     		.align	2
 319              	.L21:
 320 008c 00000000 		.word	lcd_ram
 321              		.cfi_endproc
 322              	.LFE67:
 323              		.size	RenderBoard, .-RenderBoard
 324              		.section	.text.PosToByte,"ax",%progbits
 325              		.align	2
 326              		.global	PosToByte
 327              		.thumb
 328              		.thumb_func
 329              		.type	PosToByte, %function
 330              	PosToByte:
 331              	.LFB68:
  70:PixelEngine.h **** }
  71:PixelEngine.h **** 
  72:PixelEngine.h **** uint8 PosToByte(int var_){
 332              		.loc 3 72 0
 333              		.cfi_startproc
 334              		@ args = 0, pretend = 0, frame = 0
 335              		@ frame_needed = 0, uses_anonymous_args = 0
 336              		@ link register save eliminated.
 337              	.LVL34:
  73:PixelEngine.h ****     //Does the position correction to bytes.
  74:PixelEngine.h ****     uint8 result = 0b0;
  75:PixelEngine.h ****     if(var_ == 0){
 338              		.loc 3 75 0
 339 0000 0346     		mov	r3, r0
 340 0002 08B1     		cbz	r0, .L29
  74:PixelEngine.h ****     if(var_ == 0){
 341              		.loc 3 74 0
 342 0004 0020     		movs	r0, #0
 343              	.LVL35:
 344 0006 00E0     		b	.L24
 345              	.LVL36:
 346              	.L29:
  76:PixelEngine.h ****         result = 0b10000;
ARM GAS  C:\Users\isaac\AppData\Local\Temp\cc1fpKCw.s 			page 15


 347              		.loc 3 76 0
 348 0008 1020     		movs	r0, #16
 349              	.LVL37:
 350              	.L24:
  77:PixelEngine.h ****     }
  78:PixelEngine.h ****     if(var_ == 1){
 351              		.loc 3 78 0
 352 000a 012B     		cmp	r3, #1
 353 000c 00D1     		bne	.L25
  79:PixelEngine.h ****         result = 0b1000;
 354              		.loc 3 79 0
 355 000e 0820     		movs	r0, #8
 356              	.LVL38:
 357              	.L25:
  80:PixelEngine.h ****     }
  81:PixelEngine.h ****     if(var_ == 2){
 358              		.loc 3 81 0
 359 0010 022B     		cmp	r3, #2
 360 0012 00D1     		bne	.L26
  82:PixelEngine.h ****         result = 0b100;
 361              		.loc 3 82 0
 362 0014 0420     		movs	r0, #4
 363              	.LVL39:
 364              	.L26:
  83:PixelEngine.h ****     }
  84:PixelEngine.h ****     if(var_ == 3){
 365              		.loc 3 84 0
 366 0016 032B     		cmp	r3, #3
 367 0018 00D1     		bne	.L27
  85:PixelEngine.h ****         result = 0b10;
 368              		.loc 3 85 0
 369 001a 0220     		movs	r0, #2
 370              	.LVL40:
 371              	.L27:
  86:PixelEngine.h ****     }
  87:PixelEngine.h ****     if(var_ == 4){
 372              		.loc 3 87 0
 373 001c 042B     		cmp	r3, #4
 374 001e 00D1     		bne	.L28
  88:PixelEngine.h ****         result = 0b1;
 375              		.loc 3 88 0
 376 0020 0120     		movs	r0, #1
 377              	.LVL41:
 378              	.L28:
  89:PixelEngine.h ****     }
  90:PixelEngine.h ****     return result;
  91:PixelEngine.h **** }...
 379              		.loc 3 91 0
 380 0022 7047     		bx	lr
 381              		.cfi_endproc
 382              	.LFE68:
 383              		.size	PosToByte, .-PosToByte
 384              		.section	.text.ShowBoard,"ax",%progbits
 385              		.align	2
 386              		.global	ShowBoard
 387              		.thumb
 388              		.thumb_func
ARM GAS  C:\Users\isaac\AppData\Local\Temp\cc1fpKCw.s 			page 16


 389              		.type	ShowBoard, %function
 390              	ShowBoard:
 391              	.LFB66:
  11:PixelEngine.h **** void ShowBoard(int Board[snake_board_height][snake_board_length]){
 392              		.loc 3 11 0
 393              		.cfi_startproc
 394              		@ args = 0, pretend = 0, frame = 0
 395              		@ frame_needed = 0, uses_anonymous_args = 0
 396              	.LVL42:
 397 0000 2DE9F84F 		push	{r3, r4, r5, r6, r7, r8, r9, r10, fp, lr}
 398              		.cfi_def_cfa_offset 40
 399              		.cfi_offset 3, -40
 400              		.cfi_offset 4, -36
 401              		.cfi_offset 5, -32
 402              		.cfi_offset 6, -28
 403              		.cfi_offset 7, -24
 404              		.cfi_offset 8, -20
 405              		.cfi_offset 9, -16
 406              		.cfi_offset 10, -12
 407              		.cfi_offset 11, -8
 408              		.cfi_offset 14, -4
 409 0004 8046     		mov	r8, r0
 410              	.LVL43:
 411              	.LBB2:
  19:PixelEngine.h ****     for(int i = 0; i < lcd_ram_size; i++){
 412              		.loc 3 19 0
 413 0006 4FF00009 		mov	r9, #0
 414              	.LBE2:
  16:PixelEngine.h ****     int seg_tracker = 0;
 415              		.loc 3 16 0
 416 000a CB46     		mov	fp, r9
  15:PixelEngine.h ****     int seg_line = 0;
 417              		.loc 3 15 0
 418 000c CA46     		mov	r10, r9
  14:PixelEngine.h ****     int sub_y = 0;
 419              		.loc 3 14 0
 420 000e 4E46     		mov	r6, r9
  13:PixelEngine.h ****     int sub_x = 0;
 421              		.loc 3 13 0
 422 0010 4F46     		mov	r7, r9
 423              	.LBB5:
  19:PixelEngine.h ****     for(int i = 0; i < lcd_ram_size; i++){
 424              		.loc 3 19 0
 425 0012 30E0     		b	.L35
 426              	.LVL44:
 427              	.L37:
 428              	.LBB3:
  21:PixelEngine.h ****             if(Board[sub_y][sub_x + x] >= 1){
 429              		.loc 3 21 0
 430 0014 06EB8602 		add	r2, r6, r6, lsl #2
 431 0018 1301     		lsls	r3, r2, #4
 432 001a 4344     		add	r3, r3, r8
 433 001c 3A19     		adds	r2, r7, r4
 434 001e 53F82230 		ldr	r3, [r3, r2, lsl #2]
 435 0022 002B     		cmp	r3, #0
 436 0024 04DD     		ble	.L36
  22:PixelEngine.h ****             ram_buff += PosToByte(x);
ARM GAS  C:\Users\isaac\AppData\Local\Temp\cc1fpKCw.s 			page 17


 437              		.loc 3 22 0
 438 0026 2046     		mov	r0, r4
 439 0028 FFF7FEFF 		bl	PosToByte
 440              	.LVL45:
 441 002c 2844     		add	r0, r0, r5
 442 002e C5B2     		uxtb	r5, r0
 443              	.LVL46:
 444              	.L36:
  20:PixelEngine.h ****         for(int x = 0; x < segment_length; x++){
 445              		.loc 3 20 0 discriminator 2
 446 0030 0134     		adds	r4, r4, #1
 447              	.LVL47:
 448 0032 01E0     		b	.L41
 449              	.LVL48:
 450              	.L44:
 451              	.LBE3:
 452 0034 0024     		movs	r4, #0
 453 0036 2546     		mov	r5, r4
 454              	.LVL49:
 455              	.L41:
 456              	.LBB4:
  20:PixelEngine.h ****         for(int x = 0; x < segment_length; x++){
 457              		.loc 3 20 0 is_stmt 0 discriminator 1
 458 0038 042C     		cmp	r4, #4
 459 003a EBDD     		ble	.L37
 460              	.LBE4:
  25:PixelEngine.h ****         lcd_ram[i] = ram_buff;
 461              		.loc 3 25 0 is_stmt 1
 462 003c 124B     		ldr	r3, .L46
 463 003e 03F80950 		strb	r5, [r3, r9]
 464              	.LVL50:
  27:PixelEngine.h ****         if(seg_line < segment_height - 1){
 465              		.loc 3 27 0
 466 0042 BAF1060F 		cmp	r10, #6
 467 0046 03DC     		bgt	.L38
  28:PixelEngine.h ****             seg_line++;
 468              		.loc 3 28 0
 469 0048 0AF1010A 		add	r10, r10, #1
 470              	.LVL51:
  29:PixelEngine.h ****             sub_y++;
 471              		.loc 3 29 0
 472 004c 0136     		adds	r6, r6, #1
 473              	.LVL52:
 474 004e 10E0     		b	.L39
 475              	.L38:
 476              	.LVL53:
  33:PixelEngine.h ****             seg_tracker++;
 477              		.loc 3 33 0
 478 0050 0BF1010B 		add	fp, fp, #1
 479              	.LVL54:
  34:PixelEngine.h ****             sub_x += segment_length;
 480              		.loc 3 34 0
 481 0054 0537     		adds	r7, r7, #5
 482              	.LVL55:
  35:PixelEngine.h ****             if(seg_tracker == 4){
 483              		.loc 3 35 0
 484 0056 BBF1040F 		cmp	fp, #4
ARM GAS  C:\Users\isaac\AppData\Local\Temp\cc1fpKCw.s 			page 18


 485 005a 00D1     		bne	.L40
  36:PixelEngine.h ****                 sub_x =0;
 486              		.loc 3 36 0
 487 005c 0027     		movs	r7, #0
 488              	.LVL56:
 489              	.L40:
  38:PixelEngine.h ****             if(seg_tracker > 3){
 490              		.loc 3 38 0
 491 005e BBF1030F 		cmp	fp, #3
 492 0062 03DD     		ble	.L43
  32:PixelEngine.h ****             seg_line = 0;
 493              		.loc 3 32 0
 494 0064 4FF0000A 		mov	r10, #0
  39:PixelEngine.h ****                 sub_y = segment_height;
 495              		.loc 3 39 0
 496 0068 0826     		movs	r6, #8
 497              	.LVL57:
 498 006a 02E0     		b	.L39
 499              	.LVL58:
 500              	.L43:
  32:PixelEngine.h ****             seg_line = 0;
 501              		.loc 3 32 0
 502 006c 4FF0000A 		mov	r10, #0
  42:PixelEngine.h ****                 sub_y = 0;
 503              		.loc 3 42 0
 504 0070 5646     		mov	r6, r10
 505              	.LVL59:
 506              	.L39:
  19:PixelEngine.h ****     for(int i = 0; i < lcd_ram_size; i++){
 507              		.loc 3 19 0 discriminator 2
 508 0072 09F10109 		add	r9, r9, #1
 509              	.LVL60:
 510              	.L35:
  19:PixelEngine.h ****     for(int i = 0; i < lcd_ram_size; i++){
 511              		.loc 3 19 0 is_stmt 0 discriminator 1
 512 0076 B9F13F0F 		cmp	r9, #63
 513 007a DBDD     		ble	.L44
 514              	.LBE5:
  46:PixelEngine.h ****     RenderBoard(0);
 515              		.loc 3 46 0 is_stmt 1
 516 007c 0020     		movs	r0, #0
 517 007e FFF7FEFF 		bl	RenderBoard
 518              	.LVL61:
 519 0082 BDE8F88F 		pop	{r3, r4, r5, r6, r7, r8, r9, r10, fp, pc}
 520              	.LVL62:
 521              	.L47:
 522 0086 00BF     		.align	2
 523              	.L46:
 524 0088 00000000 		.word	lcd_ram
 525              		.cfi_endproc
 526              	.LFE66:
 527              		.size	ShowBoard, .-ShowBoard
 528              		.section	.text.Clear_Baits,"ax",%progbits
 529              		.align	2
 530              		.global	Clear_Baits
 531              		.thumb
 532              		.thumb_func
ARM GAS  C:\Users\isaac\AppData\Local\Temp\cc1fpKCw.s 			page 19


 533              		.type	Clear_Baits, %function
 534              	Clear_Baits:
 535              	.LFB69:
 536              		.file 4 "SnakeGame.h"
   1:SnakeGame.h   **** #include <stdio.h>
   2:SnakeGame.h   **** #include <string.h>
   3:SnakeGame.h   **** #include <stdlib.h>
   4:SnakeGame.h   **** #include <stdbool.h>
   5:SnakeGame.h   **** #include "GlobalDef.h"
   6:SnakeGame.h   **** #include "GlobalFunc.h"
   7:SnakeGame.h   **** #include "PixelEngine.h"
   8:SnakeGame.h   **** 
   9:SnakeGame.h   **** 
  10:SnakeGame.h   **** //Coordinate Vector for the Snake
  11:SnakeGame.h   **** struct snake_xy {
  12:SnakeGame.h   **** 	int x, y;
  13:SnakeGame.h   **** };
  14:SnakeGame.h   **** 
  15:SnakeGame.h   **** //Data Structure of the Snake
  16:SnakeGame.h   **** const int snake_size = snake_board_area;
  17:SnakeGame.h   **** const int grid_size = snake_board_area;
  18:SnakeGame.h   **** //Max Amount of Baits
  19:SnakeGame.h   **** const int bait_size = bait_size_u;
  20:SnakeGame.h   **** 
  21:SnakeGame.h   **** struct snake_xy snake[snake_board_area];
  22:SnakeGame.h   **** struct snake_xy bait[bait_size_u];
  23:SnakeGame.h   **** 
  24:SnakeGame.h   **** int snake_head = 0;
  25:SnakeGame.h   **** int snake_tail = 0;
  26:SnakeGame.h   **** int match_score = 0;
  27:SnakeGame.h   **** 
  28:SnakeGame.h   **** int score_ten_t = 0;
  29:SnakeGame.h   **** int period_offs = 0;
  30:SnakeGame.h   **** 
  31:SnakeGame.h   **** char last_dir = 'D';
  32:SnakeGame.h   **** char cur_dir = 'D';
  33:SnakeGame.h   **** 
  34:SnakeGame.h   **** 
  35:SnakeGame.h   **** int MapBuffer[snake_board_height][snake_board_length];
  36:SnakeGame.h   **** 
  37:SnakeGame.h   **** //Init all baits as null
  38:SnakeGame.h   **** void Clear_Baits(){
 537              		.loc 4 38 0
 538              		.cfi_startproc
 539              		@ args = 0, pretend = 0, frame = 0
 540              		@ frame_needed = 0, uses_anonymous_args = 0
 541              		@ link register save eliminated.
 542              	.LVL63:
 543              	.LBB6:
  39:SnakeGame.h   ****     for(int i = 0; i < bait_size; i++){
 544              		.loc 4 39 0
 545 0000 0023     		movs	r3, #0
 546 0002 08E0     		b	.L49
 547              	.LVL64:
 548              	.L50:
  40:SnakeGame.h   ****         bait[i].x = -1;
 549              		.loc 4 40 0 discriminator 3
ARM GAS  C:\Users\isaac\AppData\Local\Temp\cc1fpKCw.s 			page 20


 550 0004 054A     		ldr	r2, .L51
 551 0006 4FF0FF31 		mov	r1, #-1
 552 000a 42F83310 		str	r1, [r2, r3, lsl #3]
  41:SnakeGame.h   ****         bait[i].y = -1;
 553              		.loc 4 41 0 discriminator 3
 554 000e 02EBC302 		add	r2, r2, r3, lsl #3
 555 0012 5160     		str	r1, [r2, #4]
  39:SnakeGame.h   ****     for(int i = 0; i < bait_size; i++){
 556              		.loc 4 39 0 discriminator 3
 557 0014 0133     		adds	r3, r3, #1
 558              	.LVL65:
 559              	.L49:
  39:SnakeGame.h   ****     for(int i = 0; i < bait_size; i++){
 560              		.loc 4 39 0 is_stmt 0 discriminator 1
 561 0016 042B     		cmp	r3, #4
 562 0018 F4DD     		ble	.L50
 563              	.LBE6:
  42:SnakeGame.h   ****     }
  43:SnakeGame.h   **** }
 564              		.loc 4 43 0 is_stmt 1
 565 001a 7047     		bx	lr
 566              	.L52:
 567              		.align	2
 568              	.L51:
 569 001c 00000000 		.word	bait
 570              		.cfi_endproc
 571              	.LFE69:
 572              		.size	Clear_Baits, .-Clear_Baits
 573              		.section	.text.Start_Snake,"ax",%progbits
 574              		.align	2
 575              		.global	Start_Snake
 576              		.thumb
 577              		.thumb_func
 578              		.type	Start_Snake, %function
 579              	Start_Snake:
 580              	.LFB70:
  44:SnakeGame.h   **** 
  45:SnakeGame.h   **** void Start_Snake(int Board[snake_board_height][snake_board_length]) {
 581              		.loc 4 45 0
 582              		.cfi_startproc
 583              		@ args = 0, pretend = 0, frame = 0
 584              		@ frame_needed = 0, uses_anonymous_args = 0
 585              	.LVL66:
 586 0000 38B5     		push	{r3, r4, r5, lr}
 587              		.cfi_def_cfa_offset 16
 588              		.cfi_offset 3, -16
 589              		.cfi_offset 4, -12
 590              		.cfi_offset 5, -8
 591              		.cfi_offset 14, -4
 592 0002 0446     		mov	r4, r0
  46:SnakeGame.h   ****     match_score = 0;
 593              		.loc 4 46 0
 594 0004 184B     		ldr	r3, .L59
 595 0006 0025     		movs	r5, #0
 596 0008 9D60     		str	r5, [r3, #8]
  47:SnakeGame.h   ****     score_ten_t = 0;
 597              		.loc 4 47 0
ARM GAS  C:\Users\isaac\AppData\Local\Temp\cc1fpKCw.s 			page 21


 598 000a DD60     		str	r5, [r3, #12]
  48:SnakeGame.h   ****     period_offs = 0;
 599              		.loc 4 48 0
 600 000c 1D61     		str	r5, [r3, #16]
  49:SnakeGame.h   ****     Clear_Baits();
 601              		.loc 4 49 0
 602 000e FFF7FEFF 		bl	Clear_Baits
 603              	.LVL67:
 604              	.LBB7:
  50:SnakeGame.h   ****     //Passing a Map for the Snake
  51:SnakeGame.h   ****     for(int y = 0;y < snake_board_height; y++){
 605              		.loc 4 51 0
 606 0012 2846     		mov	r0, r5
 607 0014 11E0     		b	.L54
 608              	.LVL68:
 609              	.L55:
 610              	.LBB8:
  52:SnakeGame.h   ****         for(int x = 0; x < snake_board_length; x++){
  53:SnakeGame.h   ****             MapBuffer[y][x] = Board[y][x];
 611              		.loc 4 53 0 discriminator 3
 612 0016 8300     		lsls	r3, r0, #2
 613 0018 1D18     		adds	r5, r3, r0
 614 001a 2901     		lsls	r1, r5, #4
 615 001c 2144     		add	r1, r1, r4
 616 001e 51F82250 		ldr	r5, [r1, r2, lsl #2]
 617 0022 0344     		add	r3, r3, r0
 618 0024 9900     		lsls	r1, r3, #2
 619 0026 1144     		add	r1, r1, r2
 620 0028 104B     		ldr	r3, .L59+4
 621 002a 43F82150 		str	r5, [r3, r1, lsl #2]
  52:SnakeGame.h   ****         for(int x = 0; x < snake_board_length; x++){
 622              		.loc 4 52 0 discriminator 3
 623 002e 0132     		adds	r2, r2, #1
 624              	.LVL69:
 625 0030 00E0     		b	.L56
 626              	.LVL70:
 627              	.L57:
 628              	.LBE8:
 629 0032 0022     		movs	r2, #0
 630              	.L56:
 631              	.LVL71:
 632              	.LBB9:
  52:SnakeGame.h   ****         for(int x = 0; x < snake_board_length; x++){
 633              		.loc 4 52 0 is_stmt 0 discriminator 1
 634 0034 132A     		cmp	r2, #19
 635 0036 EEDD     		ble	.L55
 636              	.LBE9:
  51:SnakeGame.h   ****         for(int x = 0; x < snake_board_length; x++){
 637              		.loc 4 51 0 is_stmt 1 discriminator 2
 638 0038 0130     		adds	r0, r0, #1
 639              	.LVL72:
 640              	.L54:
  51:SnakeGame.h   ****         for(int x = 0; x < snake_board_length; x++){
 641              		.loc 4 51 0 is_stmt 0 discriminator 1
 642 003a 0F28     		cmp	r0, #15
 643 003c F9DD     		ble	.L57
 644              	.LBE7:
ARM GAS  C:\Users\isaac\AppData\Local\Temp\cc1fpKCw.s 			page 22


  54:SnakeGame.h   ****         }
  55:SnakeGame.h   ****     }
  56:SnakeGame.h   ****     //Initial positions
  57:SnakeGame.h   **** 	snake[0].x = 10; snake[0].y = 7;
 645              		.loc 4 57 0 is_stmt 1
 646 003e 0C4B     		ldr	r3, .L59+8
 647 0040 0A22     		movs	r2, #10
 648 0042 1A60     		str	r2, [r3]
 649 0044 0721     		movs	r1, #7
 650 0046 5960     		str	r1, [r3, #4]
  58:SnakeGame.h   **** 	snake[1].x = 10; snake[1].y = 6;
 651              		.loc 4 58 0
 652 0048 9A60     		str	r2, [r3, #8]
 653 004a 0621     		movs	r1, #6
 654 004c D960     		str	r1, [r3, #12]
  59:SnakeGame.h   **** 	snake[2].x = 10; snake[2].y = 5;
 655              		.loc 4 59 0
 656 004e 1A61     		str	r2, [r3, #16]
 657 0050 0522     		movs	r2, #5
 658 0052 5A61     		str	r2, [r3, #20]
  60:SnakeGame.h   ****     //Index for the snake, must equal the max index len and the initial len.
  61:SnakeGame.h   **** 	snake_head = 0;
 659              		.loc 4 61 0
 660 0054 044B     		ldr	r3, .L59
 661 0056 0022     		movs	r2, #0
 662 0058 5A61     		str	r2, [r3, #20]
  62:SnakeGame.h   **** 	snake_tail = 2;
 663              		.loc 4 62 0
 664 005a 0222     		movs	r2, #2
 665 005c 9A61     		str	r2, [r3, #24]
  63:SnakeGame.h   ****     //Starting direction of the snake.
  64:SnakeGame.h   **** 	cur_dir = 'D';
 666              		.loc 4 64 0
 667 005e 4422     		movs	r2, #68
 668 0060 044B     		ldr	r3, .L59+12
 669 0062 5A70     		strb	r2, [r3, #1]
 670 0064 38BD     		pop	{r3, r4, r5, pc}
 671              	.LVL73:
 672              	.L60:
 673 0066 00BF     		.align	2
 674              	.L59:
 675 0068 00000000 		.word	.LANCHOR1
 676 006c 00000000 		.word	MapBuffer
 677 0070 00000000 		.word	snake
 678 0074 00000000 		.word	.LANCHOR0
 679              		.cfi_endproc
 680              	.LFE70:
 681              		.size	Start_Snake, .-Start_Snake
 682              		.section	.text.add_bait,"ax",%progbits
 683              		.align	2
 684              		.global	add_bait
 685              		.thumb
 686              		.thumb_func
 687              		.type	add_bait, %function
 688              	add_bait:
 689              	.LFB71:
  65:SnakeGame.h   **** }
ARM GAS  C:\Users\isaac\AppData\Local\Temp\cc1fpKCw.s 			page 23


  66:SnakeGame.h   **** 
  67:SnakeGame.h   **** void add_bait() {
 690              		.loc 4 67 0
 691              		.cfi_startproc
 692              		@ args = 0, pretend = 0, frame = 0
 693              		@ frame_needed = 0, uses_anonymous_args = 0
 694 0000 70B5     		push	{r4, r5, r6, lr}
 695              		.cfi_def_cfa_offset 16
 696              		.cfi_offset 4, -16
 697              		.cfi_offset 5, -12
 698              		.cfi_offset 6, -8
 699              		.cfi_offset 14, -4
 700              	.LVL74:
 701              	.LBB10:
  68:SnakeGame.h   **** 	for (int i = 0; i < bait_size; i++) {
 702              		.loc 4 68 0
 703 0002 0025     		movs	r5, #0
 704 0004 3CE0     		b	.L62
 705              	.LVL75:
 706              	.L68:
  69:SnakeGame.h   ****         //A -1 indicates an empty slot
  70:SnakeGame.h   **** 		if (bait[i].x == -1) {
 707              		.loc 4 70 0
 708 0006 204B     		ldr	r3, .L70
 709 0008 53F83530 		ldr	r3, [r3, r5, lsl #3]
 710 000c B3F1FF3F 		cmp	r3, #-1
 711 0010 35D1     		bne	.L63
  71:SnakeGame.h   **** 			bait[i].x = RandNum(1,snake_board_length - 1);
 712              		.loc 4 71 0
 713 0012 1321     		movs	r1, #19
 714 0014 0120     		movs	r0, #1
 715 0016 FFF7FEFF 		bl	RandNum
 716              	.LVL76:
 717 001a 1B4C     		ldr	r4, .L70
 718 001c 44F83500 		str	r0, [r4, r5, lsl #3]
  72:SnakeGame.h   **** 			bait[i].y = RandNum(1,snake_board_height - 1);
 719              		.loc 4 72 0
 720 0020 0F21     		movs	r1, #15
 721 0022 0120     		movs	r0, #1
 722 0024 FFF7FEFF 		bl	RandNum
 723              	.LVL77:
 724 0028 04EBC504 		add	r4, r4, r5, lsl #3
 725 002c 6060     		str	r0, [r4, #4]
 726              	.LVL78:
 727              	.LBB11:
  73:SnakeGame.h   ****             //Check if bait spawned in the snake, so try again, might fail but its unlikely
  74:SnakeGame.h   ****             for (int j = 0; j < snake_tail; j++) {
 728              		.loc 4 74 0
 729 002e 0024     		movs	r4, #0
 730 0030 20E0     		b	.L64
 731              	.LVL79:
 732              	.L66:
  75:SnakeGame.h   **** 		    if ((snake[j].x == bait[i].x) && (snake[j].y == bait[i].y)) {
 733              		.loc 4 75 0
 734 0032 164B     		ldr	r3, .L70+4
 735 0034 53F83420 		ldr	r2, [r3, r4, lsl #3]
 736 0038 134B     		ldr	r3, .L70
ARM GAS  C:\Users\isaac\AppData\Local\Temp\cc1fpKCw.s 			page 24


 737 003a 53F83530 		ldr	r3, [r3, r5, lsl #3]
 738 003e 9A42     		cmp	r2, r3
 739 0040 17D1     		bne	.L65
 740              		.loc 4 75 0 is_stmt 0 discriminator 1
 741 0042 124B     		ldr	r3, .L70+4
 742 0044 03EBC403 		add	r3, r3, r4, lsl #3
 743 0048 5A68     		ldr	r2, [r3, #4]
 744 004a 0F4B     		ldr	r3, .L70
 745 004c 03EBC503 		add	r3, r3, r5, lsl #3
 746 0050 5B68     		ldr	r3, [r3, #4]
 747 0052 9A42     		cmp	r2, r3
 748 0054 0DD1     		bne	.L65
  76:SnakeGame.h   **** 			        bait[i].x = RandNum(1,snake_board_length - 1);
 749              		.loc 4 76 0 is_stmt 1
 750 0056 1321     		movs	r1, #19
 751 0058 0120     		movs	r0, #1
 752 005a FFF7FEFF 		bl	RandNum
 753              	.LVL80:
 754 005e 0A4E     		ldr	r6, .L70
 755 0060 46F83500 		str	r0, [r6, r5, lsl #3]
  77:SnakeGame.h   **** 			        bait[i].y = RandNum(1,snake_board_height - 1);
 756              		.loc 4 77 0
 757 0064 0F21     		movs	r1, #15
 758 0066 0120     		movs	r0, #1
 759 0068 FFF7FEFF 		bl	RandNum
 760              	.LVL81:
 761 006c 06EBC506 		add	r6, r6, r5, lsl #3
 762 0070 7060     		str	r0, [r6, #4]
 763              	.L65:
  74:SnakeGame.h   **** 		    if ((snake[j].x == bait[i].x) && (snake[j].y == bait[i].y)) {
 764              		.loc 4 74 0 discriminator 2
 765 0072 0134     		adds	r4, r4, #1
 766              	.LVL82:
 767              	.L64:
  74:SnakeGame.h   **** 		    if ((snake[j].x == bait[i].x) && (snake[j].y == bait[i].y)) {
 768              		.loc 4 74 0 is_stmt 0 discriminator 1
 769 0074 064B     		ldr	r3, .L70+8
 770 0076 9B69     		ldr	r3, [r3, #24]
 771 0078 9C42     		cmp	r4, r3
 772 007a DADB     		blt	.L66
 773 007c 70BD     		pop	{r4, r5, r6, pc}
 774              	.LVL83:
 775              	.L63:
 776              	.LBE11:
  68:SnakeGame.h   ****         //A -1 indicates an empty slot
 777              		.loc 4 68 0 is_stmt 1 discriminator 2
 778 007e 0135     		adds	r5, r5, #1
 779              	.LVL84:
 780              	.L62:
  68:SnakeGame.h   ****         //A -1 indicates an empty slot
 781              		.loc 4 68 0 is_stmt 0 discriminator 1
 782 0080 042D     		cmp	r5, #4
 783 0082 C0DD     		ble	.L68
 784 0084 70BD     		pop	{r4, r5, r6, pc}
 785              	.LVL85:
 786              	.L71:
 787 0086 00BF     		.align	2
ARM GAS  C:\Users\isaac\AppData\Local\Temp\cc1fpKCw.s 			page 25


 788              	.L70:
 789 0088 00000000 		.word	bait
 790 008c 00000000 		.word	snake
 791 0090 00000000 		.word	.LANCHOR1
 792              	.LBE10:
 793              		.cfi_endproc
 794              	.LFE71:
 795              		.size	add_bait, .-add_bait
 796              		.section	.text.Clear_Screen,"ax",%progbits
 797              		.align	2
 798              		.global	Clear_Screen
 799              		.thumb
 800              		.thumb_func
 801              		.type	Clear_Screen, %function
 802              	Clear_Screen:
 803              	.LFB72:
  78:SnakeGame.h   **** 		        }
  79:SnakeGame.h   **** 	        }
  80:SnakeGame.h   **** 			break;
  81:SnakeGame.h   **** 		}
  82:SnakeGame.h   **** 	}
  83:SnakeGame.h   **** }
  84:SnakeGame.h   **** 
  85:SnakeGame.h   **** void Clear_Screen(){
 804              		.loc 4 85 0 is_stmt 1
 805              		.cfi_startproc
 806              		@ args = 0, pretend = 0, frame = 0
 807              		@ frame_needed = 0, uses_anonymous_args = 0
 808              		@ link register save eliminated.
 809 0000 10B4     		push	{r4}
 810              		.cfi_def_cfa_offset 4
 811              		.cfi_offset 4, -4
 812              	.LVL86:
 813              	.LBB12:
  86:SnakeGame.h   ****     //Clear EveryLast Frame that Isn't a wall;
  87:SnakeGame.h   ****     for(int y = 0; y < snake_board_height; y++){
 814              		.loc 4 87 0
 815 0002 0021     		movs	r1, #0
 816 0004 16E0     		b	.L73
 817              	.LVL87:
 818              	.L75:
 819              	.LBB13:
  88:SnakeGame.h   ****         for(int x = 0; x < snake_board_length;x++){
  89:SnakeGame.h   ****             if(MapBuffer[y][x] != 3){
 820              		.loc 4 89 0
 821 0006 01EB8100 		add	r0, r1, r1, lsl #2
 822 000a 8300     		lsls	r3, r0, #2
 823 000c 1344     		add	r3, r3, r2
 824 000e 0B48     		ldr	r0, .L79
 825 0010 50F82330 		ldr	r3, [r0, r3, lsl #2]
 826 0014 032B     		cmp	r3, #3
 827 0016 07D0     		beq	.L74
  90:SnakeGame.h   ****                 MapBuffer[y][x] = 0;
 828              		.loc 4 90 0
 829 0018 01EB8100 		add	r0, r1, r1, lsl #2
 830 001c 8300     		lsls	r3, r0, #2
 831 001e 1344     		add	r3, r3, r2
ARM GAS  C:\Users\isaac\AppData\Local\Temp\cc1fpKCw.s 			page 26


 832 0020 0024     		movs	r4, #0
 833 0022 0648     		ldr	r0, .L79
 834 0024 40F82340 		str	r4, [r0, r3, lsl #2]
 835              	.L74:
  88:SnakeGame.h   ****         for(int x = 0; x < snake_board_length;x++){
 836              		.loc 4 88 0 discriminator 2
 837 0028 0132     		adds	r2, r2, #1
 838              	.LVL88:
 839 002a 00E0     		b	.L76
 840              	.LVL89:
 841              	.L77:
 842              	.LBE13:
 843 002c 0022     		movs	r2, #0
 844              	.L76:
 845              	.LVL90:
 846              	.LBB14:
  88:SnakeGame.h   ****         for(int x = 0; x < snake_board_length;x++){
 847              		.loc 4 88 0 is_stmt 0 discriminator 1
 848 002e 132A     		cmp	r2, #19
 849 0030 E9DD     		ble	.L75
 850              	.LBE14:
  87:SnakeGame.h   ****         for(int x = 0; x < snake_board_length;x++){
 851              		.loc 4 87 0 is_stmt 1 discriminator 2
 852 0032 0131     		adds	r1, r1, #1
 853              	.LVL91:
 854              	.L73:
  87:SnakeGame.h   ****         for(int x = 0; x < snake_board_length;x++){
 855              		.loc 4 87 0 is_stmt 0 discriminator 1
 856 0034 0F29     		cmp	r1, #15
 857 0036 F9DD     		ble	.L77
 858              	.LBE12:
  91:SnakeGame.h   ****             }
  92:SnakeGame.h   ****         }
  93:SnakeGame.h   ****     }
  94:SnakeGame.h   **** }
 859              		.loc 4 94 0 is_stmt 1
 860 0038 10BC     		pop	{r4}
 861              		.cfi_restore 4
 862              		.cfi_def_cfa_offset 0
 863 003a 7047     		bx	lr
 864              	.L80:
 865              		.align	2
 866              	.L79:
 867 003c 00000000 		.word	MapBuffer
 868              		.cfi_endproc
 869              	.LFE72:
 870              		.size	Clear_Screen, .-Clear_Screen
 871              		.section	.text.draw_score,"ax",%progbits
 872              		.align	2
 873              		.global	draw_score
 874              		.thumb
 875              		.thumb_func
 876              		.type	draw_score, %function
 877              	draw_score:
 878              	.LFB73:
  95:SnakeGame.h   **** void draw_score() {
 879              		.loc 4 95 0
ARM GAS  C:\Users\isaac\AppData\Local\Temp\cc1fpKCw.s 			page 27


 880              		.cfi_startproc
 881              		@ args = 0, pretend = 0, frame = 0
 882              		@ frame_needed = 0, uses_anonymous_args = 0
 883 0000 08B5     		push	{r3, lr}
 884              		.cfi_def_cfa_offset 8
 885              		.cfi_offset 3, -8
 886              		.cfi_offset 14, -4
  96:SnakeGame.h   ****     LCD_Position(0,5);
 887              		.loc 4 96 0
 888 0002 0521     		movs	r1, #5
 889 0004 0020     		movs	r0, #0
 890 0006 FFF7FEFF 		bl	LCD_Position
 891              	.LVL92:
  97:SnakeGame.h   ****     LCD_PrintString("SCORE");
 892              		.loc 4 97 0
 893 000a 0648     		ldr	r0, .L83
 894 000c FFF7FEFF 		bl	LCD_PrintString
 895              	.LVL93:
  98:SnakeGame.h   ****     LCD_Position(1,5);
 896              		.loc 4 98 0
 897 0010 0521     		movs	r1, #5
 898 0012 0120     		movs	r0, #1
 899 0014 FFF7FEFF 		bl	LCD_Position
 900              	.LVL94:
  99:SnakeGame.h   ****     LCD_PrintNumber(match_score);
 901              		.loc 4 99 0
 902 0018 034B     		ldr	r3, .L83+4
 903 001a 1889     		ldrh	r0, [r3, #8]
 904 001c FFF7FEFF 		bl	LCD_PrintU32Number
 905              	.LVL95:
 906 0020 08BD     		pop	{r3, pc}
 907              	.L84:
 908 0022 00BF     		.align	2
 909              	.L83:
 910 0024 00000000 		.word	.LC0
 911 0028 00000000 		.word	.LANCHOR1
 912              		.cfi_endproc
 913              	.LFE73:
 914              		.size	draw_score, .-draw_score
 915              		.section	.text.draw_snake,"ax",%progbits
 916              		.align	2
 917              		.global	draw_snake
 918              		.thumb
 919              		.thumb_func
 920              		.type	draw_snake, %function
 921              	draw_snake:
 922              	.LFB74:
 100:SnakeGame.h   **** }
 101:SnakeGame.h   **** void draw_snake() {
 923              		.loc 4 101 0
 924              		.cfi_startproc
 925              		@ args = 0, pretend = 0, frame = 0
 926              		@ frame_needed = 0, uses_anonymous_args = 0
 927 0000 08B5     		push	{r3, lr}
 928              		.cfi_def_cfa_offset 8
 929              		.cfi_offset 3, -8
 930              		.cfi_offset 14, -4
ARM GAS  C:\Users\isaac\AppData\Local\Temp\cc1fpKCw.s 			page 28


 102:SnakeGame.h   ****     Clear_Screen();
 931              		.loc 4 102 0
 932 0002 FFF7FEFF 		bl	Clear_Screen
 933              	.LVL96:
 103:SnakeGame.h   ****     //Basically a render function for the snake.
 104:SnakeGame.h   **** 	int thead = 0; //Short for The Head.
 934              		.loc 4 104 0
 935 0006 0022     		movs	r2, #0
 936              	.LVL97:
 937              	.L87:
 938              	.LBB15:
 105:SnakeGame.h   ****     
 106:SnakeGame.h   **** 	for (;;) {
 107:SnakeGame.h   **** 		int x = snake[thead].x;
 939              		.loc 4 107 0
 940 0008 184B     		ldr	r3, .L92
 941 000a 53F83210 		ldr	r1, [r3, r2, lsl #3]
 942              	.LVL98:
 108:SnakeGame.h   **** 		int y = snake[thead].y;
 943              		.loc 4 108 0
 944 000e 03EBC203 		add	r3, r3, r2, lsl #3
 945 0012 5B68     		ldr	r3, [r3, #4]
 946              	.LVL99:
 109:SnakeGame.h   ****        
 110:SnakeGame.h   **** 	    MapBuffer[y][x] = 1;
 947              		.loc 4 110 0
 948 0014 03EB8303 		add	r3, r3, r3, lsl #2
 949              	.LVL100:
 950 0018 9800     		lsls	r0, r3, #2
 951 001a 4318     		adds	r3, r0, r1
 952 001c 0120     		movs	r0, #1
 953 001e 1449     		ldr	r1, .L92+4
 954              	.LVL101:
 955 0020 41F82300 		str	r0, [r1, r3, lsl #2]
 111:SnakeGame.h   **** 
 112:SnakeGame.h   **** 		if (thead == snake_tail) {break;}
 956              		.loc 4 112 0
 957 0024 134B     		ldr	r3, .L92+8
 958 0026 9B69     		ldr	r3, [r3, #24]
 959 0028 9A42     		cmp	r2, r3
 960 002a 13D0     		beq	.L90
 113:SnakeGame.h   **** 		thead++;
 961              		.loc 4 113 0
 962 002c 0244     		add	r2, r2, r0
 963              	.LVL102:
 964              	.LBE15:
 114:SnakeGame.h   **** 	}
 965              		.loc 4 114 0
 966 002e EBE7     		b	.L87
 967              	.LVL103:
 968              	.L89:
 969              	.LBB16:
 115:SnakeGame.h   ****     //Drawing Baits
 116:SnakeGame.h   **** 	for (int i = 0; i < bait_size; i++) {
 117:SnakeGame.h   **** 		if (bait[i].x >= 0) {
 970              		.loc 4 117 0
 971 0030 114A     		ldr	r2, .L92+12
ARM GAS  C:\Users\isaac\AppData\Local\Temp\cc1fpKCw.s 			page 29


 972 0032 52F83310 		ldr	r1, [r2, r3, lsl #3]
 973 0036 0029     		cmp	r1, #0
 974 0038 0ADB     		blt	.L88
 118:SnakeGame.h   **** 			MapBuffer[bait[i].y][bait[i].x] = 1;
 975              		.loc 4 118 0
 976 003a 02EBC302 		add	r2, r2, r3, lsl #3
 977 003e 5268     		ldr	r2, [r2, #4]
 978 0040 02EB8202 		add	r2, r2, r2, lsl #2
 979 0044 9000     		lsls	r0, r2, #2
 980 0046 0144     		add	r1, r1, r0
 981 0048 0120     		movs	r0, #1
 982 004a 094A     		ldr	r2, .L92+4
 983 004c 42F82100 		str	r0, [r2, r1, lsl #2]
 984              	.L88:
 116:SnakeGame.h   **** 		if (bait[i].x >= 0) {
 985              		.loc 4 116 0 discriminator 2
 986 0050 0133     		adds	r3, r3, #1
 987              	.LVL104:
 988 0052 00E0     		b	.L86
 989              	.LVL105:
 990              	.L90:
 991              	.LBE16:
 992 0054 0023     		movs	r3, #0
 993              	.LVL106:
 994              	.L86:
 995              	.LBB17:
 116:SnakeGame.h   **** 		if (bait[i].x >= 0) {
 996              		.loc 4 116 0 is_stmt 0 discriminator 1
 997 0056 042B     		cmp	r3, #4
 998 0058 EADD     		ble	.L89
 999              	.LBE17:
 119:SnakeGame.h   **** 		}
 120:SnakeGame.h   **** 	}
 121:SnakeGame.h   ****     //Display Array
 122:SnakeGame.h   ****     LCD_ClearDisplay();
 1000              		.loc 4 122 0 is_stmt 1
 1001 005a 0120     		movs	r0, #1
 1002 005c FFF7FEFF 		bl	LCD_WriteControl
 1003              	.LVL107:
 123:SnakeGame.h   ****     draw_score();
 1004              		.loc 4 123 0
 1005 0060 FFF7FEFF 		bl	draw_score
 1006              	.LVL108:
 124:SnakeGame.h   ****     ShowBoard(MapBuffer);
 1007              		.loc 4 124 0
 1008 0064 0248     		ldr	r0, .L92+4
 1009 0066 FFF7FEFF 		bl	ShowBoard
 1010              	.LVL109:
 1011 006a 08BD     		pop	{r3, pc}
 1012              	.L93:
 1013              		.align	2
 1014              	.L92:
 1015 006c 00000000 		.word	snake
 1016 0070 00000000 		.word	MapBuffer
 1017 0074 00000000 		.word	.LANCHOR1
 1018 0078 00000000 		.word	bait
 1019              		.cfi_endproc
ARM GAS  C:\Users\isaac\AppData\Local\Temp\cc1fpKCw.s 			page 30


 1020              	.LFE74:
 1021              		.size	draw_snake, .-draw_snake
 1022              		.section	.text.change_dir,"ax",%progbits
 1023              		.align	2
 1024              		.global	change_dir
 1025              		.thumb
 1026              		.thumb_func
 1027              		.type	change_dir, %function
 1028              	change_dir:
 1029              	.LFB75:
 125:SnakeGame.h   **** }
 126:SnakeGame.h   **** void change_dir(char dir_c){
 1030              		.loc 4 126 0
 1031              		.cfi_startproc
 1032              		@ args = 0, pretend = 0, frame = 0
 1033              		@ frame_needed = 0, uses_anonymous_args = 0
 1034              		@ link register save eliminated.
 1035              	.LVL110:
 127:SnakeGame.h   ****     
 128:SnakeGame.h   ****     if((dir_c == 'U') &&(last_dir != 'D')){
 1036              		.loc 4 128 0
 1037 0000 5528     		cmp	r0, #85
 1038 0002 05D1     		bne	.L95
 1039              		.loc 4 128 0 is_stmt 0 discriminator 1
 1040 0004 104B     		ldr	r3, .L99
 1041 0006 9B78     		ldrb	r3, [r3, #2]	@ zero_extendqisi2
 1042 0008 442B     		cmp	r3, #68
 1043 000a 01D0     		beq	.L95
 129:SnakeGame.h   ****         cur_dir = dir_c;
 1044              		.loc 4 129 0 is_stmt 1
 1045 000c 0E4B     		ldr	r3, .L99
 1046 000e 5870     		strb	r0, [r3, #1]
 1047              	.L95:
 130:SnakeGame.h   ****     }
 131:SnakeGame.h   ****     if((dir_c == 'D') &&(last_dir != 'U')){
 1048              		.loc 4 131 0
 1049 0010 4428     		cmp	r0, #68
 1050 0012 05D1     		bne	.L96
 1051              		.loc 4 131 0 is_stmt 0 discriminator 1
 1052 0014 0C4B     		ldr	r3, .L99
 1053 0016 9B78     		ldrb	r3, [r3, #2]	@ zero_extendqisi2
 1054 0018 552B     		cmp	r3, #85
 1055 001a 01D0     		beq	.L96
 132:SnakeGame.h   ****         cur_dir = dir_c;
 1056              		.loc 4 132 0 is_stmt 1
 1057 001c 0A4B     		ldr	r3, .L99
 1058 001e 5870     		strb	r0, [r3, #1]
 1059              	.L96:
 133:SnakeGame.h   ****     }
 134:SnakeGame.h   ****     if((dir_c == 'L') &&(last_dir != 'R')){
 1060              		.loc 4 134 0
 1061 0020 4C28     		cmp	r0, #76
 1062 0022 05D1     		bne	.L97
 1063              		.loc 4 134 0 is_stmt 0 discriminator 1
 1064 0024 084B     		ldr	r3, .L99
 1065 0026 9B78     		ldrb	r3, [r3, #2]	@ zero_extendqisi2
 1066 0028 522B     		cmp	r3, #82
ARM GAS  C:\Users\isaac\AppData\Local\Temp\cc1fpKCw.s 			page 31


 1067 002a 01D0     		beq	.L97
 135:SnakeGame.h   ****         cur_dir = dir_c;
 1068              		.loc 4 135 0 is_stmt 1
 1069 002c 064B     		ldr	r3, .L99
 1070 002e 5870     		strb	r0, [r3, #1]
 1071              	.L97:
 136:SnakeGame.h   ****     }
 137:SnakeGame.h   ****     if((dir_c == 'R') &&(last_dir != 'L')){
 1072              		.loc 4 137 0
 1073 0030 5228     		cmp	r0, #82
 1074 0032 05D1     		bne	.L98
 1075              		.loc 4 137 0 is_stmt 0 discriminator 1
 1076 0034 044B     		ldr	r3, .L99
 1077 0036 9B78     		ldrb	r3, [r3, #2]	@ zero_extendqisi2
 1078 0038 4C2B     		cmp	r3, #76
 1079 003a 01D0     		beq	.L98
 138:SnakeGame.h   ****         cur_dir = dir_c;
 1080              		.loc 4 138 0 is_stmt 1
 1081 003c 024B     		ldr	r3, .L99
 1082 003e 5870     		strb	r0, [r3, #1]
 1083              	.L98:
 139:SnakeGame.h   ****     }
 140:SnakeGame.h   ****     last_dir = dir_c;
 1084              		.loc 4 140 0
 1085 0040 014B     		ldr	r3, .L99
 1086 0042 9870     		strb	r0, [r3, #2]
 1087 0044 7047     		bx	lr
 1088              	.L100:
 1089 0046 00BF     		.align	2
 1090              	.L99:
 1091 0048 00000000 		.word	.LANCHOR0
 1092              		.cfi_endproc
 1093              	.LFE75:
 1094              		.size	change_dir, .-change_dir
 1095              		.section	.text.move_snake,"ax",%progbits
 1096              		.align	2
 1097              		.global	move_snake
 1098              		.thumb
 1099              		.thumb_func
 1100              		.type	move_snake, %function
 1101              	move_snake:
 1102              	.LFB76:
 141:SnakeGame.h   **** }
 142:SnakeGame.h   **** //Returns true when a loosing condition happens
 143:SnakeGame.h   **** bool move_snake() {
 1103              		.loc 4 143 0
 1104              		.cfi_startproc
 1105              		@ args = 0, pretend = 0, frame = 16
 1106              		@ frame_needed = 1, uses_anonymous_args = 0
 1107 0000 F0B5     		push	{r4, r5, r6, r7, lr}
 1108              		.cfi_def_cfa_offset 20
 1109              		.cfi_offset 4, -20
 1110              		.cfi_offset 5, -16
 1111              		.cfi_offset 6, -12
 1112              		.cfi_offset 7, -8
 1113              		.cfi_offset 14, -4
 1114 0002 85B0     		sub	sp, sp, #20
ARM GAS  C:\Users\isaac\AppData\Local\Temp\cc1fpKCw.s 			page 32


 1115              		.cfi_def_cfa_offset 40
 1116 0004 00AF     		add	r7, sp, #0
 1117              		.cfi_def_cfa_register 7
 144:SnakeGame.h   **** 	struct snake_xy cur = snake[snake_head];
 1118              		.loc 4 144 0
 1119 0006 714C     		ldr	r4, .L130
 1120 0008 6169     		ldr	r1, [r4, #20]
 1121 000a 07F10803 		add	r3, r7, #8
 1122 000e 704A     		ldr	r2, .L130+4
 1123 0010 02EBC102 		add	r2, r2, r1, lsl #3
 1124 0014 92E80300 		ldmia	r2, {r0, r1}
 1125 0018 83E80300 		stmia	r3, {r0, r1}
 145:SnakeGame.h   **** 	struct snake_xy temp = cur;
 1126              		.loc 4 145 0
 1127 001c 87E80300 		stmia	r7, {r0, r1}
 146:SnakeGame.h   ****     struct snake_xy snake_temp_old[snake_tail + 1];
 1128              		.loc 4 146 0
 1129 0020 A169     		ldr	r1, [r4, #24]
 1130 0022 4B1C     		adds	r3, r1, #1
 1131              	.LVL111:
 1132 0024 DB00     		lsls	r3, r3, #3
 1133 0026 0833     		adds	r3, r3, #8
 1134 0028 ADEB030D 		sub	sp, sp, r3
 1135 002c 6846     		mov	r0, sp
 1136              	.LVL112:
 147:SnakeGame.h   ****     //Determining the direction
 148:SnakeGame.h   **** 	switch (cur_dir) {
 1137              		.loc 4 148 0
 1138 002e 694B     		ldr	r3, .L130+8
 1139 0030 5B78     		ldrb	r3, [r3, #1]	@ zero_extendqisi2
 1140 0032 443B     		subs	r3, r3, #68
 1141 0034 112B     		cmp	r3, #17
 1142 0036 19D8     		bhi	.L102
 1143 0038 DFE803F0 		tbb	[pc, r3]
 1144              	.L104:
 1145 003c 0D       		.byte	(.L103-.L104)/2
 1146 003d 18       		.byte	(.L102-.L104)/2
 1147 003e 18       		.byte	(.L102-.L104)/2
 1148 003f 18       		.byte	(.L102-.L104)/2
 1149 0040 18       		.byte	(.L102-.L104)/2
 1150 0041 18       		.byte	(.L102-.L104)/2
 1151 0042 18       		.byte	(.L102-.L104)/2
 1152 0043 18       		.byte	(.L102-.L104)/2
 1153 0044 11       		.byte	(.L105-.L104)/2
 1154 0045 18       		.byte	(.L102-.L104)/2
 1155 0046 18       		.byte	(.L102-.L104)/2
 1156 0047 18       		.byte	(.L102-.L104)/2
 1157 0048 18       		.byte	(.L102-.L104)/2
 1158 0049 18       		.byte	(.L102-.L104)/2
 1159 004a 15       		.byte	(.L106-.L104)/2
 1160 004b 18       		.byte	(.L102-.L104)/2
 1161 004c 18       		.byte	(.L102-.L104)/2
 1162 004d 09       		.byte	(.L107-.L104)/2
 1163              		.p2align 1
 1164              	.L107:
 149:SnakeGame.h   **** 	case 'U':
 150:SnakeGame.h   **** 		temp.y--;
ARM GAS  C:\Users\isaac\AppData\Local\Temp\cc1fpKCw.s 			page 33


 1165              		.loc 4 150 0
 1166 004e 7B68     		ldr	r3, [r7, #4]
 1167 0050 013B     		subs	r3, r3, #1
 1168 0052 7B60     		str	r3, [r7, #4]
 151:SnakeGame.h   **** 		break;
 1169              		.loc 4 151 0
 1170 0054 0AE0     		b	.L102
 1171              	.L103:
 152:SnakeGame.h   **** 	case 'D':
 153:SnakeGame.h   **** 		temp.y++;
 1172              		.loc 4 153 0
 1173 0056 7B68     		ldr	r3, [r7, #4]
 1174 0058 0133     		adds	r3, r3, #1
 1175 005a 7B60     		str	r3, [r7, #4]
 154:SnakeGame.h   **** 		break;
 1176              		.loc 4 154 0
 1177 005c 06E0     		b	.L102
 1178              	.L105:
 155:SnakeGame.h   **** 	case 'L':
 156:SnakeGame.h   **** 		temp.x--;
 1179              		.loc 4 156 0
 1180 005e 3B68     		ldr	r3, [r7]
 1181 0060 013B     		subs	r3, r3, #1
 1182 0062 3B60     		str	r3, [r7]
 157:SnakeGame.h   **** 		break;
 1183              		.loc 4 157 0
 1184 0064 02E0     		b	.L102
 1185              	.L106:
 158:SnakeGame.h   **** 	case 'R':
 159:SnakeGame.h   **** 		temp.x++;
 1186              		.loc 4 159 0
 1187 0066 3B68     		ldr	r3, [r7]
 1188 0068 0133     		adds	r3, r3, #1
 1189 006a 3B60     		str	r3, [r7]
 1190              	.L102:
 160:SnakeGame.h   **** 		break;
 161:SnakeGame.h   **** 	}
 162:SnakeGame.h   ****     //Filtering
 163:SnakeGame.h   ****     if(snake_board_length - 1 <= temp.x){
 1191              		.loc 4 163 0
 1192 006c 3D68     		ldr	r5, [r7]
 1193 006e 122D     		cmp	r5, #18
 1194 0070 00F39F80 		bgt	.L124
 164:SnakeGame.h   ****         temp.x = 1;
 165:SnakeGame.h   ****         return true;
 166:SnakeGame.h   ****     }
 167:SnakeGame.h   ****     else if(temp.x < 1){
 1195              		.loc 4 167 0
 1196 0074 002D     		cmp	r5, #0
 1197 0076 40F39E80 		ble	.L125
 168:SnakeGame.h   ****         temp.x = snake_board_length - 1;
 169:SnakeGame.h   ****         return true;
 170:SnakeGame.h   ****     }
 171:SnakeGame.h   ****     
 172:SnakeGame.h   ****     if(snake_board_height - 1 <= temp.y){
 1198              		.loc 4 172 0
 1199 007a 7E68     		ldr	r6, [r7, #4]
ARM GAS  C:\Users\isaac\AppData\Local\Temp\cc1fpKCw.s 			page 34


 1200 007c 0E2E     		cmp	r6, #14
 1201 007e 00F39C80 		bgt	.L126
 173:SnakeGame.h   ****         temp.y = 1;
 174:SnakeGame.h   ****         return true;
 175:SnakeGame.h   ****     }
 176:SnakeGame.h   ****     else if(temp.y < 1){
 1202              		.loc 4 176 0
 1203 0082 002E     		cmp	r6, #0
 1204 0084 40F39B80 		ble	.L127
 1205 0088 0123     		movs	r3, #1
 1206 008a 0CE0     		b	.L109
 1207              	.LVL113:
 1208              	.L111:
 1209              	.LBB18:
 177:SnakeGame.h   ****         temp.y = snake_board_height - 1;
 178:SnakeGame.h   ****         return true;
 179:SnakeGame.h   ****     }
 180:SnakeGame.h   **** 	
 181:SnakeGame.h   ****     //Check Killing Self
 182:SnakeGame.h   ****     for (int i = 1; i < snake_tail; i++) {
 183:SnakeGame.h   **** 		if ((snake[i].x == temp.x) && (snake[i].y == temp.y)) {
 1210              		.loc 4 183 0
 1211 008c 504A     		ldr	r2, .L130+4
 1212 008e 52F83320 		ldr	r2, [r2, r3, lsl #3]
 1213 0092 9542     		cmp	r5, r2
 1214 0094 06D1     		bne	.L110
 1215              		.loc 4 183 0 is_stmt 0 discriminator 1
 1216 0096 4E4A     		ldr	r2, .L130+4
 1217 0098 02EBC302 		add	r2, r2, r3, lsl #3
 1218 009c 5268     		ldr	r2, [r2, #4]
 1219 009e 9642     		cmp	r6, r2
 1220 00a0 00F08F80 		beq	.L128
 1221              	.L110:
 182:SnakeGame.h   **** 		if ((snake[i].x == temp.x) && (snake[i].y == temp.y)) {
 1222              		.loc 4 182 0 is_stmt 1 discriminator 2
 1223 00a4 0133     		adds	r3, r3, #1
 1224              	.LVL114:
 1225              	.L109:
 182:SnakeGame.h   **** 		if ((snake[i].x == temp.x) && (snake[i].y == temp.y)) {
 1226              		.loc 4 182 0 is_stmt 0 discriminator 1
 1227 00a6 8B42     		cmp	r3, r1
 1228 00a8 F0DB     		blt	.L111
 1229 00aa 0023     		movs	r3, #0
 1230              	.LVL115:
 1231 00ac 52E0     		b	.L112
 1232              	.LVL116:
 1233              	.L119:
 1234              	.LBE18:
 1235              	.LBB19:
 184:SnakeGame.h   **** 			return true;
 185:SnakeGame.h   **** 		}
 186:SnakeGame.h   **** 	}
 187:SnakeGame.h   ****     //Check for Bait Eating
 188:SnakeGame.h   **** 	for (int i = 0; i < bait_size; i++) {
 189:SnakeGame.h   **** 		if ((bait[i].x == temp.x) && (bait[i].y == temp.y)) {
 1236              		.loc 4 189 0 is_stmt 1
 1237 00ae 4A4A     		ldr	r2, .L130+12
ARM GAS  C:\Users\isaac\AppData\Local\Temp\cc1fpKCw.s 			page 35


 1238 00b0 52F83320 		ldr	r2, [r2, r3, lsl #3]
 1239 00b4 9542     		cmp	r5, r2
 1240 00b6 4CD1     		bne	.L113
 1241              		.loc 4 189 0 is_stmt 0 discriminator 1
 1242 00b8 474A     		ldr	r2, .L130+12
 1243 00ba 02EBC302 		add	r2, r2, r3, lsl #3
 1244 00be 5268     		ldr	r2, [r2, #4]
 1245 00c0 9642     		cmp	r6, r2
 1246 00c2 46D1     		bne	.L113
 190:SnakeGame.h   ****             //Add Score
 191:SnakeGame.h   ****             match_score++;
 1247              		.loc 4 191 0 is_stmt 1
 1248 00c4 4149     		ldr	r1, .L130
 1249              	.LVL117:
 1250 00c6 8A68     		ldr	r2, [r1, #8]
 1251 00c8 0132     		adds	r2, r2, #1
 1252 00ca 8A60     		str	r2, [r1, #8]
 192:SnakeGame.h   ****             score_ten_t++;
 1253              		.loc 4 192 0
 1254 00cc CA68     		ldr	r2, [r1, #12]
 1255 00ce 0132     		adds	r2, r2, #1
 1256 00d0 CA60     		str	r2, [r1, #12]
 193:SnakeGame.h   ****             if(score_ten_t == score_to_speed){
 1257              		.loc 4 193 0
 1258 00d2 052A     		cmp	r2, #5
 1259 00d4 05D1     		bne	.L114
 194:SnakeGame.h   ****                 score_ten_t = 0;
 1260              		.loc 4 194 0
 1261 00d6 0A46     		mov	r2, r1
 1262 00d8 0021     		movs	r1, #0
 1263 00da D160     		str	r1, [r2, #12]
 195:SnakeGame.h   ****                 period_offs++;
 1264              		.loc 4 195 0
 1265 00dc 1169     		ldr	r1, [r2, #16]
 1266 00de 0131     		adds	r1, r1, #1
 1267 00e0 1161     		str	r1, [r2, #16]
 1268              	.L114:
 196:SnakeGame.h   ****             }
 197:SnakeGame.h   **** 			//Remove the bait.
 198:SnakeGame.h   **** 			bait[i].x = -1;
 1269              		.loc 4 198 0
 1270 00e2 3D4A     		ldr	r2, .L130+12
 1271 00e4 4FF0FF31 		mov	r1, #-1
 1272 00e8 42F83310 		str	r1, [r2, r3, lsl #3]
 199:SnakeGame.h   **** 			bait[i].y = -1;
 1273              		.loc 4 199 0
 1274 00ec 02EBC303 		add	r3, r2, r3, lsl #3
 1275              	.LVL118:
 1276 00f0 5960     		str	r1, [r3, #4]
 1277              	.LVL119:
 1278              	.LBB20:
 200:SnakeGame.h   ****             
 201:SnakeGame.h   ****             //Movement Algorithm for bait eating
 202:SnakeGame.h   ****             for(int i = 0; i < snake_tail + 1; i++){
 1279              		.loc 4 202 0
 1280 00f2 0023     		movs	r3, #0
 1281 00f4 0AE0     		b	.L115
ARM GAS  C:\Users\isaac\AppData\Local\Temp\cc1fpKCw.s 			page 36


 1282              	.LVL120:
 1283              	.L116:
 203:SnakeGame.h   ****                 snake_temp_old[i].x = snake[i].x;
 1284              		.loc 4 203 0 discriminator 3
 1285 00f6 3649     		ldr	r1, .L130+4
 1286 00f8 51F83320 		ldr	r2, [r1, r3, lsl #3]
 1287 00fc 40F83320 		str	r2, [r0, r3, lsl #3]
 204:SnakeGame.h   ****                 snake_temp_old[i].y = snake[i].y;
 1288              		.loc 4 204 0 discriminator 3
 1289 0100 DA00     		lsls	r2, r3, #3
 1290 0102 1144     		add	r1, r1, r2
 1291 0104 4968     		ldr	r1, [r1, #4]
 1292 0106 0244     		add	r2, r2, r0
 1293 0108 5160     		str	r1, [r2, #4]
 202:SnakeGame.h   ****                 snake_temp_old[i].x = snake[i].x;
 1294              		.loc 4 202 0 discriminator 3
 1295 010a 0133     		adds	r3, r3, #1
 1296              	.LVL121:
 1297              	.L115:
 202:SnakeGame.h   ****                 snake_temp_old[i].x = snake[i].x;
 1298              		.loc 4 202 0 is_stmt 0 discriminator 1
 1299 010c 2F4A     		ldr	r2, .L130
 1300 010e 9469     		ldr	r4, [r2, #24]
 1301 0110 04F1010E 		add	lr, r4, #1
 1302 0114 7345     		cmp	r3, lr
 1303 0116 EEDB     		blt	.L116
 1304              	.LBE20:
 205:SnakeGame.h   ****                 }
 206:SnakeGame.h   ****             
 207:SnakeGame.h   ****             snake[snake_head].x = temp.x;
 1305              		.loc 4 207 0 is_stmt 1
 1306 0118 5269     		ldr	r2, [r2, #20]
 1307 011a 2D4B     		ldr	r3, .L130+4
 1308              	.LVL122:
 1309 011c 43F83250 		str	r5, [r3, r2, lsl #3]
 208:SnakeGame.h   ****             snake[snake_head].y = temp.y;
 1310              		.loc 4 208 0
 1311 0120 03EBC203 		add	r3, r3, r2, lsl #3
 1312 0124 5E60     		str	r6, [r3, #4]
 1313              	.LVL123:
 1314              	.LBB21:
 209:SnakeGame.h   ****             for(int i = 0; i <= snake_tail; i++){
 1315              		.loc 4 209 0
 1316 0126 0023     		movs	r3, #0
 1317 0128 0CE0     		b	.L117
 1318              	.LVL124:
 1319              	.L118:
 210:SnakeGame.h   ****                 snake[i + 1].x = snake_temp_old[i].x;
 1320              		.loc 4 210 0 discriminator 3
 1321 012a 591C     		adds	r1, r3, #1
 1322 012c 50F83350 		ldr	r5, [r0, r3, lsl #3]
 1323 0130 274A     		ldr	r2, .L130+4
 1324 0132 42F83150 		str	r5, [r2, r1, lsl #3]
 211:SnakeGame.h   ****                 snake[i + 1].y = snake_temp_old[i].y;
 1325              		.loc 4 211 0 discriminator 3
 1326 0136 00EBC303 		add	r3, r0, r3, lsl #3
 1327              	.LVL125:
ARM GAS  C:\Users\isaac\AppData\Local\Temp\cc1fpKCw.s 			page 37


 1328 013a 5B68     		ldr	r3, [r3, #4]
 1329 013c 02EBC102 		add	r2, r2, r1, lsl #3
 1330 0140 5360     		str	r3, [r2, #4]
 1331              	.LVL126:
 209:SnakeGame.h   ****             for(int i = 0; i <= snake_tail; i++){
 1332              		.loc 4 209 0 discriminator 3
 1333 0142 0B46     		mov	r3, r1
 1334              	.LVL127:
 1335              	.L117:
 209:SnakeGame.h   ****             for(int i = 0; i <= snake_tail; i++){
 1336              		.loc 4 209 0 is_stmt 0 discriminator 1
 1337 0144 A342     		cmp	r3, r4
 1338 0146 F0DD     		ble	.L118
 1339              	.LBE21:
 212:SnakeGame.h   ****                 }
 213:SnakeGame.h   ****             snake_tail++;
 1340              		.loc 4 213 0 is_stmt 1
 1341 0148 204B     		ldr	r3, .L130
 1342              	.LVL128:
 1343 014a C3F818E0 		str	lr, [r3, #24]
 214:SnakeGame.h   ****             return false;
 1344              		.loc 4 214 0
 1345 014e 0020     		movs	r0, #0
 1346              	.LVL129:
 1347 0150 38E0     		b	.L108
 1348              	.LVL130:
 1349              	.L113:
 188:SnakeGame.h   **** 		if ((bait[i].x == temp.x) && (bait[i].y == temp.y)) {
 1350              		.loc 4 188 0 discriminator 2
 1351 0152 0133     		adds	r3, r3, #1
 1352              	.LVL131:
 1353              	.L112:
 188:SnakeGame.h   **** 		if ((bait[i].x == temp.x) && (bait[i].y == temp.y)) {
 1354              		.loc 4 188 0 is_stmt 0 discriminator 1
 1355 0154 042B     		cmp	r3, #4
 1356 0156 AADD     		ble	.L119
 1357 0158 0023     		movs	r3, #0
 1358              	.LVL132:
 1359 015a 0AE0     		b	.L120
 1360              	.LVL133:
 1361              	.L121:
 1362              	.LBE19:
 1363              	.LBB22:
 215:SnakeGame.h   **** 		    }
 216:SnakeGame.h   **** 	}
 217:SnakeGame.h   ****     
 218:SnakeGame.h   ****     //Movement Algorithm
 219:SnakeGame.h   ****     for(int i = 0; i < snake_tail + 1; i++){
 220:SnakeGame.h   ****         snake_temp_old[i].x = snake[i].x;
 1364              		.loc 4 220 0 is_stmt 1 discriminator 3
 1365 015c 1C49     		ldr	r1, .L130+4
 1366 015e 51F83320 		ldr	r2, [r1, r3, lsl #3]
 1367 0162 40F83320 		str	r2, [r0, r3, lsl #3]
 221:SnakeGame.h   ****         snake_temp_old[i].y = snake[i].y;
 1368              		.loc 4 221 0 discriminator 3
 1369 0166 DA00     		lsls	r2, r3, #3
 1370 0168 1144     		add	r1, r1, r2
ARM GAS  C:\Users\isaac\AppData\Local\Temp\cc1fpKCw.s 			page 38


 1371 016a 4968     		ldr	r1, [r1, #4]
 1372 016c 0244     		add	r2, r2, r0
 1373 016e 5160     		str	r1, [r2, #4]
 219:SnakeGame.h   ****         snake_temp_old[i].x = snake[i].x;
 1374              		.loc 4 219 0 discriminator 3
 1375 0170 0133     		adds	r3, r3, #1
 1376              	.LVL134:
 1377              	.L120:
 219:SnakeGame.h   ****         snake_temp_old[i].x = snake[i].x;
 1378              		.loc 4 219 0 is_stmt 0 discriminator 1
 1379 0172 164A     		ldr	r2, .L130
 1380 0174 9469     		ldr	r4, [r2, #24]
 1381 0176 621C     		adds	r2, r4, #1
 1382 0178 9342     		cmp	r3, r2
 1383 017a EFDB     		blt	.L121
 1384              	.LBE22:
 222:SnakeGame.h   ****     }
 223:SnakeGame.h   ****     snake[snake_head].x = temp.x;
 1385              		.loc 4 223 0 is_stmt 1
 1386 017c 134B     		ldr	r3, .L130
 1387              	.LVL135:
 1388 017e 5A69     		ldr	r2, [r3, #20]
 1389 0180 134B     		ldr	r3, .L130+4
 1390 0182 43F83250 		str	r5, [r3, r2, lsl #3]
 224:SnakeGame.h   ****     snake[snake_head].y = temp.y;
 1391              		.loc 4 224 0
 1392 0186 03EBC203 		add	r3, r3, r2, lsl #3
 1393 018a 5E60     		str	r6, [r3, #4]
 1394              	.LVL136:
 1395              	.LBB23:
 225:SnakeGame.h   ****     for(int i = 0; i < snake_tail; i++){
 1396              		.loc 4 225 0
 1397 018c 0023     		movs	r3, #0
 1398 018e 0CE0     		b	.L122
 1399              	.LVL137:
 1400              	.L123:
 226:SnakeGame.h   ****         snake[i + 1].x = snake_temp_old[i].x;
 1401              		.loc 4 226 0 discriminator 3
 1402 0190 591C     		adds	r1, r3, #1
 1403 0192 50F83350 		ldr	r5, [r0, r3, lsl #3]
 1404 0196 0E4A     		ldr	r2, .L130+4
 1405 0198 42F83150 		str	r5, [r2, r1, lsl #3]
 227:SnakeGame.h   ****         snake[i + 1].y = snake_temp_old[i].y;
 1406              		.loc 4 227 0 discriminator 3
 1407 019c 00EBC303 		add	r3, r0, r3, lsl #3
 1408              	.LVL138:
 1409 01a0 5B68     		ldr	r3, [r3, #4]
 1410 01a2 02EBC102 		add	r2, r2, r1, lsl #3
 1411 01a6 5360     		str	r3, [r2, #4]
 1412              	.LVL139:
 225:SnakeGame.h   ****     for(int i = 0; i < snake_tail; i++){
 1413              		.loc 4 225 0 discriminator 3
 1414 01a8 0B46     		mov	r3, r1
 1415              	.LVL140:
 1416              	.L122:
 225:SnakeGame.h   ****     for(int i = 0; i < snake_tail; i++){
 1417              		.loc 4 225 0 is_stmt 0 discriminator 1
ARM GAS  C:\Users\isaac\AppData\Local\Temp\cc1fpKCw.s 			page 39


 1418 01aa A342     		cmp	r3, r4
 1419 01ac F0DB     		blt	.L123
 1420              	.LBE23:
 228:SnakeGame.h   ****     }
 229:SnakeGame.h   **** 	return false;
 1421              		.loc 4 229 0 is_stmt 1
 1422 01ae 0020     		movs	r0, #0
 1423              	.LVL141:
 1424              	.LBB24:
 1425 01b0 08E0     		b	.L108
 1426              	.LVL142:
 1427              	.L124:
 1428              	.LBE24:
 165:SnakeGame.h   ****     }
 1429              		.loc 4 165 0
 1430 01b2 0120     		movs	r0, #1
 1431              	.LVL143:
 1432 01b4 06E0     		b	.L108
 1433              	.LVL144:
 1434              	.L125:
 169:SnakeGame.h   ****     }
 1435              		.loc 4 169 0
 1436 01b6 0120     		movs	r0, #1
 1437              	.LVL145:
 1438 01b8 04E0     		b	.L108
 1439              	.LVL146:
 1440              	.L126:
 174:SnakeGame.h   ****     }
 1441              		.loc 4 174 0
 1442 01ba 0120     		movs	r0, #1
 1443              	.LVL147:
 1444 01bc 02E0     		b	.L108
 1445              	.LVL148:
 1446              	.L127:
 178:SnakeGame.h   ****     }
 1447              		.loc 4 178 0
 1448 01be 0120     		movs	r0, #1
 1449              	.LVL149:
 1450 01c0 00E0     		b	.L108
 1451              	.LVL150:
 1452              	.L128:
 1453              	.LBB25:
 184:SnakeGame.h   **** 		}
 1454              		.loc 4 184 0
 1455 01c2 0120     		movs	r0, #1
 1456              	.LVL151:
 1457              	.L108:
 1458              	.LBE25:
 230:SnakeGame.h   **** }...
 1459              		.loc 4 230 0
 1460 01c4 1437     		adds	r7, r7, #20
 1461              		.cfi_def_cfa_offset 20
 1462 01c6 BD46     		mov	sp, r7
 1463              		.cfi_def_cfa_register 13
 1464              	.LVL152:
 1465              		@ sp needed
 1466 01c8 F0BD     		pop	{r4, r5, r6, r7, pc}
ARM GAS  C:\Users\isaac\AppData\Local\Temp\cc1fpKCw.s 			page 40


 1467              	.L131:
 1468 01ca 00BF     		.align	2
 1469              	.L130:
 1470 01cc 00000000 		.word	.LANCHOR1
 1471 01d0 00000000 		.word	snake
 1472 01d4 00000000 		.word	.LANCHOR0
 1473 01d8 00000000 		.word	bait
 1474              		.cfi_endproc
 1475              	.LFE76:
 1476              		.size	move_snake, .-move_snake
 1477              		.section	.text.PlaceHolders,"ax",%progbits
 1478              		.align	2
 1479              		.global	PlaceHolders
 1480              		.thumb
 1481              		.thumb_func
 1482              		.type	PlaceHolders, %function
 1483              	PlaceHolders:
 1484              	.LFB79:
 230:main.c        ****         for(int i = 0; i < 3; i++){
 1485              		.loc 1 230 0
 1486              		.cfi_startproc
 1487              		@ args = 0, pretend = 0, frame = 0
 1488              		@ frame_needed = 0, uses_anonymous_args = 0
 1489              		@ link register save eliminated.
 1490 0000 10B4     		push	{r4}
 1491              		.cfi_def_cfa_offset 4
 1492              		.cfi_offset 4, -4
 1493              	.LVL153:
 1494              	.LBB26:
 231:main.c        ****         players[i].score = 0;
 1495              		.loc 1 231 0
 1496 0002 0021     		movs	r1, #0
 1497 0004 14E0     		b	.L133
 1498              	.LVL154:
 1499              	.L136:
 232:main.c        ****         for(int j = 1; j < 6; j++){
 1500              		.loc 1 232 0
 1501 0006 01EB4102 		add	r2, r1, r1, lsl #1
 1502 000a 9300     		lsls	r3, r2, #2
 1503 000c 0A4A     		ldr	r2, .L138
 1504 000e 1344     		add	r3, r3, r2
 1505 0010 0022     		movs	r2, #0
 1506 0012 9A60     		str	r2, [r3, #8]
 1507              	.LVL155:
 1508              	.LBB27:
 233:main.c        ****             players[i].name[j - 1] = '#';
 1509              		.loc 1 233 0
 1510 0014 0122     		movs	r2, #1
 1511 0016 08E0     		b	.L134
 1512              	.LVL156:
 1513              	.L135:
 234:main.c        ****         }
 1514              		.loc 1 234 0 discriminator 3
 1515 0018 541E     		subs	r4, r2, #1
 1516 001a 01EB4100 		add	r0, r1, r1, lsl #1
 1517 001e 8300     		lsls	r3, r0, #2
 1518 0020 0548     		ldr	r0, .L138
ARM GAS  C:\Users\isaac\AppData\Local\Temp\cc1fpKCw.s 			page 41


 1519 0022 0344     		add	r3, r3, r0
 1520 0024 2320     		movs	r0, #35
 1521 0026 1855     		strb	r0, [r3, r4]
 233:main.c        ****             players[i].name[j - 1] = '#';
 1522              		.loc 1 233 0 discriminator 3
 1523 0028 0132     		adds	r2, r2, #1
 1524              	.LVL157:
 1525              	.L134:
 233:main.c        ****             players[i].name[j - 1] = '#';
 1526              		.loc 1 233 0 is_stmt 0 discriminator 1
 1527 002a 052A     		cmp	r2, #5
 1528 002c F4DD     		ble	.L135
 1529              	.LBE27:
 231:main.c        ****         players[i].score = 0;
 1530              		.loc 1 231 0 is_stmt 1 discriminator 2
 1531 002e 0131     		adds	r1, r1, #1
 1532              	.LVL158:
 1533              	.L133:
 231:main.c        ****         players[i].score = 0;
 1534              		.loc 1 231 0 is_stmt 0 discriminator 1
 1535 0030 0229     		cmp	r1, #2
 1536 0032 E8DD     		ble	.L136
 1537              	.LBE26:
 237:main.c        **** void WriteNewScores(){
 1538              		.loc 1 237 0 is_stmt 1
 1539 0034 10BC     		pop	{r4}
 1540              		.cfi_restore 4
 1541              		.cfi_def_cfa_offset 0
 1542 0036 7047     		bx	lr
 1543              	.L139:
 1544              		.align	2
 1545              	.L138:
 1546 0038 00000000 		.word	players
 1547              		.cfi_endproc
 1548              	.LFE79:
 1549              		.size	PlaceHolders, .-PlaceHolders
 1550              		.section	.text.EepromFirstInit,"ax",%progbits
 1551              		.align	2
 1552              		.global	EepromFirstInit
 1553              		.thumb
 1554              		.thumb_func
 1555              		.type	EepromFirstInit, %function
 1556              	EepromFirstInit:
 1557              	.LFB78:
 220:main.c        ****     PlaceHolders();
 1558              		.loc 1 220 0
 1559              		.cfi_startproc
 1560              		@ args = 0, pretend = 0, frame = 0
 1561              		@ frame_needed = 0, uses_anonymous_args = 0
 1562 0000 70B5     		push	{r4, r5, r6, lr}
 1563              		.cfi_def_cfa_offset 16
 1564              		.cfi_offset 4, -16
 1565              		.cfi_offset 5, -12
 1566              		.cfi_offset 6, -8
 1567              		.cfi_offset 14, -4
 221:main.c        ****     //First Write to EEPROM
 1568              		.loc 1 221 0
ARM GAS  C:\Users\isaac\AppData\Local\Temp\cc1fpKCw.s 			page 42


 1569 0002 FFF7FEFF 		bl	PlaceHolders
 1570              	.LVL159:
 1571              	.LBB28:
 223:main.c        ****         EEPROM_WriteByte(players[i].score, 0 + i*6);
 1572              		.loc 1 223 0
 1573 0006 0025     		movs	r5, #0
 1574 0008 1DE0     		b	.L141
 1575              	.LVL160:
 1576              	.L144:
 224:main.c        ****         for(int j = 1; j < 6; j++){
 1577              		.loc 1 224 0
 1578 000a 05EB4502 		add	r2, r5, r5, lsl #1
 1579 000e 9300     		lsls	r3, r2, #2
 1580 0010 0E4A     		ldr	r2, .L146
 1581 0012 1344     		add	r3, r3, r2
 1582 0014 05EB4502 		add	r2, r5, r5, lsl #1
 1583 0018 5600     		lsls	r6, r2, #1
 1584 001a B6B2     		uxth	r6, r6
 1585 001c 3146     		mov	r1, r6
 1586 001e 187A     		ldrb	r0, [r3, #8]	@ zero_extendqisi2
 1587 0020 FFF7FEFF 		bl	EEPROM_WriteByte
 1588              	.LVL161:
 1589              	.LBB29:
 225:main.c        ****             EEPROM_WriteByte(players[i].name[j - 1], j + i*6);
 1590              		.loc 1 225 0
 1591 0024 0124     		movs	r4, #1
 1592 0026 0BE0     		b	.L142
 1593              	.LVL162:
 1594              	.L143:
 226:main.c        ****         }
 1595              		.loc 1 226 0 discriminator 3
 1596 0028 601E     		subs	r0, r4, #1
 1597 002a 05EB4502 		add	r2, r5, r5, lsl #1
 1598 002e 9300     		lsls	r3, r2, #2
 1599 0030 064A     		ldr	r2, .L146
 1600 0032 1344     		add	r3, r3, r2
 1601 0034 3119     		adds	r1, r6, r4
 1602 0036 89B2     		uxth	r1, r1
 1603 0038 185C     		ldrb	r0, [r3, r0]	@ zero_extendqisi2
 1604 003a FFF7FEFF 		bl	EEPROM_WriteByte
 1605              	.LVL163:
 225:main.c        ****             EEPROM_WriteByte(players[i].name[j - 1], j + i*6);
 1606              		.loc 1 225 0 discriminator 3
 1607 003e 0134     		adds	r4, r4, #1
 1608              	.LVL164:
 1609              	.L142:
 225:main.c        ****             EEPROM_WriteByte(players[i].name[j - 1], j + i*6);
 1610              		.loc 1 225 0 is_stmt 0 discriminator 1
 1611 0040 052C     		cmp	r4, #5
 1612 0042 F1DD     		ble	.L143
 1613              	.LBE29:
 223:main.c        ****         EEPROM_WriteByte(players[i].score, 0 + i*6);
 1614              		.loc 1 223 0 is_stmt 1 discriminator 2
 1615 0044 0135     		adds	r5, r5, #1
 1616              	.LVL165:
 1617              	.L141:
 223:main.c        ****         EEPROM_WriteByte(players[i].score, 0 + i*6);
ARM GAS  C:\Users\isaac\AppData\Local\Temp\cc1fpKCw.s 			page 43


 1618              		.loc 1 223 0 is_stmt 0 discriminator 1
 1619 0046 022D     		cmp	r5, #2
 1620 0048 DFDD     		ble	.L144
 1621              	.LBE28:
 229:main.c        **** void PlaceHolders(){
 1622              		.loc 1 229 0 is_stmt 1
 1623 004a 70BD     		pop	{r4, r5, r6, pc}
 1624              	.LVL166:
 1625              	.L147:
 1626              		.align	2
 1627              	.L146:
 1628 004c 00000000 		.word	players
 1629              		.cfi_endproc
 1630              	.LFE78:
 1631              		.size	EepromFirstInit, .-EepromFirstInit
 1632              		.section	.text.WriteNewScores,"ax",%progbits
 1633              		.align	2
 1634              		.global	WriteNewScores
 1635              		.thumb
 1636              		.thumb_func
 1637              		.type	WriteNewScores, %function
 1638              	WriteNewScores:
 1639              	.LFB80:
 238:main.c        ****     for(int i = 0; i < 3; i++){
 1640              		.loc 1 238 0
 1641              		.cfi_startproc
 1642              		@ args = 0, pretend = 0, frame = 0
 1643              		@ frame_needed = 0, uses_anonymous_args = 0
 1644 0000 70B5     		push	{r4, r5, r6, lr}
 1645              		.cfi_def_cfa_offset 16
 1646              		.cfi_offset 4, -16
 1647              		.cfi_offset 5, -12
 1648              		.cfi_offset 6, -8
 1649              		.cfi_offset 14, -4
 1650              	.LVL167:
 1651              	.LBB30:
 239:main.c        ****         EEPROM_WriteByte(players[i].score, 0 + i*6);
 1652              		.loc 1 239 0
 1653 0002 0025     		movs	r5, #0
 1654 0004 1DE0     		b	.L149
 1655              	.LVL168:
 1656              	.L152:
 240:main.c        ****         for(int j = 1; j < 6; j++){
 1657              		.loc 1 240 0
 1658 0006 05EB4502 		add	r2, r5, r5, lsl #1
 1659 000a 9300     		lsls	r3, r2, #2
 1660 000c 0E4A     		ldr	r2, .L154
 1661 000e 1344     		add	r3, r3, r2
 1662 0010 05EB4502 		add	r2, r5, r5, lsl #1
 1663 0014 5600     		lsls	r6, r2, #1
 1664 0016 B6B2     		uxth	r6, r6
 1665 0018 3146     		mov	r1, r6
 1666 001a 187A     		ldrb	r0, [r3, #8]	@ zero_extendqisi2
 1667 001c FFF7FEFF 		bl	EEPROM_WriteByte
 1668              	.LVL169:
 1669              	.LBB31:
 241:main.c        ****             EEPROM_WriteByte(players[i].name[j - 1], j + i*6);
ARM GAS  C:\Users\isaac\AppData\Local\Temp\cc1fpKCw.s 			page 44


 1670              		.loc 1 241 0
 1671 0020 0124     		movs	r4, #1
 1672 0022 0BE0     		b	.L150
 1673              	.LVL170:
 1674              	.L151:
 242:main.c        ****         }
 1675              		.loc 1 242 0 discriminator 3
 1676 0024 601E     		subs	r0, r4, #1
 1677 0026 05EB4502 		add	r2, r5, r5, lsl #1
 1678 002a 9300     		lsls	r3, r2, #2
 1679 002c 064A     		ldr	r2, .L154
 1680 002e 1344     		add	r3, r3, r2
 1681 0030 3119     		adds	r1, r6, r4
 1682 0032 89B2     		uxth	r1, r1
 1683 0034 185C     		ldrb	r0, [r3, r0]	@ zero_extendqisi2
 1684 0036 FFF7FEFF 		bl	EEPROM_WriteByte
 1685              	.LVL171:
 241:main.c        ****             EEPROM_WriteByte(players[i].name[j - 1], j + i*6);
 1686              		.loc 1 241 0 discriminator 3
 1687 003a 0134     		adds	r4, r4, #1
 1688              	.LVL172:
 1689              	.L150:
 241:main.c        ****             EEPROM_WriteByte(players[i].name[j - 1], j + i*6);
 1690              		.loc 1 241 0 is_stmt 0 discriminator 1
 1691 003c 052C     		cmp	r4, #5
 1692 003e F1DD     		ble	.L151
 1693              	.LBE31:
 239:main.c        ****         EEPROM_WriteByte(players[i].score, 0 + i*6);
 1694              		.loc 1 239 0 is_stmt 1 discriminator 2
 1695 0040 0135     		adds	r5, r5, #1
 1696              	.LVL173:
 1697              	.L149:
 239:main.c        ****         EEPROM_WriteByte(players[i].score, 0 + i*6);
 1698              		.loc 1 239 0 is_stmt 0 discriminator 1
 1699 0042 022D     		cmp	r5, #2
 1700 0044 DFDD     		ble	.L152
 1701              	.LBE30:
 245:main.c        **** void ReadScores(){
 1702              		.loc 1 245 0 is_stmt 1
 1703 0046 70BD     		pop	{r4, r5, r6, pc}
 1704              	.LVL174:
 1705              	.L155:
 1706              		.align	2
 1707              	.L154:
 1708 0048 00000000 		.word	players
 1709              		.cfi_endproc
 1710              	.LFE80:
 1711              		.size	WriteNewScores, .-WriteNewScores
 1712              		.section	.text.ReadScores,"ax",%progbits
 1713              		.align	2
 1714              		.global	ReadScores
 1715              		.thumb
 1716              		.thumb_func
 1717              		.type	ReadScores, %function
 1718              	ReadScores:
 1719              	.LFB81:
 246:main.c        ****     for(int i = 0; i < 3; i++){
ARM GAS  C:\Users\isaac\AppData\Local\Temp\cc1fpKCw.s 			page 45


 1720              		.loc 1 246 0
 1721              		.cfi_startproc
 1722              		@ args = 0, pretend = 0, frame = 0
 1723              		@ frame_needed = 0, uses_anonymous_args = 0
 1724 0000 F8B5     		push	{r3, r4, r5, r6, r7, lr}
 1725              		.cfi_def_cfa_offset 24
 1726              		.cfi_offset 3, -24
 1727              		.cfi_offset 4, -20
 1728              		.cfi_offset 5, -16
 1729              		.cfi_offset 6, -12
 1730              		.cfi_offset 7, -8
 1731              		.cfi_offset 14, -4
 1732              	.LVL175:
 1733              	.LBB32:
 247:main.c        ****         players[i].score = EEPROM_ReadByte(0 + i*6);
 1734              		.loc 1 247 0
 1735 0002 0025     		movs	r5, #0
 1736 0004 1DE0     		b	.L157
 1737              	.LVL176:
 1738              	.L160:
 248:main.c        ****         for(int j = 1; j < 6; j++){
 1739              		.loc 1 248 0
 1740 0006 05EB4503 		add	r3, r5, r5, lsl #1
 1741 000a 5F00     		lsls	r7, r3, #1
 1742 000c BFB2     		uxth	r7, r7
 1743 000e 3846     		mov	r0, r7
 1744 0010 FFF7FEFF 		bl	EEPROM_ReadByte
 1745              	.LVL177:
 1746 0014 05EB4502 		add	r2, r5, r5, lsl #1
 1747 0018 9300     		lsls	r3, r2, #2
 1748 001a 0B4A     		ldr	r2, .L162
 1749 001c 1344     		add	r3, r3, r2
 1750 001e 9860     		str	r0, [r3, #8]
 1751              	.LVL178:
 1752              	.LBB33:
 249:main.c        ****             players[i].name[j - 1] = EEPROM_ReadByte(j + i*6);
 1753              		.loc 1 249 0
 1754 0020 0124     		movs	r4, #1
 1755 0022 0BE0     		b	.L158
 1756              	.LVL179:
 1757              	.L159:
 250:main.c        ****         }
 1758              		.loc 1 250 0 discriminator 3
 1759 0024 661E     		subs	r6, r4, #1
 1760 0026 3819     		adds	r0, r7, r4
 1761 0028 80B2     		uxth	r0, r0
 1762 002a FFF7FEFF 		bl	EEPROM_ReadByte
 1763              	.LVL180:
 1764 002e 05EB4502 		add	r2, r5, r5, lsl #1
 1765 0032 9300     		lsls	r3, r2, #2
 1766 0034 044A     		ldr	r2, .L162
 1767 0036 1344     		add	r3, r3, r2
 1768 0038 9855     		strb	r0, [r3, r6]
 249:main.c        ****             players[i].name[j - 1] = EEPROM_ReadByte(j + i*6);
 1769              		.loc 1 249 0 discriminator 3
 1770 003a 0134     		adds	r4, r4, #1
 1771              	.LVL181:
ARM GAS  C:\Users\isaac\AppData\Local\Temp\cc1fpKCw.s 			page 46


 1772              	.L158:
 249:main.c        ****             players[i].name[j - 1] = EEPROM_ReadByte(j + i*6);
 1773              		.loc 1 249 0 is_stmt 0 discriminator 1
 1774 003c 052C     		cmp	r4, #5
 1775 003e F1DD     		ble	.L159
 1776              	.LBE33:
 247:main.c        ****         players[i].score = EEPROM_ReadByte(0 + i*6);
 1777              		.loc 1 247 0 is_stmt 1 discriminator 2
 1778 0040 0135     		adds	r5, r5, #1
 1779              	.LVL182:
 1780              	.L157:
 247:main.c        ****         players[i].score = EEPROM_ReadByte(0 + i*6);
 1781              		.loc 1 247 0 is_stmt 0 discriminator 1
 1782 0042 022D     		cmp	r5, #2
 1783 0044 DFDD     		ble	.L160
 1784              	.LBE32:
 253:main.c        **** bool UpdateFirstPlace(){
 1785              		.loc 1 253 0 is_stmt 1
 1786 0046 F8BD     		pop	{r3, r4, r5, r6, r7, pc}
 1787              	.LVL183:
 1788              	.L163:
 1789              		.align	2
 1790              	.L162:
 1791 0048 00000000 		.word	players
 1792              		.cfi_endproc
 1793              	.LFE81:
 1794              		.size	ReadScores, .-ReadScores
 1795              		.section	.text.UpdateFirstPlace,"ax",%progbits
 1796              		.align	2
 1797              		.global	UpdateFirstPlace
 1798              		.thumb
 1799              		.thumb_func
 1800              		.type	UpdateFirstPlace, %function
 1801              	UpdateFirstPlace:
 1802              	.LFB82:
 254:main.c        ****     int target = -1;
 1803              		.loc 1 254 0
 1804              		.cfi_startproc
 1805              		@ args = 0, pretend = 0, frame = 16
 1806              		@ frame_needed = 0, uses_anonymous_args = 0
 1807              	.LVL184:
 1808              	.LBB34:
 258:main.c        ****         if(match_score > players[i].score){
 1809              		.loc 1 258 0
 1810 0000 0023     		movs	r3, #0
 1811 0002 0AE0     		b	.L165
 1812              	.LVL185:
 1813              	.L167:
 259:main.c        ****             target = i;
 1814              		.loc 1 259 0
 1815 0004 03EB4301 		add	r1, r3, r3, lsl #1
 1816 0008 8A00     		lsls	r2, r1, #2
 1817 000a 2C49     		ldr	r1, .L179
 1818 000c 0A44     		add	r2, r2, r1
 1819 000e 9168     		ldr	r1, [r2, #8]
 1820 0010 2B4A     		ldr	r2, .L179+4
 1821 0012 9268     		ldr	r2, [r2, #8]
ARM GAS  C:\Users\isaac\AppData\Local\Temp\cc1fpKCw.s 			page 47


 1822 0014 9142     		cmp	r1, r2
 1823 0016 04DB     		blt	.L166
 258:main.c        ****         if(match_score > players[i].score){
 1824              		.loc 1 258 0 discriminator 2
 1825 0018 0133     		adds	r3, r3, #1
 1826              	.LVL186:
 1827              	.L165:
 258:main.c        ****         if(match_score > players[i].score){
 1828              		.loc 1 258 0 is_stmt 0 discriminator 1
 1829 001a 022B     		cmp	r3, #2
 1830 001c F2DD     		ble	.L167
 1831              	.LBE34:
 255:main.c        ****     struct player players_temp;
 1832              		.loc 1 255 0 is_stmt 1
 1833 001e 4FF0FF33 		mov	r3, #-1
 1834              	.LVL187:
 1835              	.L166:
 265:main.c        ****         players[3].score = match_score;
 1836              		.loc 1 265 0
 1837 0022 B3F1FF3F 		cmp	r3, #-1
 1838 0026 45D0     		beq	.L175
 266:main.c        ****         for(int i = 0; i < 5; i++){
 1839              		.loc 1 266 0
 1840 0028 254B     		ldr	r3, .L179+4
 1841              	.LVL188:
 1842 002a 9A68     		ldr	r2, [r3, #8]
 1843 002c 234B     		ldr	r3, .L179
 1844 002e DA62     		str	r2, [r3, #44]
 1845              	.LVL189:
 1846              	.LBB35:
 267:main.c        ****         players[3].name[i] = cur_name[i];
 1847              		.loc 1 267 0
 1848 0030 0023     		movs	r3, #0
 1849 0032 07E0     		b	.L169
 1850              	.LVL190:
 1851              	.L170:
 268:main.c        ****         }
 1852              		.loc 1 268 0 discriminator 3
 1853 0034 234A     		ldr	r2, .L179+8
 1854 0036 1A44     		add	r2, r2, r3
 1855 0038 1179     		ldrb	r1, [r2, #4]	@ zero_extendqisi2
 1856 003a 204A     		ldr	r2, .L179
 1857 003c 1A44     		add	r2, r2, r3
 1858 003e 82F82410 		strb	r1, [r2, #36]
 267:main.c        ****         players[3].name[i] = cur_name[i];
 1859              		.loc 1 267 0 discriminator 3
 1860 0042 0133     		adds	r3, r3, #1
 1861              	.LVL191:
 1862              	.L169:
 267:main.c        ****         players[3].name[i] = cur_name[i];
 1863              		.loc 1 267 0 is_stmt 0 discriminator 1
 1864 0044 042B     		cmp	r3, #4
 1865 0046 F5DD     		ble	.L170
 1866              	.LBE35:
 254:main.c        ****     int target = -1;
 1867              		.loc 1 254 0 is_stmt 1
 1868 0048 F0B5     		push	{r4, r5, r6, r7, lr}
ARM GAS  C:\Users\isaac\AppData\Local\Temp\cc1fpKCw.s 			page 48


 1869              		.cfi_def_cfa_offset 20
 1870              		.cfi_offset 4, -20
 1871              		.cfi_offset 5, -16
 1872              		.cfi_offset 6, -12
 1873              		.cfi_offset 7, -8
 1874              		.cfi_offset 14, -4
 1875 004a 85B0     		sub	sp, sp, #20
 1876              		.cfi_def_cfa_offset 40
 1877              	.LBB36:
 1878 004c 0027     		movs	r7, #0
 1879 004e 2DE0     		b	.L171
 1880              	.LVL192:
 1881              	.L173:
 1882              	.LBE36:
 1883              	.LBB37:
 1884              	.LBB38:
 273:main.c        ****                 players_temp = players[d];
 1885              		.loc 1 273 0
 1886 0050 1A48     		ldr	r0, .L179
 1887 0052 03EB4302 		add	r2, r3, r3, lsl #1
 1888 0056 9100     		lsls	r1, r2, #2
 1889 0058 0144     		add	r1, r1, r0
 1890 005a 8D68     		ldr	r5, [r1, #8]
 1891 005c 5C1C     		adds	r4, r3, #1
 1892 005e 04EB4401 		add	r1, r4, r4, lsl #1
 1893 0062 8A00     		lsls	r2, r1, #2
 1894 0064 0244     		add	r2, r2, r0
 1895 0066 9268     		ldr	r2, [r2, #8]
 1896 0068 9542     		cmp	r5, r2
 1897 006a 17DA     		bge	.L172
 274:main.c        ****                 players[d]   = players[d+1];
 1898              		.loc 1 274 0
 1899 006c 8646     		mov	lr, r0
 1900 006e 5E00     		lsls	r6, r3, #1
 1901 0070 F118     		adds	r1, r6, r3
 1902 0072 8A00     		lsls	r2, r1, #2
 1903 0074 0244     		add	r2, r2, r0
 1904 0076 01AD     		add	r5, sp, #4
 1905 0078 07CA     		ldmia	r2, {r0, r1, r2}
 1906 007a 85E80700 		stmia	r5, {r0, r1, r2}
 275:main.c        ****                 players[d+1] = players_temp;
 1907              		.loc 1 275 0
 1908 007e 3344     		add	r3, r3, r6
 1909              	.LVL193:
 1910 0080 9E00     		lsls	r6, r3, #2
 1911 0082 7644     		add	r6, r6, lr
 1912 0084 6200     		lsls	r2, r4, #1
 1913 0086 2244     		add	r2, r2, r4
 1914 0088 9300     		lsls	r3, r2, #2
 1915 008a 7344     		add	r3, r3, lr
 1916 008c 93E80700 		ldmia	r3, {r0, r1, r2}
 1917 0090 86E80700 		stmia	r6, {r0, r1, r2}
 276:main.c        ****                 }
 1918              		.loc 1 276 0
 1919 0094 95E80700 		ldmia	r5, {r0, r1, r2}
 1920 0098 83E80700 		stmia	r3, {r0, r1, r2}
 1921              	.L172:
ARM GAS  C:\Users\isaac\AppData\Local\Temp\cc1fpKCw.s 			page 49


 1922              	.LBE38:
 1923 009c 2346     		mov	r3, r4
 1924 009e 00E0     		b	.L174
 1925              	.LVL194:
 1926              	.L176:
 1927 00a0 0023     		movs	r3, #0
 1928              	.L174:
 1929              	.LVL195:
 1930              	.LBB39:
 272:main.c        ****              if (players[d].score < players[d+1].score){
 1931              		.loc 1 272 0 discriminator 1
 1932 00a2 C7F10302 		rsb	r2, r7, #3
 1933 00a6 9342     		cmp	r3, r2
 1934 00a8 D2DB     		blt	.L173
 1935              	.LBE39:
 271:main.c        ****             for (int d = 0 ; d < 4 - c - 1; d++){
 1936              		.loc 1 271 0 discriminator 2
 1937 00aa 0137     		adds	r7, r7, #1
 1938              	.LVL196:
 1939              	.L171:
 271:main.c        ****             for (int d = 0 ; d < 4 - c - 1; d++){
 1940              		.loc 1 271 0 is_stmt 0 discriminator 1
 1941 00ac 022F     		cmp	r7, #2
 1942 00ae F7DD     		ble	.L176
 1943              	.LBE37:
 280:main.c        ****     }
 1944              		.loc 1 280 0 is_stmt 1
 1945 00b0 0120     		movs	r0, #1
 1946              	.LBB40:
 1947 00b2 01E0     		b	.L168
 1948              	.LVL197:
 1949              	.L175:
 1950              		.cfi_def_cfa_offset 0
 1951              		.cfi_restore 4
 1952              		.cfi_restore 5
 1953              		.cfi_restore 6
 1954              		.cfi_restore 7
 1955              		.cfi_restore 14
 1956              	.LBE40:
 282:main.c        **** }
 1957              		.loc 1 282 0
 1958 00b4 0020     		movs	r0, #0
 1959 00b6 7047     		bx	lr
 1960              	.LVL198:
 1961              	.L168:
 1962              		.cfi_def_cfa_offset 40
 1963              		.cfi_offset 4, -20
 1964              		.cfi_offset 5, -16
 1965              		.cfi_offset 6, -12
 1966              		.cfi_offset 7, -8
 1967              		.cfi_offset 14, -4
 283:main.c        **** //Animation for transitions.
 1968              		.loc 1 283 0
 1969 00b8 05B0     		add	sp, sp, #20
 1970              		.cfi_def_cfa_offset 20
 1971              		@ sp needed
 1972 00ba F0BD     		pop	{r4, r5, r6, r7, pc}
ARM GAS  C:\Users\isaac\AppData\Local\Temp\cc1fpKCw.s 			page 50


 1973              	.LVL199:
 1974              	.L180:
 1975              		.align	2
 1976              	.L179:
 1977 00bc 00000000 		.word	players
 1978 00c0 00000000 		.word	.LANCHOR1
 1979 00c4 00000000 		.word	.LANCHOR0
 1980              		.cfi_endproc
 1981              	.LFE82:
 1982              		.size	UpdateFirstPlace, .-UpdateFirstPlace
 1983              		.section	.text.Animation,"ax",%progbits
 1984              		.align	2
 1985              		.global	Animation
 1986              		.thumb
 1987              		.thumb_func
 1988              		.type	Animation, %function
 1989              	Animation:
 1990              	.LFB83:
 285:main.c        ****     for(int i = 0; i < 8; i++){
 1991              		.loc 1 285 0
 1992              		.cfi_startproc
 1993              		@ args = 0, pretend = 0, frame = 0
 1994              		@ frame_needed = 0, uses_anonymous_args = 0
 1995 0000 70B5     		push	{r4, r5, r6, lr}
 1996              		.cfi_def_cfa_offset 16
 1997              		.cfi_offset 4, -16
 1998              		.cfi_offset 5, -12
 1999              		.cfi_offset 6, -8
 2000              		.cfi_offset 14, -4
 2001              	.LVL200:
 2002              	.LBB41:
 286:main.c        ****         LCD_Position(0,8 + i);
 2003              		.loc 1 286 0
 2004 0002 0026     		movs	r6, #0
 2005 0004 26E0     		b	.L182
 2006              	.LVL201:
 2007              	.L183:
 287:main.c        ****         LCD_PutChar('#');
 2008              		.loc 1 287 0 discriminator 3
 2009 0006 F4B2     		uxtb	r4, r6
 2010 0008 04F10805 		add	r5, r4, #8
 2011 000c EDB2     		uxtb	r5, r5
 2012 000e 2946     		mov	r1, r5
 2013 0010 0020     		movs	r0, #0
 2014 0012 FFF7FEFF 		bl	LCD_Position
 2015              	.LVL202:
 288:main.c        ****         LCD_Position(0,7 - i);
 2016              		.loc 1 288 0 discriminator 3
 2017 0016 2320     		movs	r0, #35
 2018 0018 FFF7FEFF 		bl	LCD_PutChar
 2019              	.LVL203:
 289:main.c        ****         LCD_PutChar('#');
 2020              		.loc 1 289 0 discriminator 3
 2021 001c C4F10704 		rsb	r4, r4, #7
 2022 0020 E4B2     		uxtb	r4, r4
 2023 0022 2146     		mov	r1, r4
 2024 0024 0020     		movs	r0, #0
ARM GAS  C:\Users\isaac\AppData\Local\Temp\cc1fpKCw.s 			page 51


 2025 0026 FFF7FEFF 		bl	LCD_Position
 2026              	.LVL204:
 290:main.c        ****         LCD_Position(1,8 + i);
 2027              		.loc 1 290 0 discriminator 3
 2028 002a 2320     		movs	r0, #35
 2029 002c FFF7FEFF 		bl	LCD_PutChar
 2030              	.LVL205:
 291:main.c        ****         LCD_PutChar('#');
 2031              		.loc 1 291 0 discriminator 3
 2032 0030 2946     		mov	r1, r5
 2033 0032 0120     		movs	r0, #1
 2034 0034 FFF7FEFF 		bl	LCD_Position
 2035              	.LVL206:
 292:main.c        ****         LCD_Position(1,7 - i);
 2036              		.loc 1 292 0 discriminator 3
 2037 0038 2320     		movs	r0, #35
 2038 003a FFF7FEFF 		bl	LCD_PutChar
 2039              	.LVL207:
 293:main.c        ****         LCD_PutChar('#');
 2040              		.loc 1 293 0 discriminator 3
 2041 003e 2146     		mov	r1, r4
 2042 0040 0120     		movs	r0, #1
 2043 0042 FFF7FEFF 		bl	LCD_Position
 2044              	.LVL208:
 294:main.c        ****         CyDelay(100);
 2045              		.loc 1 294 0 discriminator 3
 2046 0046 2320     		movs	r0, #35
 2047 0048 FFF7FEFF 		bl	LCD_PutChar
 2048              	.LVL209:
 295:main.c        ****     }
 2049              		.loc 1 295 0 discriminator 3
 2050 004c 6420     		movs	r0, #100
 2051 004e FFF7FEFF 		bl	CyDelay
 2052              	.LVL210:
 286:main.c        ****         LCD_Position(0,8 + i);
 2053              		.loc 1 286 0 discriminator 3
 2054 0052 0136     		adds	r6, r6, #1
 2055              	.LVL211:
 2056              	.L182:
 286:main.c        ****         LCD_Position(0,8 + i);
 2057              		.loc 1 286 0 is_stmt 0 discriminator 1
 2058 0054 072E     		cmp	r6, #7
 2059 0056 D6DD     		ble	.L183
 2060              	.LBE41:
 297:main.c        ****     for(int i = 0; i < 16; i++){
 2061              		.loc 1 297 0 is_stmt 1
 2062 0058 0120     		movs	r0, #1
 2063 005a FFF7FEFF 		bl	LCD_WriteControl
 2064              	.LVL212:
 2065              	.LBB42:
 298:main.c        ****         LCD_Position(0,i);
 2066              		.loc 1 298 0
 2067 005e 0024     		movs	r4, #0
 2068 0060 0FE0     		b	.L184
 2069              	.LVL213:
 2070              	.L185:
 299:main.c        ****         LCD_PutChar('%');
ARM GAS  C:\Users\isaac\AppData\Local\Temp\cc1fpKCw.s 			page 52


 2071              		.loc 1 299 0 discriminator 3
 2072 0062 E5B2     		uxtb	r5, r4
 2073 0064 2946     		mov	r1, r5
 2074 0066 0020     		movs	r0, #0
 2075 0068 FFF7FEFF 		bl	LCD_Position
 2076              	.LVL214:
 300:main.c        ****         LCD_Position(1,i);
 2077              		.loc 1 300 0 discriminator 3
 2078 006c 2520     		movs	r0, #37
 2079 006e FFF7FEFF 		bl	LCD_PutChar
 2080              	.LVL215:
 301:main.c        ****         LCD_PutChar('%');
 2081              		.loc 1 301 0 discriminator 3
 2082 0072 2946     		mov	r1, r5
 2083 0074 0120     		movs	r0, #1
 2084 0076 FFF7FEFF 		bl	LCD_Position
 2085              	.LVL216:
 302:main.c        ****     }
 2086              		.loc 1 302 0 discriminator 3
 2087 007a 2520     		movs	r0, #37
 2088 007c FFF7FEFF 		bl	LCD_PutChar
 2089              	.LVL217:
 298:main.c        ****         LCD_Position(0,i);
 2090              		.loc 1 298 0 discriminator 3
 2091 0080 0134     		adds	r4, r4, #1
 2092              	.LVL218:
 2093              	.L184:
 298:main.c        ****         LCD_Position(0,i);
 2094              		.loc 1 298 0 is_stmt 0 discriminator 1
 2095 0082 0F2C     		cmp	r4, #15
 2096 0084 EDDD     		ble	.L185
 2097              	.LBE42:
 304:main.c        ****     LCD_ClearDisplay();
 2098              		.loc 1 304 0 is_stmt 1
 2099 0086 6420     		movs	r0, #100
 2100 0088 FFF7FEFF 		bl	CyDelay
 2101              	.LVL219:
 305:main.c        **** }
 2102              		.loc 1 305 0
 2103 008c 0120     		movs	r0, #1
 2104 008e FFF7FEFF 		bl	LCD_WriteControl
 2105              	.LVL220:
 2106 0092 70BD     		pop	{r4, r5, r6, pc}
 2107              		.cfi_endproc
 2108              	.LFE83:
 2109              		.size	Animation, .-Animation
 2110              		.section	.text.Names_Recieved,"ax",%progbits
 2111              		.align	2
 2112              		.global	Names_Recieved
 2113              		.thumb
 2114              		.thumb_func
 2115              		.type	Names_Recieved, %function
 2116              	Names_Recieved:
 2117              	.LFB88:
 361:main.c        **** }
 362:main.c        **** 
 363:main.c        **** 
ARM GAS  C:\Users\isaac\AppData\Local\Temp\cc1fpKCw.s 			page 53


 364:main.c        **** //Recibir Nombre
 365:main.c        **** void Names_Recieved(char name_str[32]){
 2118              		.loc 1 365 0
 2119              		.cfi_startproc
 2120              		@ args = 0, pretend = 0, frame = 0
 2121              		@ frame_needed = 0, uses_anonymous_args = 0
 2122              		@ link register save eliminated.
 2123              	.LVL221:
 2124 0000 10B4     		push	{r4}
 2125              		.cfi_def_cfa_offset 4
 2126              		.cfi_offset 4, -4
 2127              	.LVL222:
 2128              	.LBB43:
 366:main.c        ****     int j = 0;
 367:main.c        ****     for(int i = 4; i < 9; i++){
 2129              		.loc 1 367 0
 2130 0002 0423     		movs	r3, #4
 2131              	.LBE43:
 366:main.c        ****     int j = 0;
 2132              		.loc 1 366 0
 2133 0004 0021     		movs	r1, #0
 2134              	.LBB44:
 2135              		.loc 1 367 0
 2136 0006 05E0     		b	.L188
 2137              	.LVL223:
 2138              	.L189:
 368:main.c        ****         cur_name[j] = name_str[i];
 2139              		.loc 1 368 0 discriminator 3
 2140 0008 C45C     		ldrb	r4, [r0, r3]	@ zero_extendqisi2
 2141 000a 064A     		ldr	r2, .L191
 2142 000c 0A44     		add	r2, r2, r1
 2143 000e 1471     		strb	r4, [r2, #4]
 369:main.c        ****         j++;
 2144              		.loc 1 369 0 discriminator 3
 2145 0010 0131     		adds	r1, r1, #1
 2146              	.LVL224:
 367:main.c        ****         cur_name[j] = name_str[i];
 2147              		.loc 1 367 0 discriminator 3
 2148 0012 0133     		adds	r3, r3, #1
 2149              	.LVL225:
 2150              	.L188:
 367:main.c        ****         cur_name[j] = name_str[i];
 2151              		.loc 1 367 0 is_stmt 0 discriminator 1
 2152 0014 082B     		cmp	r3, #8
 2153 0016 F7DD     		ble	.L189
 2154              	.LBE44:
 370:main.c        ****     }
 371:main.c        ****     name_wait = 1;
 2155              		.loc 1 371 0 is_stmt 1
 2156 0018 0122     		movs	r2, #1
 2157 001a 034B     		ldr	r3, .L191+4
 2158              	.LVL226:
 2159 001c DA61     		str	r2, [r3, #28]
 372:main.c        **** }
 2160              		.loc 1 372 0
 2161 001e 10BC     		pop	{r4}
 2162              		.cfi_restore 4
ARM GAS  C:\Users\isaac\AppData\Local\Temp\cc1fpKCw.s 			page 54


 2163              		.cfi_def_cfa_offset 0
 2164 0020 7047     		bx	lr
 2165              	.L192:
 2166 0022 00BF     		.align	2
 2167              	.L191:
 2168 0024 00000000 		.word	.LANCHOR0
 2169 0028 00000000 		.word	.LANCHOR1
 2170              		.cfi_endproc
 2171              	.LFE88:
 2172              		.size	Names_Recieved, .-Names_Recieved
 2173              		.section	.text.com_handler,"ax",%progbits
 2174              		.align	2
 2175              		.global	com_handler
 2176              		.thumb
 2177              		.thumb_func
 2178              		.type	com_handler, %function
 2179              	com_handler:
 2180              	.LFB90:
 373:main.c        **** //Update Status
 374:main.c        **** void UpdateStatus(){
 375:main.c        ****     char mesage[24];
 376:main.c        ****     sprintf(mesage,"BST,%c,F\n",state);
 377:main.c        ****     UART_PutString(mesage);
 378:main.c        **** }
 379:main.c        **** 
 380:main.c        **** //------Comunicacion UART----
 381:main.c        **** CY_ISR(com_handler){
 2181              		.loc 1 381 0
 2182              		.cfi_startproc
 2183              		@ args = 0, pretend = 0, frame = 0
 2184              		@ frame_needed = 0, uses_anonymous_args = 0
 2185 0000 10B5     		push	{r4, lr}
 2186              		.cfi_def_cfa_offset 8
 2187              		.cfi_offset 4, -8
 2188              		.cfi_offset 14, -4
 382:main.c        ****     foo = UART_GetChar();
 2189              		.loc 1 382 0
 2190 0002 FFF7FEFF 		bl	UART_GetChar
 2191              	.LVL227:
 2192 0006 784B     		ldr	r3, .L222
 2193 0008 1870     		strb	r0, [r3]
 383:main.c        ****     if(foo == 'M'){
 2194              		.loc 1 383 0
 2195 000a 4D28     		cmp	r0, #77
 2196 000c 0CD1     		bne	.L194
 384:main.c        ****         cs = 0;
 2197              		.loc 1 384 0
 2198 000e 774A     		ldr	r2, .L222+4
 2199 0010 0024     		movs	r4, #0
 2200 0012 1462     		str	r4, [r2, #32]
 385:main.c        ****         pass = 1;
 2201              		.loc 1 385 0
 2202 0014 764B     		ldr	r3, .L222+8
 2203 0016 0121     		movs	r1, #1
 2204 0018 D960     		str	r1, [r3, #12]
 386:main.c        ****         comas = 0;
 2205              		.loc 1 386 0
ARM GAS  C:\Users\isaac\AppData\Local\Temp\cc1fpKCw.s 			page 55


 2206 001a 5462     		str	r4, [r2, #36]
 387:main.c        ****         read = 1;
 2207              		.loc 1 387 0
 2208 001c 1961     		str	r1, [r3, #16]
 388:main.c        ****         max_comas = 2;
 2209              		.loc 1 388 0
 2210 001e 0221     		movs	r1, #2
 2211 0020 9162     		str	r1, [r2, #40]
 389:main.c        ****         com_state = 'm';
 2212              		.loc 1 389 0
 2213 0022 6D22     		movs	r2, #109
 2214 0024 1A75     		strb	r2, [r3, #20]
 2215 0026 0DE0     		b	.L195
 2216              	.L194:
 390:main.c        ****     }
 391:main.c        ****     else if(foo == 'J'){
 2217              		.loc 1 391 0
 2218 0028 4A28     		cmp	r0, #74
 2219 002a 0BD1     		bne	.L195
 392:main.c        ****         cs = 0;
 2220              		.loc 1 392 0
 2221 002c 6F4A     		ldr	r2, .L222+4
 2222 002e 0024     		movs	r4, #0
 2223 0030 1462     		str	r4, [r2, #32]
 393:main.c        ****         pass = 1;
 2224              		.loc 1 393 0
 2225 0032 6F4B     		ldr	r3, .L222+8
 2226 0034 0121     		movs	r1, #1
 2227 0036 D960     		str	r1, [r3, #12]
 394:main.c        ****         comas = 0;
 2228              		.loc 1 394 0
 2229 0038 5462     		str	r4, [r2, #36]
 395:main.c        ****         read = 1;
 2230              		.loc 1 395 0
 2231 003a 1961     		str	r1, [r3, #16]
 396:main.c        ****         max_comas = 3;
 2232              		.loc 1 396 0
 2233 003c 0321     		movs	r1, #3
 2234 003e 9162     		str	r1, [r2, #40]
 397:main.c        ****         com_state = 'n';
 2235              		.loc 1 397 0
 2236 0040 6E22     		movs	r2, #110
 2237 0042 1A75     		strb	r2, [r3, #20]
 2238              	.L195:
 398:main.c        ****     }
 399:main.c        ****     switch(com_state){
 2239              		.loc 1 399 0
 2240 0044 6A4B     		ldr	r3, .L222+8
 2241 0046 1B7D     		ldrb	r3, [r3, #20]	@ zero_extendqisi2
 2242 0048 6D2B     		cmp	r3, #109
 2243 004a 02D0     		beq	.L197
 2244 004c 6E2B     		cmp	r3, #110
 2245 004e 64D0     		beq	.L198
 2246 0050 C6E0     		b	.L196
 2247              	.L197:
 400:main.c        ****         case 'm':
 401:main.c        ****             if(foo == ','){
ARM GAS  C:\Users\isaac\AppData\Local\Temp\cc1fpKCw.s 			page 56


 2248              		.loc 1 401 0
 2249 0052 2C28     		cmp	r0, #44
 2250 0054 03D1     		bne	.L199
 402:main.c        ****                 comas++;
 2251              		.loc 1 402 0
 2252 0056 654A     		ldr	r2, .L222+4
 2253 0058 536A     		ldr	r3, [r2, #36]
 2254 005a 0133     		adds	r3, r3, #1
 2255 005c 5362     		str	r3, [r2, #36]
 2256              	.L199:
 403:main.c        ****             }
 404:main.c        ****             if(read == 1){
 2257              		.loc 1 404 0
 2258 005e 644B     		ldr	r3, .L222+8
 2259 0060 1B69     		ldr	r3, [r3, #16]
 2260 0062 012B     		cmp	r3, #1
 2261 0064 04D1     		bne	.L200
 405:main.c        ****              check[cs] = foo;
 2262              		.loc 1 405 0
 2263 0066 614B     		ldr	r3, .L222+4
 2264 0068 1B6A     		ldr	r3, [r3, #32]
 2265 006a 614A     		ldr	r2, .L222+8
 2266 006c 1344     		add	r3, r3, r2
 2267 006e 1876     		strb	r0, [r3, #24]
 2268              	.L200:
 406:main.c        ****             }
 407:main.c        ****             if(cs == 3){
 2269              		.loc 1 407 0
 2270 0070 5E4B     		ldr	r3, .L222+4
 2271 0072 1B6A     		ldr	r3, [r3, #32]
 2272 0074 032B     		cmp	r3, #3
 2273 0076 14D1     		bne	.L201
 408:main.c        ****                 if(check[0] != 'M'){ pass = 0;}
 2274              		.loc 1 408 0
 2275 0078 5D4A     		ldr	r2, .L222+8
 2276 007a 127E     		ldrb	r2, [r2, #24]	@ zero_extendqisi2
 2277 007c 4D2A     		cmp	r2, #77
 2278 007e 02D0     		beq	.L202
 2279              		.loc 1 408 0 is_stmt 0 discriminator 1
 2280 0080 0021     		movs	r1, #0
 2281 0082 5B4A     		ldr	r2, .L222+8
 2282 0084 D160     		str	r1, [r2, #12]
 2283              	.L202:
 409:main.c        ****                 if(check[1] != 'V'){ pass = 0;}
 2284              		.loc 1 409 0 is_stmt 1
 2285 0086 5A4A     		ldr	r2, .L222+8
 2286 0088 527E     		ldrb	r2, [r2, #25]	@ zero_extendqisi2
 2287 008a 562A     		cmp	r2, #86
 2288 008c 02D0     		beq	.L203
 2289              		.loc 1 409 0 is_stmt 0 discriminator 1
 2290 008e 0021     		movs	r1, #0
 2291 0090 574A     		ldr	r2, .L222+8
 2292 0092 D160     		str	r1, [r2, #12]
 2293              	.L203:
 410:main.c        ****                 if(check[2] != 'T'){ pass = 0;}
 2294              		.loc 1 410 0 is_stmt 1
 2295 0094 564A     		ldr	r2, .L222+8
ARM GAS  C:\Users\isaac\AppData\Local\Temp\cc1fpKCw.s 			page 57


 2296 0096 927E     		ldrb	r2, [r2, #26]	@ zero_extendqisi2
 2297 0098 542A     		cmp	r2, #84
 2298 009a 02D0     		beq	.L201
 2299              		.loc 1 410 0 is_stmt 0 discriminator 1
 2300 009c 0021     		movs	r1, #0
 2301 009e 544A     		ldr	r2, .L222+8
 2302 00a0 D160     		str	r1, [r2, #12]
 2303              	.L201:
 411:main.c        ****             }
 412:main.c        ****             if(cs == 6){
 2304              		.loc 1 412 0 is_stmt 1
 2305 00a2 062B     		cmp	r3, #6
 2306 00a4 14D1     		bne	.L204
 413:main.c        ****                 if(check[0] != 'M'){ pass = 0;}
 2307              		.loc 1 413 0
 2308 00a6 524A     		ldr	r2, .L222+8
 2309 00a8 127E     		ldrb	r2, [r2, #24]	@ zero_extendqisi2
 2310 00aa 4D2A     		cmp	r2, #77
 2311 00ac 02D0     		beq	.L205
 2312              		.loc 1 413 0 is_stmt 0 discriminator 1
 2313 00ae 0021     		movs	r1, #0
 2314 00b0 4F4A     		ldr	r2, .L222+8
 2315 00b2 D160     		str	r1, [r2, #12]
 2316              	.L205:
 414:main.c        ****                 if(check[1] != 'V'){ pass = 0;}
 2317              		.loc 1 414 0 is_stmt 1
 2318 00b4 4E4A     		ldr	r2, .L222+8
 2319 00b6 527E     		ldrb	r2, [r2, #25]	@ zero_extendqisi2
 2320 00b8 562A     		cmp	r2, #86
 2321 00ba 02D0     		beq	.L206
 2322              		.loc 1 414 0 is_stmt 0 discriminator 1
 2323 00bc 0021     		movs	r1, #0
 2324 00be 4C4A     		ldr	r2, .L222+8
 2325 00c0 D160     		str	r1, [r2, #12]
 2326              	.L206:
 415:main.c        ****                 if(check[2] != 'T'){ pass = 0;}
 2327              		.loc 1 415 0 is_stmt 1
 2328 00c2 4B4A     		ldr	r2, .L222+8
 2329 00c4 927E     		ldrb	r2, [r2, #26]	@ zero_extendqisi2
 2330 00c6 542A     		cmp	r2, #84
 2331 00c8 02D0     		beq	.L204
 2332              		.loc 1 415 0 is_stmt 0 discriminator 1
 2333 00ca 0021     		movs	r1, #0
 2334 00cc 484A     		ldr	r2, .L222+8
 2335 00ce D160     		str	r1, [r2, #12]
 2336              	.L204:
 416:main.c        ****             }
 417:main.c        ****             if((foo == 'F')&&(cs==6)&&(pass == 1)&&(comas == max_comas)){
 2337              		.loc 1 417 0 is_stmt 1
 2338 00d0 4628     		cmp	r0, #70
 2339 00d2 1DD1     		bne	.L207
 2340              		.loc 1 417 0 is_stmt 0 discriminator 1
 2341 00d4 062B     		cmp	r3, #6
 2342 00d6 1BD1     		bne	.L207
 2343              		.loc 1 417 0 discriminator 2
 2344 00d8 454B     		ldr	r3, .L222+8
 2345 00da DB68     		ldr	r3, [r3, #12]
ARM GAS  C:\Users\isaac\AppData\Local\Temp\cc1fpKCw.s 			page 58


 2346 00dc 012B     		cmp	r3, #1
 2347 00de 17D1     		bne	.L207
 2348              		.loc 1 417 0 discriminator 3
 2349 00e0 424B     		ldr	r3, .L222+4
 2350 00e2 5A6A     		ldr	r2, [r3, #36]
 2351 00e4 9B6A     		ldr	r3, [r3, #40]
 2352 00e6 9A42     		cmp	r2, r3
 2353 00e8 12D1     		bne	.L207
 418:main.c        ****                  read = 0;
 2354              		.loc 1 418 0 is_stmt 1
 2355 00ea 0022     		movs	r2, #0
 2356 00ec 404B     		ldr	r3, .L222+8
 2357 00ee 1A61     		str	r2, [r3, #16]
 2358              	.LVL228:
 2359              	.LBB45:
 419:main.c        ****                 for(int i = 0; i < 7; i++){
 2360              		.loc 1 419 0
 2361 00f0 05E0     		b	.L208
 2362              	.LVL229:
 2363              	.L209:
 420:main.c        ****                     codigo[i] = check[i];
 2364              		.loc 1 420 0 discriminator 3
 2365 00f2 3F4B     		ldr	r3, .L222+8
 2366 00f4 1344     		add	r3, r3, r2
 2367 00f6 197E     		ldrb	r1, [r3, #24]	@ zero_extendqisi2
 2368 00f8 83F83810 		strb	r1, [r3, #56]
 419:main.c        ****                 for(int i = 0; i < 7; i++){
 2369              		.loc 1 419 0 discriminator 3
 2370 00fc 0132     		adds	r2, r2, #1
 2371              	.LVL230:
 2372              	.L208:
 419:main.c        ****                 for(int i = 0; i < 7; i++){
 2373              		.loc 1 419 0 is_stmt 0 discriminator 1
 2374 00fe 062A     		cmp	r2, #6
 2375 0100 F7DD     		ble	.L209
 2376              	.LBE45:
 421:main.c        ****                 }
 422:main.c        ****                 change_dir(codigo[4]);
 2377              		.loc 1 422 0 is_stmt 1
 2378 0102 3B4C     		ldr	r4, .L222+8
 2379 0104 94F83C00 		ldrb	r0, [r4, #60]	@ zero_extendqisi2
 2380 0108 FFF7FEFF 		bl	change_dir
 2381              	.LVL231:
 423:main.c        ****                 com_state = 'x';
 2382              		.loc 1 423 0
 2383 010c 7823     		movs	r3, #120
 2384 010e 2375     		strb	r3, [r4, #20]
 2385              	.L207:
 424:main.c        ****             }
 425:main.c        ****             cs++;
 2386              		.loc 1 425 0
 2387 0110 364A     		ldr	r2, .L222+4
 2388 0112 136A     		ldr	r3, [r2, #32]
 2389 0114 0133     		adds	r3, r3, #1
 2390 0116 1362     		str	r3, [r2, #32]
 426:main.c        ****             break;
 2391              		.loc 1 426 0
ARM GAS  C:\Users\isaac\AppData\Local\Temp\cc1fpKCw.s 			page 59


 2392 0118 62E0     		b	.L196
 2393              	.L198:
 427:main.c        ****             case 'n':
 428:main.c        ****                 if(foo == ','){
 2394              		.loc 1 428 0
 2395 011a 2C28     		cmp	r0, #44
 2396 011c 03D1     		bne	.L210
 429:main.c        ****                     comas++;
 2397              		.loc 1 429 0
 2398 011e 334A     		ldr	r2, .L222+4
 2399 0120 536A     		ldr	r3, [r2, #36]
 2400 0122 0133     		adds	r3, r3, #1
 2401 0124 5362     		str	r3, [r2, #36]
 2402              	.L210:
 430:main.c        ****                 }
 431:main.c        ****                 if(read == 1){
 2403              		.loc 1 431 0
 2404 0126 324B     		ldr	r3, .L222+8
 2405 0128 1B69     		ldr	r3, [r3, #16]
 2406 012a 012B     		cmp	r3, #1
 2407 012c 04D1     		bne	.L211
 432:main.c        ****                  check[cs] = foo;
 2408              		.loc 1 432 0
 2409 012e 2F4B     		ldr	r3, .L222+4
 2410 0130 1B6A     		ldr	r3, [r3, #32]
 2411 0132 2F4A     		ldr	r2, .L222+8
 2412 0134 1344     		add	r3, r3, r2
 2413 0136 1876     		strb	r0, [r3, #24]
 2414              	.L211:
 433:main.c        ****                 }
 434:main.c        ****                 if(cs == 3){
 2415              		.loc 1 434 0
 2416 0138 2C4B     		ldr	r3, .L222+4
 2417 013a 1B6A     		ldr	r3, [r3, #32]
 2418 013c 032B     		cmp	r3, #3
 2419 013e 14D1     		bne	.L212
 435:main.c        ****                     if(check[0] != 'J'){ pass = 0;}
 2420              		.loc 1 435 0
 2421 0140 2B4A     		ldr	r2, .L222+8
 2422 0142 127E     		ldrb	r2, [r2, #24]	@ zero_extendqisi2
 2423 0144 4A2A     		cmp	r2, #74
 2424 0146 02D0     		beq	.L213
 2425              		.loc 1 435 0 is_stmt 0 discriminator 1
 2426 0148 0021     		movs	r1, #0
 2427 014a 294A     		ldr	r2, .L222+8
 2428 014c D160     		str	r1, [r2, #12]
 2429              	.L213:
 436:main.c        ****                     if(check[1] != 'K'){ pass = 0;}
 2430              		.loc 1 436 0 is_stmt 1
 2431 014e 284A     		ldr	r2, .L222+8
 2432 0150 527E     		ldrb	r2, [r2, #25]	@ zero_extendqisi2
 2433 0152 4B2A     		cmp	r2, #75
 2434 0154 02D0     		beq	.L214
 2435              		.loc 1 436 0 is_stmt 0 discriminator 1
 2436 0156 0021     		movs	r1, #0
 2437 0158 254A     		ldr	r2, .L222+8
 2438 015a D160     		str	r1, [r2, #12]
ARM GAS  C:\Users\isaac\AppData\Local\Temp\cc1fpKCw.s 			page 60


 2439              	.L214:
 437:main.c        ****                     if(check[2] != 'L'){ pass = 0;}
 2440              		.loc 1 437 0 is_stmt 1
 2441 015c 244A     		ldr	r2, .L222+8
 2442 015e 927E     		ldrb	r2, [r2, #26]	@ zero_extendqisi2
 2443 0160 4C2A     		cmp	r2, #76
 2444 0162 02D0     		beq	.L212
 2445              		.loc 1 437 0 is_stmt 0 discriminator 1
 2446 0164 0021     		movs	r1, #0
 2447 0166 224A     		ldr	r2, .L222+8
 2448 0168 D160     		str	r1, [r2, #12]
 2449              	.L212:
 438:main.c        ****                 }
 439:main.c        ****                 if(cs == 17){
 2450              		.loc 1 439 0 is_stmt 1
 2451 016a 112B     		cmp	r3, #17
 2452 016c 14D1     		bne	.L215
 440:main.c        ****                     if(check[0] != 'J'){ pass = 0;}
 2453              		.loc 1 440 0
 2454 016e 204A     		ldr	r2, .L222+8
 2455 0170 127E     		ldrb	r2, [r2, #24]	@ zero_extendqisi2
 2456 0172 4A2A     		cmp	r2, #74
 2457 0174 02D0     		beq	.L216
 2458              		.loc 1 440 0 is_stmt 0 discriminator 1
 2459 0176 0021     		movs	r1, #0
 2460 0178 1D4A     		ldr	r2, .L222+8
 2461 017a D160     		str	r1, [r2, #12]
 2462              	.L216:
 441:main.c        ****                     if(check[1] != 'K'){ pass = 0;}
 2463              		.loc 1 441 0 is_stmt 1
 2464 017c 1C4A     		ldr	r2, .L222+8
 2465 017e 527E     		ldrb	r2, [r2, #25]	@ zero_extendqisi2
 2466 0180 4B2A     		cmp	r2, #75
 2467 0182 02D0     		beq	.L217
 2468              		.loc 1 441 0 is_stmt 0 discriminator 1
 2469 0184 0021     		movs	r1, #0
 2470 0186 1A4A     		ldr	r2, .L222+8
 2471 0188 D160     		str	r1, [r2, #12]
 2472              	.L217:
 442:main.c        ****                     if(check[2] != 'L'){ pass = 0;}
 2473              		.loc 1 442 0 is_stmt 1
 2474 018a 194A     		ldr	r2, .L222+8
 2475 018c 927E     		ldrb	r2, [r2, #26]	@ zero_extendqisi2
 2476 018e 4C2A     		cmp	r2, #76
 2477 0190 02D0     		beq	.L215
 2478              		.loc 1 442 0 is_stmt 0 discriminator 1
 2479 0192 0021     		movs	r1, #0
 2480 0194 164A     		ldr	r2, .L222+8
 2481 0196 D160     		str	r1, [r2, #12]
 2482              	.L215:
 443:main.c        ****                 }
 444:main.c        ****                 if((foo == 'F')&&(cs==16)&&(pass == 1)&&(comas == max_comas)){
 2483              		.loc 1 444 0 is_stmt 1
 2484 0198 4628     		cmp	r0, #70
 2485 019a 1DD1     		bne	.L218
 2486              		.loc 1 444 0 is_stmt 0 discriminator 1
 2487 019c 102B     		cmp	r3, #16
ARM GAS  C:\Users\isaac\AppData\Local\Temp\cc1fpKCw.s 			page 61


 2488 019e 1BD1     		bne	.L218
 2489              		.loc 1 444 0 discriminator 2
 2490 01a0 134B     		ldr	r3, .L222+8
 2491 01a2 DB68     		ldr	r3, [r3, #12]
 2492 01a4 012B     		cmp	r3, #1
 2493 01a6 17D1     		bne	.L218
 2494              		.loc 1 444 0 discriminator 3
 2495 01a8 104B     		ldr	r3, .L222+4
 2496 01aa 5A6A     		ldr	r2, [r3, #36]
 2497 01ac 9B6A     		ldr	r3, [r3, #40]
 2498 01ae 9A42     		cmp	r2, r3
 2499 01b0 12D1     		bne	.L218
 445:main.c        ****                      read = 0;
 2500              		.loc 1 445 0 is_stmt 1
 2501 01b2 0022     		movs	r2, #0
 2502 01b4 0E4B     		ldr	r3, .L222+8
 2503 01b6 1A61     		str	r2, [r3, #16]
 2504              	.LVL232:
 2505              	.LBB46:
 446:main.c        ****                     for(int i = 0; i < 17; i++){
 2506              		.loc 1 446 0
 2507 01b8 05E0     		b	.L219
 2508              	.LVL233:
 2509              	.L220:
 447:main.c        ****                         codigo[i] = check[i];
 2510              		.loc 1 447 0 discriminator 3
 2511 01ba 0D4B     		ldr	r3, .L222+8
 2512 01bc 1344     		add	r3, r3, r2
 2513 01be 197E     		ldrb	r1, [r3, #24]	@ zero_extendqisi2
 2514 01c0 83F83810 		strb	r1, [r3, #56]
 446:main.c        ****                     for(int i = 0; i < 17; i++){
 2515              		.loc 1 446 0 discriminator 3
 2516 01c4 0132     		adds	r2, r2, #1
 2517              	.LVL234:
 2518              	.L219:
 446:main.c        ****                     for(int i = 0; i < 17; i++){
 2519              		.loc 1 446 0 is_stmt 0 discriminator 1
 2520 01c6 102A     		cmp	r2, #16
 2521 01c8 F7DD     		ble	.L220
 2522              	.LBE46:
 448:main.c        ****                     }
 449:main.c        ****                     Names_Recieved(codigo);
 2523              		.loc 1 449 0 is_stmt 1
 2524 01ca 094C     		ldr	r4, .L222+8
 2525 01cc 04F13800 		add	r0, r4, #56
 2526 01d0 FFF7FEFF 		bl	Names_Recieved
 2527              	.LVL235:
 450:main.c        ****                     com_state = 'x';
 2528              		.loc 1 450 0
 2529 01d4 7823     		movs	r3, #120
 2530 01d6 2375     		strb	r3, [r4, #20]
 2531              	.L218:
 451:main.c        ****                 }
 452:main.c        ****                 cs++;
 2532              		.loc 1 452 0
 2533 01d8 044A     		ldr	r2, .L222+4
 2534 01da 136A     		ldr	r3, [r2, #32]
ARM GAS  C:\Users\isaac\AppData\Local\Temp\cc1fpKCw.s 			page 62


 2535 01dc 0133     		adds	r3, r3, #1
 2536 01de 1362     		str	r3, [r2, #32]
 2537              	.L196:
 453:main.c        ****                 break;
 454:main.c        ****             default:
 455:main.c        ****                 break;
 456:main.c        ****         }
 457:main.c        ****    
 458:main.c        ****     com_ClearPending();
 2538              		.loc 1 458 0
 2539 01e0 FFF7FEFF 		bl	com_ClearPending
 2540              	.LVL236:
 2541 01e4 10BD     		pop	{r4, pc}
 2542              	.L223:
 2543 01e6 00BF     		.align	2
 2544              	.L222:
 2545 01e8 00000000 		.word	foo
 2546 01ec 00000000 		.word	.LANCHOR1
 2547 01f0 00000000 		.word	.LANCHOR0
 2548              		.cfi_endproc
 2549              	.LFE90:
 2550              		.size	com_handler, .-com_handler
 2551              		.section	.text.UpdateStatus,"ax",%progbits
 2552              		.align	2
 2553              		.global	UpdateStatus
 2554              		.thumb
 2555              		.thumb_func
 2556              		.type	UpdateStatus, %function
 2557              	UpdateStatus:
 2558              	.LFB89:
 374:main.c        ****     char mesage[24];
 2559              		.loc 1 374 0
 2560              		.cfi_startproc
 2561              		@ args = 0, pretend = 0, frame = 24
 2562              		@ frame_needed = 0, uses_anonymous_args = 0
 2563 0000 00B5     		push	{lr}
 2564              		.cfi_def_cfa_offset 4
 2565              		.cfi_offset 14, -4
 2566 0002 87B0     		sub	sp, sp, #28
 2567              		.cfi_def_cfa_offset 32
 376:main.c        ****     UART_PutString(mesage);
 2568              		.loc 1 376 0
 2569 0004 054B     		ldr	r3, .L226
 2570 0006 1A78     		ldrb	r2, [r3]	@ zero_extendqisi2
 2571 0008 0549     		ldr	r1, .L226+4
 2572 000a 6846     		mov	r0, sp
 2573 000c FFF7FEFF 		bl	sprintf
 2574              	.LVL237:
 377:main.c        **** }
 2575              		.loc 1 377 0
 2576 0010 6846     		mov	r0, sp
 2577 0012 FFF7FEFF 		bl	UART_PutString
 2578              	.LVL238:
 378:main.c        **** 
 2579              		.loc 1 378 0
 2580 0016 07B0     		add	sp, sp, #28
 2581              		.cfi_def_cfa_offset 4
ARM GAS  C:\Users\isaac\AppData\Local\Temp\cc1fpKCw.s 			page 63


 2582              		@ sp needed
 2583 0018 5DF804FB 		ldr	pc, [sp], #4
 2584              	.L227:
 2585              		.align	2
 2586              	.L226:
 2587 001c 00000000 		.word	.LANCHOR0
 2588 0020 08000000 		.word	.LC1
 2589              		.cfi_endproc
 2590              	.LFE89:
 2591              		.size	UpdateStatus, .-UpdateStatus
 2592              		.section	.text.main,"ax",%progbits
 2593              		.align	2
 2594              		.global	main
 2595              		.thumb
 2596              		.thumb_func
 2597              		.type	main, %function
 2598              	main:
 2599              	.LFB77:
  71:main.c        ****     CyGlobalIntEnable; 
 2600              		.loc 1 71 0
 2601              		.cfi_startproc
 2602              		@ args = 0, pretend = 0, frame = 0
 2603              		@ frame_needed = 0, uses_anonymous_args = 0
 2604 0000 38B5     		push	{r3, r4, r5, lr}
 2605              		.cfi_def_cfa_offset 16
 2606              		.cfi_offset 3, -16
 2607              		.cfi_offset 4, -12
 2608              		.cfi_offset 5, -8
 2609              		.cfi_offset 14, -4
  72:main.c        ****     //Inits of the modules
 2610              		.loc 1 72 0
 2611              		.syntax unified
 2612              	@ 72 "main.c" 1
 2613 0002 62B6     		CPSIE   i
 2614              	@ 0 "" 2
  74:main.c        ****     LCD_Start();
 2615              		.loc 1 74 0
 2616              		.thumb
 2617              		.syntax unified
 2618 0004 FFF7FEFF 		bl	EEPROM_Start
 2619              	.LVL239:
  75:main.c        ****     Timer_Seed_Start();
 2620              		.loc 1 75 0
 2621 0008 FFF7FEFF 		bl	LCD_Start
 2622              	.LVL240:
  76:main.c        ****     UART_Start();
 2623              		.loc 1 76 0
 2624 000c FFF7FEFF 		bl	Timer_Seed_Start
 2625              	.LVL241:
  77:main.c        ****     //ISR
 2626              		.loc 1 77 0
 2627 0010 FFF7FEFF 		bl	UART_Start
 2628              	.LVL242:
  79:main.c        ****     isr_PAUSE_StartEx(pause_handler);
 2629              		.loc 1 79 0
 2630 0014 A748     		ldr	r0, .L257
 2631 0016 FFF7FEFF 		bl	com_StartEx
ARM GAS  C:\Users\isaac\AppData\Local\Temp\cc1fpKCw.s 			page 64


 2632              	.LVL243:
  80:main.c        ****     isr_RESUME_StartEx(resume_handler);
 2633              		.loc 1 80 0
 2634 001a A748     		ldr	r0, .L257+4
 2635 001c FFF7FEFF 		bl	isr_PAUSE_StartEx
 2636              	.LVL244:
  81:main.c        ****     isr_REAL_StartEx(real_handler);
 2637              		.loc 1 81 0
 2638 0020 A648     		ldr	r0, .L257+8
 2639 0022 FFF7FEFF 		bl	isr_RESUME_StartEx
 2640              	.LVL245:
  82:main.c        ****     isr_TIC_StartEx(tic_handler);
 2641              		.loc 1 82 0
 2642 0026 A648     		ldr	r0, .L257+12
 2643 0028 FFF7FEFF 		bl	isr_REAL_StartEx
 2644              	.LVL246:
  83:main.c        ****     //Randomizations
 2645              		.loc 1 83 0
 2646 002c A548     		ldr	r0, .L257+16
 2647 002e FFF7FEFF 		bl	isr_TIC_StartEx
 2648              	.LVL247:
  85:main.c        ****     Timer_Seed_Stop();
 2649              		.loc 1 85 0
 2650 0032 FFF7FEFF 		bl	Timer_Seed_ReadCounter
 2651              	.LVL248:
 2652 0036 FFF7FEFF 		bl	srand
 2653              	.LVL249:
  86:main.c        ****     
 2654              		.loc 1 86 0
 2655 003a FFF7FEFF 		bl	Timer_Seed_Stop
 2656              	.LVL250:
 2657              	.L230:
  91:main.c        ****             case 'h':
 2658              		.loc 1 91 0
 2659 003e A24B     		ldr	r3, .L257+20
 2660 0040 1B78     		ldrb	r3, [r3]	@ zero_extendqisi2
 2661 0042 633B     		subs	r3, r3, #99
 2662 0044 102B     		cmp	r3, #16
 2663 0046 FAD8     		bhi	.L230
 2664 0048 01A2     		adr	r2, .L232
 2665 004a 52F823F0 		ldr	pc, [r2, r3, lsl #2]
 2666 004e 00BF     		.p2align 2
 2667              	.L232:
 2668 0050 25020000 		.word	.L231+1
 2669 0054 3F000000 		.word	.L230+1
 2670 0058 B1010000 		.word	.L233+1
 2671 005c 3F000000 		.word	.L230+1
 2672 0060 3F000000 		.word	.L230+1
 2673 0064 95000000 		.word	.L234+1
 2674 0068 3F000000 		.word	.L230+1
 2675 006c 3F000000 		.word	.L230+1
 2676 0070 3F000000 		.word	.L230+1
 2677 0074 3F000000 		.word	.L230+1
 2678 0078 01020000 		.word	.L235+1
 2679 007c 3F000000 		.word	.L230+1
 2680 0080 3F000000 		.word	.L230+1
 2681 0084 11010000 		.word	.L236+1
ARM GAS  C:\Users\isaac\AppData\Local\Temp\cc1fpKCw.s 			page 65


 2682 0088 3F000000 		.word	.L230+1
 2683 008c 3F000000 		.word	.L230+1
 2684 0090 BD000000 		.word	.L237+1
 2685              		.p2align 1
 2686              	.L234:
 2687              	.LBB47:
  94:main.c        ****                 int flag = 0;
 2688              		.loc 1 94 0
 2689 0094 FFF7FEFF 		bl	ReadScores
 2690              	.LVL251:
 2691              	.LBB48:
  96:main.c        ****                     if(players[0].name[i] == 0){
 2692              		.loc 1 96 0
 2693 0098 0023     		movs	r3, #0
 2694 009a 03E0     		b	.L238
 2695              	.LVL252:
 2696              	.L240:
  97:main.c        ****                         flag = 1;
 2697              		.loc 1 97 0
 2698 009c 8B4A     		ldr	r2, .L257+24
 2699 009e D25C     		ldrb	r2, [r2, r3]	@ zero_extendqisi2
 2700 00a0 22B1     		cbz	r2, .L255
  96:main.c        ****                     if(players[0].name[i] == 0){
 2701              		.loc 1 96 0 discriminator 2
 2702 00a2 0133     		adds	r3, r3, #1
 2703              	.LVL253:
 2704              	.L238:
  96:main.c        ****                     if(players[0].name[i] == 0){
 2705              		.loc 1 96 0 is_stmt 0 discriminator 1
 2706 00a4 042B     		cmp	r3, #4
 2707 00a6 F9DD     		ble	.L240
 2708              	.LBE48:
  95:main.c        ****                 for(int i = 0; i < 5; i++){
 2709              		.loc 1 95 0 is_stmt 1
 2710 00a8 0023     		movs	r3, #0
 2711              	.LVL254:
 2712              	.LBB49:
 2713 00aa 00E0     		b	.L239
 2714              	.LVL255:
 2715              	.L255:
  98:main.c        ****                         break;
 2716              		.loc 1 98 0
 2717 00ac 0123     		movs	r3, #1
 2718              	.LVL256:
 2719              	.L239:
 2720              	.LBE49:
 102:main.c        ****                     EepromFirstInit();
 2721              		.loc 1 102 0
 2722 00ae 0BB1     		cbz	r3, .L241
 103:main.c        ****                 }
 2723              		.loc 1 103 0
 2724 00b0 FFF7FEFF 		bl	EepromFirstInit
 2725              	.LVL257:
 2726              	.L241:
 105:main.c        ****                 break;
 2727              		.loc 1 105 0
 2728 00b4 7322     		movs	r2, #115
ARM GAS  C:\Users\isaac\AppData\Local\Temp\cc1fpKCw.s 			page 66


 2729 00b6 844B     		ldr	r3, .L257+20
 2730 00b8 1A70     		strb	r2, [r3]
 106:main.c        ****             case 's':
 2731              		.loc 1 106 0
 2732 00ba C0E7     		b	.L230
 2733              	.L237:
 109:main.c        ****                 Start_Snake(SnakeBoard);
 2734              		.loc 1 109 0
 2735 00bc 0120     		movs	r0, #1
 2736 00be FFF7FEFF 		bl	LCD_WriteControl
 2737              	.LVL258:
 110:main.c        ****                 LCD_Position(0,0);
 2738              		.loc 1 110 0
 2739 00c2 8348     		ldr	r0, .L257+28
 2740 00c4 FFF7FEFF 		bl	Start_Snake
 2741              	.LVL259:
 111:main.c        ****                 LCD_PrintString("Waiting For");
 2742              		.loc 1 111 0
 2743 00c8 0021     		movs	r1, #0
 2744 00ca 0846     		mov	r0, r1
 2745 00cc FFF7FEFF 		bl	LCD_Position
 2746              	.LVL260:
 112:main.c        ****                 LCD_Position(1,0);
 2747              		.loc 1 112 0
 2748 00d0 8048     		ldr	r0, .L257+32
 2749 00d2 FFF7FEFF 		bl	LCD_PrintString
 2750              	.LVL261:
 113:main.c        ****                 LCD_PrintString("Names To Start");
 2751              		.loc 1 113 0
 2752 00d6 0021     		movs	r1, #0
 2753 00d8 0120     		movs	r0, #1
 2754 00da FFF7FEFF 		bl	LCD_Position
 2755              	.LVL262:
 114:main.c        ****                 
 2756              		.loc 1 114 0
 2757 00de 7E48     		ldr	r0, .L257+36
 2758 00e0 FFF7FEFF 		bl	LCD_PrintString
 2759              	.LVL263:
 117:main.c        ****                 
 2760              		.loc 1 117 0
 2761 00e4 02E0     		b	.L243
 2762              	.L244:
 117:main.c        ****                 
 2763              		.loc 1 117 0 is_stmt 0 discriminator 2
 2764 00e6 0520     		movs	r0, #5
 2765 00e8 FFF7FEFF 		bl	CyDelay
 2766              	.LVL264:
 2767              	.L243:
 117:main.c        ****                 
 2768              		.loc 1 117 0 discriminator 1
 2769 00ec 7B4B     		ldr	r3, .L257+40
 2770 00ee DB69     		ldr	r3, [r3, #28]
 2771 00f0 002B     		cmp	r3, #0
 2772 00f2 F8D0     		beq	.L244
 120:main.c        ****                 Timer_Tic_Start();
 2773              		.loc 1 120 0 is_stmt 1
 2774 00f4 FFF7FEFF 		bl	Animation
ARM GAS  C:\Users\isaac\AppData\Local\Temp\cc1fpKCw.s 			page 67


 2775              	.LVL265:
 121:main.c        ****                 Timer_Tic_WritePeriod(1000);
 2776              		.loc 1 121 0
 2777 00f8 FFF7FEFF 		bl	Timer_Tic_Start
 2778              	.LVL266:
 122:main.c        ****                 
 2779              		.loc 1 122 0
 2780 00fc 4FF47A70 		mov	r0, #1000
 2781 0100 FFF7FEFF 		bl	Timer_Tic_WritePeriod
 2782              	.LVL267:
 124:main.c        ****                 UpdateStatus();
 2783              		.loc 1 124 0
 2784 0104 6722     		movs	r2, #103
 2785 0106 704B     		ldr	r3, .L257+20
 2786 0108 1A70     		strb	r2, [r3]
 125:main.c        ****                 break;
 2787              		.loc 1 125 0
 2788 010a FFF7FEFF 		bl	UpdateStatus
 2789              	.LVL268:
 126:main.c        ****             case 'p':
 2790              		.loc 1 126 0
 2791 010e 96E7     		b	.L230
 2792              	.L236:
 129:main.c        ****                 Animation();
 2793              		.loc 1 129 0
 2794 0110 FFF7FEFF 		bl	Timer_Tic_Sleep
 2795              	.LVL269:
 130:main.c        ****                 Timer_Real_Start();
 2796              		.loc 1 130 0
 2797 0114 FFF7FEFF 		bl	Animation
 2798              	.LVL270:
 131:main.c        ****                 time_paused = 0;
 2799              		.loc 1 131 0
 2800 0118 FFF7FEFF 		bl	Timer_Real_Start
 2801              	.LVL271:
 132:main.c        ****                 period_offs_old = 0;
 2802              		.loc 1 132 0
 2803 011c 6F4B     		ldr	r3, .L257+40
 2804 011e 0022     		movs	r2, #0
 2805 0120 5A60     		str	r2, [r3, #4]
 133:main.c        ****                 while(pause_status == 1){
 2806              		.loc 1 133 0
 2807 0122 DA62     		str	r2, [r3, #44]
 134:main.c        ****                     if(time_paused == 15){
 2808              		.loc 1 134 0
 2809 0124 34E0     		b	.L245
 2810              	.L248:
 135:main.c        ****                         LCD_Position(0,4);
 2811              		.loc 1 135 0
 2812 0126 6D4B     		ldr	r3, .L257+40
 2813 0128 5B68     		ldr	r3, [r3, #4]
 2814 012a 0F2B     		cmp	r3, #15
 2815 012c 20D1     		bne	.L246
 136:main.c        ****                         LCD_PrintString("SLEEP");
 2816              		.loc 1 136 0
 2817 012e 0421     		movs	r1, #4
 2818 0130 0020     		movs	r0, #0
ARM GAS  C:\Users\isaac\AppData\Local\Temp\cc1fpKCw.s 			page 68


 2819 0132 FFF7FEFF 		bl	LCD_Position
 2820              	.LVL272:
 137:main.c        ****                         CyDelay(250);
 2821              		.loc 1 137 0
 2822 0136 6A48     		ldr	r0, .L257+44
 2823 0138 FFF7FEFF 		bl	LCD_PrintString
 2824              	.LVL273:
 138:main.c        ****                         LCD_Sleep();
 2825              		.loc 1 138 0
 2826 013c FA20     		movs	r0, #250
 2827 013e FFF7FEFF 		bl	CyDelay
 2828              	.LVL274:
 139:main.c        ****                         UART_Sleep();
 2829              		.loc 1 139 0
 2830 0142 FFF7FEFF 		bl	LCD_Sleep
 2831              	.LVL275:
 140:main.c        ****                         //Timer_Tic_Sleep();
 2832              		.loc 1 140 0
 2833 0146 FFF7FEFF 		bl	UART_Sleep
 2834              	.LVL276:
 142:main.c        ****                         CyPmHibernate();
 2835              		.loc 1 142 0
 2836 014a FFF7FEFF 		bl	CyPmSaveClocks
 2837              	.LVL277:
 143:main.c        ****                         CyPmRestoreClocks();
 2838              		.loc 1 143 0
 2839 014e FFF7FEFF 		bl	CyPmHibernate
 2840              	.LVL278:
 144:main.c        ****                         UART_Wakeup();
 2841              		.loc 1 144 0
 2842 0152 FFF7FEFF 		bl	CyPmRestoreClocks
 2843              	.LVL279:
 145:main.c        ****                         LCD_Wakeup();
 2844              		.loc 1 145 0
 2845 0156 FFF7FEFF 		bl	UART_Wakeup
 2846              	.LVL280:
 146:main.c        ****                         time_paused = 0;
 2847              		.loc 1 146 0
 2848 015a FFF7FEFF 		bl	LCD_Wakeup
 2849              	.LVL281:
 147:main.c        ****                         state = 'g';
 2850              		.loc 1 147 0
 2851 015e 0022     		movs	r2, #0
 2852 0160 5E4B     		ldr	r3, .L257+40
 2853 0162 5A60     		str	r2, [r3, #4]
 148:main.c        ****                         Timer_Tic_Wakeup();
 2854              		.loc 1 148 0
 2855 0164 6722     		movs	r2, #103
 2856 0166 584B     		ldr	r3, .L257+20
 2857 0168 1A70     		strb	r2, [r3]
 149:main.c        ****                         break;
 2858              		.loc 1 149 0
 2859 016a FFF7FEFF 		bl	Timer_Tic_Wakeup
 2860              	.LVL282:
 150:main.c        ****                     }
 2861              		.loc 1 150 0
 2862 016e 13E0     		b	.L247
ARM GAS  C:\Users\isaac\AppData\Local\Temp\cc1fpKCw.s 			page 69


 2863              	.L246:
 152:main.c        ****                     LCD_PrintString("PAUSED");
 2864              		.loc 1 152 0
 2865 0170 0421     		movs	r1, #4
 2866 0172 0020     		movs	r0, #0
 2867 0174 FFF7FEFF 		bl	LCD_Position
 2868              	.LVL283:
 153:main.c        ****                     CyDelay(150);
 2869              		.loc 1 153 0
 2870 0178 5A48     		ldr	r0, .L257+48
 2871 017a FFF7FEFF 		bl	LCD_PrintString
 2872              	.LVL284:
 154:main.c        ****                     LCD_ClearDisplay();
 2873              		.loc 1 154 0
 2874 017e 9620     		movs	r0, #150
 2875 0180 FFF7FEFF 		bl	CyDelay
 2876              	.LVL285:
 155:main.c        ****                     CyDelay(150);
 2877              		.loc 1 155 0
 2878 0184 0120     		movs	r0, #1
 2879 0186 FFF7FEFF 		bl	LCD_WriteControl
 2880              	.LVL286:
 156:main.c        ****                 }
 2881              		.loc 1 156 0
 2882 018a 9620     		movs	r0, #150
 2883 018c FFF7FEFF 		bl	CyDelay
 2884              	.LVL287:
 2885              	.L245:
 134:main.c        ****                     if(time_paused == 15){
 2886              		.loc 1 134 0
 2887 0190 524B     		ldr	r3, .L257+40
 2888 0192 1B68     		ldr	r3, [r3]
 2889 0194 012B     		cmp	r3, #1
 2890 0196 C6D0     		beq	.L248
 2891              	.L247:
 158:main.c        ****                 Animation();
 2892              		.loc 1 158 0
 2893 0198 FFF7FEFF 		bl	Timer_Real_Stop
 2894              	.LVL288:
 159:main.c        ****                 Timer_Tic_Wakeup();
 2895              		.loc 1 159 0
 2896 019c FFF7FEFF 		bl	Animation
 2897              	.LVL289:
 160:main.c        ****                 state = 'g';
 2898              		.loc 1 160 0
 2899 01a0 FFF7FEFF 		bl	Timer_Tic_Wakeup
 2900              	.LVL290:
 161:main.c        ****                 UpdateStatus();
 2901              		.loc 1 161 0
 2902 01a4 6722     		movs	r2, #103
 2903 01a6 484B     		ldr	r3, .L257+20
 2904 01a8 1A70     		strb	r2, [r3]
 162:main.c        ****                 break;
 2905              		.loc 1 162 0
 2906 01aa FFF7FEFF 		bl	UpdateStatus
 2907              	.LVL291:
 163:main.c        ****             case 'g':
ARM GAS  C:\Users\isaac\AppData\Local\Temp\cc1fpKCw.s 			page 70


 2908              		.loc 1 163 0
 2909 01ae 46E7     		b	.L230
 2910              	.L233:
 169:main.c        ****                 LCD_Position(0,3);
 2911              		.loc 1 169 0
 2912 01b0 FFF7FEFF 		bl	Animation
 2913              	.LVL292:
 170:main.c        ****                 LCD_PrintString("Game Over");
 2914              		.loc 1 170 0
 2915 01b4 0321     		movs	r1, #3
 2916 01b6 0020     		movs	r0, #0
 2917 01b8 FFF7FEFF 		bl	LCD_Position
 2918              	.LVL293:
 171:main.c        ****                 LCD_Position(1,0);
 2919              		.loc 1 171 0
 2920 01bc 4A48     		ldr	r0, .L257+52
 2921 01be FFF7FEFF 		bl	LCD_PrintString
 2922              	.LVL294:
 172:main.c        ****                 LCD_PrintString(cur_name);
 2923              		.loc 1 172 0
 2924 01c2 0021     		movs	r1, #0
 2925 01c4 0120     		movs	r0, #1
 2926 01c6 FFF7FEFF 		bl	LCD_Position
 2927              	.LVL295:
 173:main.c        ****                 LCD_Position(1,6);
 2928              		.loc 1 173 0
 2929 01ca 3F4C     		ldr	r4, .L257+20
 2930 01cc 201D     		adds	r0, r4, #4
 2931 01ce FFF7FEFF 		bl	LCD_PrintString
 2932              	.LVL296:
 174:main.c        ****                 LCD_PrintString("SC:");
 2933              		.loc 1 174 0
 2934 01d2 0621     		movs	r1, #6
 2935 01d4 0120     		movs	r0, #1
 2936 01d6 FFF7FEFF 		bl	LCD_Position
 2937              	.LVL297:
 175:main.c        ****                 LCD_Position(1,9);
 2938              		.loc 1 175 0
 2939 01da 4448     		ldr	r0, .L257+56
 2940 01dc FFF7FEFF 		bl	LCD_PrintString
 2941              	.LVL298:
 176:main.c        ****                 LCD_PrintNumber(match_score);
 2942              		.loc 1 176 0
 2943 01e0 0921     		movs	r1, #9
 2944 01e2 0120     		movs	r0, #1
 2945 01e4 FFF7FEFF 		bl	LCD_Position
 2946              	.LVL299:
 177:main.c        ****                 CyDelay(50);
 2947              		.loc 1 177 0
 2948 01e8 3C4B     		ldr	r3, .L257+40
 2949 01ea 1889     		ldrh	r0, [r3, #8]
 2950 01ec FFF7FEFF 		bl	LCD_PrintU32Number
 2951              	.LVL300:
 178:main.c        ****                 state = 'c';
 2952              		.loc 1 178 0
 2953 01f0 3220     		movs	r0, #50
 2954 01f2 FFF7FEFF 		bl	CyDelay
ARM GAS  C:\Users\isaac\AppData\Local\Temp\cc1fpKCw.s 			page 71


 2955              	.LVL301:
 179:main.c        ****                 UpdateStatus();
 2956              		.loc 1 179 0
 2957 01f6 6323     		movs	r3, #99
 2958 01f8 2370     		strb	r3, [r4]
 180:main.c        ****                 break;
 2959              		.loc 1 180 0
 2960 01fa FFF7FEFF 		bl	UpdateStatus
 2961              	.LVL302:
 181:main.c        ****             case 'm':
 2962              		.loc 1 181 0
 2963 01fe 1EE7     		b	.L230
 2964              	.L235:
 184:main.c        ****                 LCD_Position(0,0);
 2965              		.loc 1 184 0
 2966 0200 FFF7FEFF 		bl	Animation
 2967              	.LVL303:
 185:main.c        ****                 LCD_PrintString("Max Score Achived!");
 2968              		.loc 1 185 0
 2969 0204 0021     		movs	r1, #0
 2970 0206 0846     		mov	r0, r1
 2971 0208 FFF7FEFF 		bl	LCD_Position
 2972              	.LVL304:
 186:main.c        ****                 CyDelay(50);
 2973              		.loc 1 186 0
 2974 020c 3848     		ldr	r0, .L257+60
 2975 020e FFF7FEFF 		bl	LCD_PrintString
 2976              	.LVL305:
 187:main.c        ****                 state = 'c';
 2977              		.loc 1 187 0
 2978 0212 3220     		movs	r0, #50
 2979 0214 FFF7FEFF 		bl	CyDelay
 2980              	.LVL306:
 188:main.c        ****                 UpdateStatus();
 2981              		.loc 1 188 0
 2982 0218 6322     		movs	r2, #99
 2983 021a 2B4B     		ldr	r3, .L257+20
 2984 021c 1A70     		strb	r2, [r3]
 189:main.c        ****                 break;
 2985              		.loc 1 189 0
 2986 021e FFF7FEFF 		bl	UpdateStatus
 2987              	.LVL307:
 190:main.c        ****             case 'c':
 2988              		.loc 1 190 0
 2989 0222 0CE7     		b	.L230
 2990              	.L231:
 193:main.c        ****                     WriteNewScores();
 2991              		.loc 1 193 0
 2992 0224 FFF7FEFF 		bl	UpdateFirstPlace
 2993              	.LVL308:
 2994 0228 18B1     		cbz	r0, .L249
 194:main.c        ****                     ReadScores();
 2995              		.loc 1 194 0
 2996 022a FFF7FEFF 		bl	WriteNewScores
 2997              	.LVL309:
 195:main.c        ****                 }
 2998              		.loc 1 195 0
ARM GAS  C:\Users\isaac\AppData\Local\Temp\cc1fpKCw.s 			page 72


 2999 022e FFF7FEFF 		bl	ReadScores
 3000              	.LVL310:
 3001              	.L249:
  95:main.c        ****                 for(int i = 0; i < 5; i++){
 3002              		.loc 1 95 0 discriminator 1
 3003 0232 0024     		movs	r4, #0
 3004 0234 33E0     		b	.L250
 3005              	.LVL311:
 3006              	.L254:
 3007              	.LBB50:
 198:main.c        ****                 LCD_Position(0,0);
 3008              		.loc 1 198 0
 3009 0236 0120     		movs	r0, #1
 3010 0238 FFF7FEFF 		bl	LCD_WriteControl
 3011              	.LVL312:
 199:main.c        ****                 if(i == 0){LCD_PrintString("First Place:");}
 3012              		.loc 1 199 0
 3013 023c 0021     		movs	r1, #0
 3014 023e 0846     		mov	r0, r1
 3015 0240 FFF7FEFF 		bl	LCD_Position
 3016              	.LVL313:
 200:main.c        ****                 if(i == 1){LCD_PrintString("Second Place:");}
 3017              		.loc 1 200 0
 3018 0244 14B9     		cbnz	r4, .L251
 200:main.c        ****                 if(i == 1){LCD_PrintString("Second Place:");}
 3019              		.loc 1 200 0 is_stmt 0 discriminator 1
 3020 0246 2B48     		ldr	r0, .L257+64
 3021 0248 FFF7FEFF 		bl	LCD_PrintString
 3022              	.LVL314:
 3023              	.L251:
 201:main.c        ****                 if(i == 2){LCD_PrintString("Third Place:");}
 3024              		.loc 1 201 0 is_stmt 1
 3025 024c 012C     		cmp	r4, #1
 3026 024e 02D1     		bne	.L252
 201:main.c        ****                 if(i == 2){LCD_PrintString("Third Place:");}
 3027              		.loc 1 201 0 is_stmt 0 discriminator 1
 3028 0250 2948     		ldr	r0, .L257+68
 3029 0252 FFF7FEFF 		bl	LCD_PrintString
 3030              	.LVL315:
 3031              	.L252:
 202:main.c        ****                 LCD_Position(1,0);
 3032              		.loc 1 202 0 is_stmt 1
 3033 0256 022C     		cmp	r4, #2
 3034 0258 02D1     		bne	.L253
 202:main.c        ****                 LCD_Position(1,0);
 3035              		.loc 1 202 0 is_stmt 0 discriminator 1
 3036 025a 2848     		ldr	r0, .L257+72
 3037 025c FFF7FEFF 		bl	LCD_PrintString
 3038              	.LVL316:
 3039              	.L253:
 203:main.c        ****                 LCD_PrintString(players[i].name);
 3040              		.loc 1 203 0 is_stmt 1 discriminator 2
 3041 0260 0021     		movs	r1, #0
 3042 0262 0120     		movs	r0, #1
 3043 0264 FFF7FEFF 		bl	LCD_Position
 3044              	.LVL317:
 204:main.c        ****                 LCD_Position(1,6);
ARM GAS  C:\Users\isaac\AppData\Local\Temp\cc1fpKCw.s 			page 73


 3045              		.loc 1 204 0 discriminator 2
 3046 0268 6300     		lsls	r3, r4, #1
 3047 026a 2344     		add	r3, r3, r4
 3048 026c 9D00     		lsls	r5, r3, #2
 3049 026e 174B     		ldr	r3, .L257+24
 3050 0270 1D44     		add	r5, r5, r3
 3051 0272 2846     		mov	r0, r5
 3052 0274 FFF7FEFF 		bl	LCD_PrintString
 3053              	.LVL318:
 205:main.c        ****                 LCD_PrintString("SC:");
 3054              		.loc 1 205 0 discriminator 2
 3055 0278 0621     		movs	r1, #6
 3056 027a 0120     		movs	r0, #1
 3057 027c FFF7FEFF 		bl	LCD_Position
 3058              	.LVL319:
 206:main.c        ****                 LCD_Position(1,9);
 3059              		.loc 1 206 0 discriminator 2
 3060 0280 1A48     		ldr	r0, .L257+56
 3061 0282 FFF7FEFF 		bl	LCD_PrintString
 3062              	.LVL320:
 207:main.c        ****                 LCD_PrintNumber(players[i].score);
 3063              		.loc 1 207 0 discriminator 2
 3064 0286 0921     		movs	r1, #9
 3065 0288 0120     		movs	r0, #1
 3066 028a FFF7FEFF 		bl	LCD_Position
 3067              	.LVL321:
 208:main.c        ****                 CyDelay(2000);
 3068              		.loc 1 208 0 discriminator 2
 3069 028e 2889     		ldrh	r0, [r5, #8]
 3070 0290 FFF7FEFF 		bl	LCD_PrintU32Number
 3071              	.LVL322:
 209:main.c        ****                 }
 3072              		.loc 1 209 0 discriminator 2
 3073 0294 4FF4FA60 		mov	r0, #2000
 3074 0298 FFF7FEFF 		bl	CyDelay
 3075              	.LVL323:
 197:main.c        ****                 LCD_ClearDisplay();
 3076              		.loc 1 197 0 discriminator 2
 3077 029c 0134     		adds	r4, r4, #1
 3078              	.LVL324:
 3079              	.L250:
 197:main.c        ****                 LCD_ClearDisplay();
 3080              		.loc 1 197 0 is_stmt 0 discriminator 1
 3081 029e 022C     		cmp	r4, #2
 3082 02a0 C9DD     		ble	.L254
 3083              	.LBE50:
 211:main.c        ****                 name_wait = 0;
 3084              		.loc 1 211 0 is_stmt 1
 3085 02a2 7322     		movs	r2, #115
 3086 02a4 084B     		ldr	r3, .L257+20
 3087 02a6 1A70     		strb	r2, [r3]
 212:main.c        ****                 UpdateStatus();
 3088              		.loc 1 212 0
 3089 02a8 0022     		movs	r2, #0
 3090 02aa 0C4B     		ldr	r3, .L257+40
 3091 02ac DA61     		str	r2, [r3, #28]
 213:main.c        ****                 break;
ARM GAS  C:\Users\isaac\AppData\Local\Temp\cc1fpKCw.s 			page 74


 3092              		.loc 1 213 0
 3093 02ae FFF7FEFF 		bl	UpdateStatus
 3094              	.LVL325:
 214:main.c        ****         }
 3095              		.loc 1 214 0
 3096 02b2 C4E6     		b	.L230
 3097              	.L258:
 3098              		.align	2
 3099              	.L257:
 3100 02b4 00000000 		.word	com_handler
 3101 02b8 00000000 		.word	pause_handler
 3102 02bc 00000000 		.word	resume_handler
 3103 02c0 00000000 		.word	real_handler
 3104 02c4 00000000 		.word	tic_handler
 3105 02c8 00000000 		.word	.LANCHOR0
 3106 02cc 00000000 		.word	players
 3107 02d0 58000000 		.word	.LANCHOR0+88
 3108 02d4 14000000 		.word	.LC2
 3109 02d8 20000000 		.word	.LC3
 3110 02dc 00000000 		.word	.LANCHOR1
 3111 02e0 30000000 		.word	.LC4
 3112 02e4 38000000 		.word	.LC5
 3113 02e8 40000000 		.word	.LC6
 3114 02ec 4C000000 		.word	.LC7
 3115 02f0 50000000 		.word	.LC8
 3116 02f4 64000000 		.word	.LC9
 3117 02f8 74000000 		.word	.LC10
 3118 02fc 84000000 		.word	.LC11
 3119              	.LBE47:
 3120              		.cfi_endproc
 3121              	.LFE77:
 3122              		.size	main, .-main
 3123              		.section	.text.tic_handler,"ax",%progbits
 3124              		.align	2
 3125              		.global	tic_handler
 3126              		.thumb
 3127              		.thumb_func
 3128              		.type	tic_handler, %function
 3129              	tic_handler:
 3130              	.LFB86:
 326:main.c        ****     switch(state){
 3131              		.loc 1 326 0
 3132              		.cfi_startproc
 3133              		@ args = 0, pretend = 0, frame = 0
 3134              		@ frame_needed = 0, uses_anonymous_args = 0
 3135 0000 08B5     		push	{r3, lr}
 3136              		.cfi_def_cfa_offset 8
 3137              		.cfi_offset 3, -8
 3138              		.cfi_offset 14, -4
 327:main.c        ****         case 'g':
 3139              		.loc 1 327 0
 3140 0002 1A4B     		ldr	r3, .L267
 3141 0004 1B78     		ldrb	r3, [r3]	@ zero_extendqisi2
 3142 0006 672B     		cmp	r3, #103
 3143 0008 1BD1     		bne	.L260
 3144              	.LBB51:
 329:main.c        ****                         add_bait();
ARM GAS  C:\Users\isaac\AppData\Local\Temp\cc1fpKCw.s 			page 75


 3145              		.loc 1 329 0
 3146 000a 6421     		movs	r1, #100
 3147 000c 0020     		movs	r0, #0
 3148 000e FFF7FEFF 		bl	RandNum
 3149              	.LVL326:
 3150 0012 0928     		cmp	r0, #9
 3151 0014 01DC     		bgt	.L262
 330:main.c        ****                     }
 3152              		.loc 1 330 0
 3153 0016 FFF7FEFF 		bl	add_bait
 3154              	.LVL327:
 3155              	.L262:
 332:main.c        ****                     if (!good_move){
 3156              		.loc 1 332 0
 3157 001a FFF7FEFF 		bl	move_snake
 3158              	.LVL328:
 333:main.c        ****                         draw_snake();    
 3159              		.loc 1 333 0
 3160 001e 10B9     		cbnz	r0, .L263
 334:main.c        ****                     }
 3161              		.loc 1 334 0
 3162 0020 FFF7FEFF 		bl	draw_snake
 3163              	.LVL329:
 3164 0024 04E0     		b	.L264
 3165              	.LVL330:
 3166              	.L263:
 337:main.c        ****                         UpdateStatus();
 3167              		.loc 1 337 0
 3168 0026 6522     		movs	r2, #101
 3169 0028 104B     		ldr	r3, .L267
 3170 002a 1A70     		strb	r2, [r3]
 338:main.c        ****                     }
 3171              		.loc 1 338 0
 3172 002c FFF7FEFF 		bl	UpdateStatus
 3173              	.LVL331:
 3174              	.L264:
 340:main.c        ****                         state = 'm';
 3175              		.loc 1 340 0
 3176 0030 0F4B     		ldr	r3, .L267+4
 3177 0032 9B68     		ldr	r3, [r3, #8]
 3178 0034 322B     		cmp	r3, #50
 3179 0036 04D1     		bne	.L260
 341:main.c        ****                         UpdateStatus();
 3180              		.loc 1 341 0
 3181 0038 6D22     		movs	r2, #109
 3182 003a 0C4B     		ldr	r3, .L267
 3183 003c 1A70     		strb	r2, [r3]
 342:main.c        ****                     }
 3184              		.loc 1 342 0
 3185 003e FFF7FEFF 		bl	UpdateStatus
 3186              	.LVL332:
 3187              	.L260:
 3188              	.LBE51:
 346:main.c        ****     int res = 1000/(2*period_offs);
 3189              		.loc 1 346 0
 3190 0042 0B4B     		ldr	r3, .L267+4
 3191 0044 DA6A     		ldr	r2, [r3, #44]
ARM GAS  C:\Users\isaac\AppData\Local\Temp\cc1fpKCw.s 			page 76


 3192 0046 1869     		ldr	r0, [r3, #16]
 3193 0048 8242     		cmp	r2, r0
 3194 004a 07D0     		beq	.L265
 3195              	.LBB52:
 347:main.c        ****     //int res = 1000 - 100*period_offs;
 3196              		.loc 1 347 0
 3197 004c 4000     		lsls	r0, r0, #1
 3198 004e 4FF47A73 		mov	r3, #1000
 3199 0052 93FBF0F0 		sdiv	r0, r3, r0
 3200              	.LVL333:
 349:main.c        ****     }
 3201              		.loc 1 349 0
 3202 0056 80B2     		uxth	r0, r0
 3203              	.LVL334:
 3204 0058 FFF7FEFF 		bl	Timer_Tic_WritePeriod
 3205              	.LVL335:
 3206              	.L265:
 3207              	.LBE52:
 351:main.c        ****     Timer_Tic_ReadStatusRegister();
 3208              		.loc 1 351 0
 3209 005c 044B     		ldr	r3, .L267+4
 3210 005e 1A69     		ldr	r2, [r3, #16]
 3211 0060 DA62     		str	r2, [r3, #44]
 352:main.c        ****     isr_TIC_ClearPending();
 3212              		.loc 1 352 0
 3213 0062 FFF7FEFF 		bl	Timer_Tic_ReadStatusRegister
 3214              	.LVL336:
 353:main.c        **** }
 3215              		.loc 1 353 0
 3216 0066 FFF7FEFF 		bl	isr_TIC_ClearPending
 3217              	.LVL337:
 3218 006a 08BD     		pop	{r3, pc}
 3219              	.L268:
 3220              		.align	2
 3221              	.L267:
 3222 006c 00000000 		.word	.LANCHOR0
 3223 0070 00000000 		.word	.LANCHOR1
 3224              		.cfi_endproc
 3225              	.LFE86:
 3226              		.size	tic_handler, .-tic_handler
 3227              		.global	state
 3228              		.global	period_offs_old
 3229              		.global	time_paused
 3230              		.global	pause_status
 3231              		.global	name_wait
 3232              		.global	max_comas
 3233              		.global	com_state
 3234              		.global	read
 3235              		.global	comas
 3236              		.global	pass
 3237              		.global	cs
 3238              		.comm	foo,1,1
 3239              		.global	check
 3240              		.global	codigo
 3241              		.global	SnakeBoard
 3242              		.global	cur_name
 3243              		.comm	players,48,4
ARM GAS  C:\Users\isaac\AppData\Local\Temp\cc1fpKCw.s 			page 77


 3244              		.comm	MapBuffer,1280,4
 3245              		.global	cur_dir
 3246              		.global	last_dir
 3247              		.global	period_offs
 3248              		.global	score_ten_t
 3249              		.global	match_score
 3250              		.global	snake_tail
 3251              		.global	snake_head
 3252              		.comm	bait,40,4
 3253              		.comm	snake,2560,4
 3254              		.global	bait_size
 3255              		.global	grid_size
 3256              		.global	snake_size
 3257              		.comm	lcd_ram,64,4
 3258              		.section	.rodata
 3259              		.align	2
 3260              		.type	bait_size, %object
 3261              		.size	bait_size, 4
 3262              	bait_size:
 3263 0000 05000000 		.word	5
 3264              		.type	grid_size, %object
 3265              		.size	grid_size, 4
 3266              	grid_size:
 3267 0004 40010000 		.word	320
 3268              		.type	snake_size, %object
 3269              		.size	snake_size, 4
 3270              	snake_size:
 3271 0008 40010000 		.word	320
 3272              		.data
 3273              		.align	2
 3274              		.set	.LANCHOR0,. + 0
 3275              		.type	state, %object
 3276              		.size	state, 1
 3277              	state:
 3278 0000 68       		.byte	104
 3279              		.type	cur_dir, %object
 3280              		.size	cur_dir, 1
 3281              	cur_dir:
 3282 0001 44       		.byte	68
 3283              		.type	last_dir, %object
 3284              		.size	last_dir, 1
 3285              	last_dir:
 3286 0002 44       		.byte	68
 3287 0003 00       		.space	1
 3288              		.type	cur_name, %object
 3289              		.size	cur_name, 5
 3290              	cur_name:
 3291 0004 69736161 		.ascii	"isaac"
 3291      63
 3292 0009 000000   		.space	3
 3293              		.type	pass, %object
 3294              		.size	pass, 4
 3295              	pass:
 3296 000c 01000000 		.word	1
 3297              		.type	read, %object
 3298              		.size	read, 4
 3299              	read:
ARM GAS  C:\Users\isaac\AppData\Local\Temp\cc1fpKCw.s 			page 78


 3300 0010 01000000 		.word	1
 3301              		.type	com_state, %object
 3302              		.size	com_state, 1
 3303              	com_state:
 3304 0014 6D       		.byte	109
 3305 0015 000000   		.space	3
 3306              		.type	check, %object
 3307              		.size	check, 32
 3308              	check:
 3309 0018 30303030 		.ascii	"000000000\000"
 3309      30303030 
 3309      3000
 3310 0022 00000000 		.space	22
 3310      00000000 
 3310      00000000 
 3310      00000000 
 3310      00000000 
 3311              		.type	codigo, %object
 3312              		.size	codigo, 32
 3313              	codigo:
 3314 0038 4E4E4E2C 		.ascii	"NNN,0,0,F\000"
 3314      302C302C 
 3314      4600
 3315 0042 00000000 		.space	22
 3315      00000000 
 3315      00000000 
 3315      00000000 
 3315      00000000 
 3316              		.type	SnakeBoard, %object
 3317              		.size	SnakeBoard, 1280
 3318              	SnakeBoard:
 3319 0058 00000000 		.word	0
 3320 005c 03000000 		.word	3
 3321 0060 03000000 		.word	3
 3322 0064 03000000 		.word	3
 3323 0068 03000000 		.word	3
 3324 006c 03000000 		.word	3
 3325 0070 03000000 		.word	3
 3326 0074 03000000 		.word	3
 3327 0078 03000000 		.word	3
 3328 007c 03000000 		.word	3
 3329 0080 03000000 		.word	3
 3330 0084 03000000 		.word	3
 3331 0088 03000000 		.word	3
 3332 008c 03000000 		.word	3
 3333 0090 03000000 		.word	3
 3334 0094 03000000 		.word	3
 3335 0098 03000000 		.word	3
 3336 009c 03000000 		.word	3
 3337 00a0 03000000 		.word	3
 3338 00a4 00000000 		.word	0
 3339 00a8 03000000 		.word	3
 3340 00ac 00000000 		.word	0
 3341 00b0 00000000 		.word	0
 3342 00b4 00000000 		.word	0
 3343 00b8 00000000 		.word	0
 3344 00bc 00000000 		.word	0
ARM GAS  C:\Users\isaac\AppData\Local\Temp\cc1fpKCw.s 			page 79


 3345 00c0 00000000 		.word	0
 3346 00c4 00000000 		.word	0
 3347 00c8 00000000 		.word	0
 3348 00cc 00000000 		.word	0
 3349 00d0 00000000 		.word	0
 3350 00d4 00000000 		.word	0
 3351 00d8 00000000 		.word	0
 3352 00dc 00000000 		.word	0
 3353 00e0 00000000 		.word	0
 3354 00e4 00000000 		.word	0
 3355 00e8 00000000 		.word	0
 3356 00ec 00000000 		.word	0
 3357 00f0 00000000 		.word	0
 3358 00f4 03000000 		.word	3
 3359 00f8 03000000 		.word	3
 3360 00fc 00000000 		.word	0
 3361 0100 00000000 		.word	0
 3362 0104 00000000 		.word	0
 3363 0108 00000000 		.word	0
 3364 010c 00000000 		.word	0
 3365 0110 00000000 		.word	0
 3366 0114 00000000 		.word	0
 3367 0118 00000000 		.word	0
 3368 011c 00000000 		.word	0
 3369 0120 00000000 		.word	0
 3370 0124 00000000 		.word	0
 3371 0128 00000000 		.word	0
 3372 012c 00000000 		.word	0
 3373 0130 00000000 		.word	0
 3374 0134 00000000 		.word	0
 3375 0138 00000000 		.word	0
 3376 013c 00000000 		.word	0
 3377 0140 00000000 		.word	0
 3378 0144 03000000 		.word	3
 3379 0148 03000000 		.word	3
 3380 014c 00000000 		.word	0
 3381 0150 00000000 		.word	0
 3382 0154 00000000 		.word	0
 3383 0158 00000000 		.word	0
 3384 015c 00000000 		.word	0
 3385 0160 00000000 		.word	0
 3386 0164 00000000 		.word	0
 3387 0168 00000000 		.word	0
 3388 016c 00000000 		.word	0
 3389 0170 00000000 		.word	0
 3390 0174 00000000 		.word	0
 3391 0178 00000000 		.word	0
 3392 017c 00000000 		.word	0
 3393 0180 00000000 		.word	0
 3394 0184 00000000 		.word	0
 3395 0188 00000000 		.word	0
 3396 018c 00000000 		.word	0
 3397 0190 00000000 		.word	0
 3398 0194 03000000 		.word	3
 3399 0198 03000000 		.word	3
 3400 019c 00000000 		.word	0
 3401 01a0 00000000 		.word	0
ARM GAS  C:\Users\isaac\AppData\Local\Temp\cc1fpKCw.s 			page 80


 3402 01a4 00000000 		.word	0
 3403 01a8 00000000 		.word	0
 3404 01ac 00000000 		.word	0
 3405 01b0 00000000 		.word	0
 3406 01b4 00000000 		.word	0
 3407 01b8 00000000 		.word	0
 3408 01bc 00000000 		.word	0
 3409 01c0 00000000 		.word	0
 3410 01c4 00000000 		.word	0
 3411 01c8 00000000 		.word	0
 3412 01cc 00000000 		.word	0
 3413 01d0 00000000 		.word	0
 3414 01d4 00000000 		.word	0
 3415 01d8 00000000 		.word	0
 3416 01dc 00000000 		.word	0
 3417 01e0 00000000 		.word	0
 3418 01e4 03000000 		.word	3
 3419 01e8 03000000 		.word	3
 3420 01ec 00000000 		.word	0
 3421 01f0 00000000 		.word	0
 3422 01f4 00000000 		.word	0
 3423 01f8 00000000 		.word	0
 3424 01fc 00000000 		.word	0
 3425 0200 00000000 		.word	0
 3426 0204 00000000 		.word	0
 3427 0208 00000000 		.word	0
 3428 020c 00000000 		.word	0
 3429 0210 00000000 		.word	0
 3430 0214 00000000 		.word	0
 3431 0218 00000000 		.word	0
 3432 021c 00000000 		.word	0
 3433 0220 00000000 		.word	0
 3434 0224 00000000 		.word	0
 3435 0228 00000000 		.word	0
 3436 022c 00000000 		.word	0
 3437 0230 00000000 		.word	0
 3438 0234 03000000 		.word	3
 3439 0238 03000000 		.word	3
 3440 023c 00000000 		.word	0
 3441 0240 00000000 		.word	0
 3442 0244 00000000 		.word	0
 3443 0248 00000000 		.word	0
 3444 024c 00000000 		.word	0
 3445 0250 00000000 		.word	0
 3446 0254 00000000 		.word	0
 3447 0258 00000000 		.word	0
 3448 025c 00000000 		.word	0
 3449 0260 00000000 		.word	0
 3450 0264 00000000 		.word	0
 3451 0268 00000000 		.word	0
 3452 026c 00000000 		.word	0
 3453 0270 00000000 		.word	0
 3454 0274 00000000 		.word	0
 3455 0278 00000000 		.word	0
 3456 027c 00000000 		.word	0
 3457 0280 00000000 		.word	0
 3458 0284 03000000 		.word	3
ARM GAS  C:\Users\isaac\AppData\Local\Temp\cc1fpKCw.s 			page 81


 3459 0288 03000000 		.word	3
 3460 028c 00000000 		.word	0
 3461 0290 00000000 		.word	0
 3462 0294 00000000 		.word	0
 3463 0298 00000000 		.word	0
 3464 029c 00000000 		.word	0
 3465 02a0 00000000 		.word	0
 3466 02a4 00000000 		.word	0
 3467 02a8 00000000 		.word	0
 3468 02ac 00000000 		.word	0
 3469 02b0 00000000 		.word	0
 3470 02b4 00000000 		.word	0
 3471 02b8 00000000 		.word	0
 3472 02bc 00000000 		.word	0
 3473 02c0 00000000 		.word	0
 3474 02c4 00000000 		.word	0
 3475 02c8 00000000 		.word	0
 3476 02cc 00000000 		.word	0
 3477 02d0 00000000 		.word	0
 3478 02d4 03000000 		.word	3
 3479 02d8 03000000 		.word	3
 3480 02dc 00000000 		.word	0
 3481 02e0 00000000 		.word	0
 3482 02e4 00000000 		.word	0
 3483 02e8 00000000 		.word	0
 3484 02ec 00000000 		.word	0
 3485 02f0 00000000 		.word	0
 3486 02f4 00000000 		.word	0
 3487 02f8 00000000 		.word	0
 3488 02fc 00000000 		.word	0
 3489 0300 00000000 		.word	0
 3490 0304 00000000 		.word	0
 3491 0308 00000000 		.word	0
 3492 030c 00000000 		.word	0
 3493 0310 00000000 		.word	0
 3494 0314 00000000 		.word	0
 3495 0318 00000000 		.word	0
 3496 031c 00000000 		.word	0
 3497 0320 00000000 		.word	0
 3498 0324 03000000 		.word	3
 3499 0328 03000000 		.word	3
 3500 032c 00000000 		.word	0
 3501 0330 00000000 		.word	0
 3502 0334 00000000 		.word	0
 3503 0338 00000000 		.word	0
 3504 033c 00000000 		.word	0
 3505 0340 00000000 		.word	0
 3506 0344 00000000 		.word	0
 3507 0348 00000000 		.word	0
 3508 034c 00000000 		.word	0
 3509 0350 00000000 		.word	0
 3510 0354 00000000 		.word	0
 3511 0358 00000000 		.word	0
 3512 035c 00000000 		.word	0
 3513 0360 00000000 		.word	0
 3514 0364 00000000 		.word	0
 3515 0368 00000000 		.word	0
ARM GAS  C:\Users\isaac\AppData\Local\Temp\cc1fpKCw.s 			page 82


 3516 036c 00000000 		.word	0
 3517 0370 00000000 		.word	0
 3518 0374 03000000 		.word	3
 3519 0378 03000000 		.word	3
 3520 037c 00000000 		.word	0
 3521 0380 00000000 		.word	0
 3522 0384 00000000 		.word	0
 3523 0388 00000000 		.word	0
 3524 038c 00000000 		.word	0
 3525 0390 00000000 		.word	0
 3526 0394 00000000 		.word	0
 3527 0398 00000000 		.word	0
 3528 039c 00000000 		.word	0
 3529 03a0 00000000 		.word	0
 3530 03a4 00000000 		.word	0
 3531 03a8 00000000 		.word	0
 3532 03ac 00000000 		.word	0
 3533 03b0 00000000 		.word	0
 3534 03b4 00000000 		.word	0
 3535 03b8 00000000 		.word	0
 3536 03bc 00000000 		.word	0
 3537 03c0 00000000 		.word	0
 3538 03c4 03000000 		.word	3
 3539 03c8 03000000 		.word	3
 3540 03cc 00000000 		.word	0
 3541 03d0 00000000 		.word	0
 3542 03d4 00000000 		.word	0
 3543 03d8 00000000 		.word	0
 3544 03dc 00000000 		.word	0
 3545 03e0 00000000 		.word	0
 3546 03e4 00000000 		.word	0
 3547 03e8 00000000 		.word	0
 3548 03ec 00000000 		.word	0
 3549 03f0 00000000 		.word	0
 3550 03f4 00000000 		.word	0
 3551 03f8 00000000 		.word	0
 3552 03fc 00000000 		.word	0
 3553 0400 00000000 		.word	0
 3554 0404 00000000 		.word	0
 3555 0408 00000000 		.word	0
 3556 040c 00000000 		.word	0
 3557 0410 00000000 		.word	0
 3558 0414 03000000 		.word	3
 3559 0418 03000000 		.word	3
 3560 041c 00000000 		.word	0
 3561 0420 00000000 		.word	0
 3562 0424 00000000 		.word	0
 3563 0428 00000000 		.word	0
 3564 042c 00000000 		.word	0
 3565 0430 00000000 		.word	0
 3566 0434 00000000 		.word	0
 3567 0438 00000000 		.word	0
 3568 043c 00000000 		.word	0
 3569 0440 00000000 		.word	0
 3570 0444 00000000 		.word	0
 3571 0448 00000000 		.word	0
 3572 044c 00000000 		.word	0
ARM GAS  C:\Users\isaac\AppData\Local\Temp\cc1fpKCw.s 			page 83


 3573 0450 00000000 		.word	0
 3574 0454 00000000 		.word	0
 3575 0458 00000000 		.word	0
 3576 045c 00000000 		.word	0
 3577 0460 00000000 		.word	0
 3578 0464 03000000 		.word	3
 3579 0468 03000000 		.word	3
 3580 046c 00000000 		.word	0
 3581 0470 00000000 		.word	0
 3582 0474 00000000 		.word	0
 3583 0478 00000000 		.word	0
 3584 047c 00000000 		.word	0
 3585 0480 00000000 		.word	0
 3586 0484 00000000 		.word	0
 3587 0488 00000000 		.word	0
 3588 048c 00000000 		.word	0
 3589 0490 00000000 		.word	0
 3590 0494 00000000 		.word	0
 3591 0498 00000000 		.word	0
 3592 049c 00000000 		.word	0
 3593 04a0 00000000 		.word	0
 3594 04a4 00000000 		.word	0
 3595 04a8 00000000 		.word	0
 3596 04ac 00000000 		.word	0
 3597 04b0 00000000 		.word	0
 3598 04b4 03000000 		.word	3
 3599 04b8 03000000 		.word	3
 3600 04bc 00000000 		.word	0
 3601 04c0 00000000 		.word	0
 3602 04c4 00000000 		.word	0
 3603 04c8 00000000 		.word	0
 3604 04cc 00000000 		.word	0
 3605 04d0 00000000 		.word	0
 3606 04d4 00000000 		.word	0
 3607 04d8 00000000 		.word	0
 3608 04dc 00000000 		.word	0
 3609 04e0 00000000 		.word	0
 3610 04e4 00000000 		.word	0
 3611 04e8 00000000 		.word	0
 3612 04ec 00000000 		.word	0
 3613 04f0 00000000 		.word	0
 3614 04f4 00000000 		.word	0
 3615 04f8 00000000 		.word	0
 3616 04fc 00000000 		.word	0
 3617 0500 00000000 		.word	0
 3618 0504 03000000 		.word	3
 3619 0508 00000000 		.word	0
 3620 050c 03000000 		.word	3
 3621 0510 03000000 		.word	3
 3622 0514 03000000 		.word	3
 3623 0518 03000000 		.word	3
 3624 051c 03000000 		.word	3
 3625 0520 03000000 		.word	3
 3626 0524 03000000 		.word	3
 3627 0528 03000000 		.word	3
 3628 052c 03000000 		.word	3
 3629 0530 03000000 		.word	3
ARM GAS  C:\Users\isaac\AppData\Local\Temp\cc1fpKCw.s 			page 84


 3630 0534 03000000 		.word	3
 3631 0538 03000000 		.word	3
 3632 053c 03000000 		.word	3
 3633 0540 03000000 		.word	3
 3634 0544 03000000 		.word	3
 3635 0548 03000000 		.word	3
 3636 054c 03000000 		.word	3
 3637 0550 03000000 		.word	3
 3638 0554 00000000 		.word	0
 3639              		.section	.rodata.str1.4,"aMS",%progbits,1
 3640              		.align	2
 3641              	.LC0:
 3642 0000 53434F52 		.ascii	"SCORE\000"
 3642      4500
 3643 0006 0000     		.space	2
 3644              	.LC1:
 3645 0008 4253542C 		.ascii	"BST,%c,F\012\000"
 3645      25632C46 
 3645      0A00
 3646 0012 0000     		.space	2
 3647              	.LC2:
 3648 0014 57616974 		.ascii	"Waiting For\000"
 3648      696E6720 
 3648      466F7200 
 3649              	.LC3:
 3650 0020 4E616D65 		.ascii	"Names To Start\000"
 3650      7320546F 
 3650      20537461 
 3650      727400
 3651 002f 00       		.space	1
 3652              	.LC4:
 3653 0030 534C4545 		.ascii	"SLEEP\000"
 3653      5000
 3654 0036 0000     		.space	2
 3655              	.LC5:
 3656 0038 50415553 		.ascii	"PAUSED\000"
 3656      454400
 3657 003f 00       		.space	1
 3658              	.LC6:
 3659 0040 47616D65 		.ascii	"Game Over\000"
 3659      204F7665 
 3659      7200
 3660 004a 0000     		.space	2
 3661              	.LC7:
 3662 004c 53433A00 		.ascii	"SC:\000"
 3663              	.LC8:
 3664 0050 4D617820 		.ascii	"Max Score Achived!\000"
 3664      53636F72 
 3664      65204163 
 3664      68697665 
 3664      642100
 3665 0063 00       		.space	1
 3666              	.LC9:
 3667 0064 46697273 		.ascii	"First Place:\000"
 3667      7420506C 
 3667      6163653A 
 3667      00
ARM GAS  C:\Users\isaac\AppData\Local\Temp\cc1fpKCw.s 			page 85


 3668 0071 000000   		.space	3
 3669              	.LC10:
 3670 0074 5365636F 		.ascii	"Second Place:\000"
 3670      6E642050 
 3670      6C616365 
 3670      3A00
 3671 0082 0000     		.space	2
 3672              	.LC11:
 3673 0084 54686972 		.ascii	"Third Place:\000"
 3673      6420506C 
 3673      6163653A 
 3673      00
 3674              		.bss
 3675              		.align	2
 3676              		.set	.LANCHOR1,. + 0
 3677              		.type	pause_status, %object
 3678              		.size	pause_status, 4
 3679              	pause_status:
 3680 0000 00000000 		.space	4
 3681              		.type	time_paused, %object
 3682              		.size	time_paused, 4
 3683              	time_paused:
 3684 0004 00000000 		.space	4
 3685              		.type	match_score, %object
 3686              		.size	match_score, 4
 3687              	match_score:
 3688 0008 00000000 		.space	4
 3689              		.type	score_ten_t, %object
 3690              		.size	score_ten_t, 4
 3691              	score_ten_t:
 3692 000c 00000000 		.space	4
 3693              		.type	period_offs, %object
 3694              		.size	period_offs, 4
 3695              	period_offs:
 3696 0010 00000000 		.space	4
 3697              		.type	snake_head, %object
 3698              		.size	snake_head, 4
 3699              	snake_head:
 3700 0014 00000000 		.space	4
 3701              		.type	snake_tail, %object
 3702              		.size	snake_tail, 4
 3703              	snake_tail:
 3704 0018 00000000 		.space	4
 3705              		.type	name_wait, %object
 3706              		.size	name_wait, 4
 3707              	name_wait:
 3708 001c 00000000 		.space	4
 3709              		.type	cs, %object
 3710              		.size	cs, 4
 3711              	cs:
 3712 0020 00000000 		.space	4
 3713              		.type	comas, %object
 3714              		.size	comas, 4
 3715              	comas:
 3716 0024 00000000 		.space	4
 3717              		.type	max_comas, %object
 3718              		.size	max_comas, 4
ARM GAS  C:\Users\isaac\AppData\Local\Temp\cc1fpKCw.s 			page 86


 3719              	max_comas:
 3720 0028 00000000 		.space	4
 3721              		.type	period_offs_old, %object
 3722              		.size	period_offs_old, 4
 3723              	period_offs_old:
 3724 002c 00000000 		.space	4
 3725              		.text
 3726              	.Letext0:
 3727              		.file 5 "c:\\program files (x86)\\cypress\\psoc creator\\4.2\\psoc creator\\import\\gnu\\arm\\5.4.
 3728              		.file 6 "c:\\program files (x86)\\cypress\\psoc creator\\4.2\\psoc creator\\import\\gnu\\arm\\5.4.
 3729              		.file 7 "Generated_Source\\PSoC5/cytypes.h"
 3730              		.file 8 "Generated_Source\\PSoC5/core_cm3.h"
 3731              		.file 9 "Generated_Source\\PSoC5/CyLib.h"
 3732              		.file 10 "Generated_Source\\PSoC5/Pause.h"
 3733              		.file 11 "Generated_Source\\PSoC5/isr_PAUSE.h"
 3734              		.file 12 "Generated_Source\\PSoC5/Resume.h"
 3735              		.file 13 "Generated_Source\\PSoC5/isr_RESUME.h"
 3736              		.file 14 "Generated_Source\\PSoC5/Timer_Real.h"
 3737              		.file 15 "Generated_Source\\PSoC5/isr_REAL.h"
 3738              		.file 16 "c:\\program files (x86)\\cypress\\psoc creator\\4.2\\psoc creator\\import\\gnu\\arm\\5.4
 3739              		.file 17 "Generated_Source\\PSoC5/LCD.h"
 3740              		.file 18 "Generated_Source\\PSoC5/EEPROM.h"
 3741              		.file 19 "Generated_Source\\PSoC5/UART.h"
 3742              		.file 20 "Generated_Source\\PSoC5/com.h"
 3743              		.file 21 "c:\\program files (x86)\\cypress\\psoc creator\\4.2\\psoc creator\\import\\gnu\\arm\\5.4
 3744              		.file 22 "Generated_Source\\PSoC5/Timer_Tic.h"
 3745              		.file 23 "Generated_Source\\PSoC5/cyPm.h"
 3746              		.file 24 "Generated_Source\\PSoC5/Timer_Seed.h"
 3747              		.file 25 "Generated_Source\\PSoC5/isr_TIC.h"
 3748              		.section	.debug_info,"",%progbits
 3749              	.Ldebug_info0:
 3750 0000 05180000 		.4byte	0x1805
 3751 0004 0400     		.2byte	0x4
 3752 0006 00000000 		.4byte	.Ldebug_abbrev0
 3753 000a 04       		.byte	0x4
 3754 000b 01       		.uleb128 0x1
 3755 000c 30020000 		.4byte	.LASF148
 3756 0010 0C       		.byte	0xc
 3757 0011 08000000 		.4byte	.LASF149
 3758 0015 8E010000 		.4byte	.LASF150
 3759 0019 20010000 		.4byte	.Ldebug_ranges0+0x120
 3760 001d 00000000 		.4byte	0
 3761 0021 00000000 		.4byte	.Ldebug_line0
 3762 0025 02       		.uleb128 0x2
 3763 0026 01       		.byte	0x1
 3764 0027 06       		.byte	0x6
 3765 0028 D3060000 		.4byte	.LASF0
 3766 002c 02       		.uleb128 0x2
 3767 002d 01       		.byte	0x1
 3768 002e 08       		.byte	0x8
 3769 002f 48060000 		.4byte	.LASF1
 3770 0033 02       		.uleb128 0x2
 3771 0034 02       		.byte	0x2
 3772 0035 05       		.byte	0x5
 3773 0036 FD040000 		.4byte	.LASF2
 3774 003a 02       		.uleb128 0x2
 3775 003b 02       		.byte	0x2
ARM GAS  C:\Users\isaac\AppData\Local\Temp\cc1fpKCw.s 			page 87


 3776 003c 07       		.byte	0x7
 3777 003d DF060000 		.4byte	.LASF3
 3778 0041 03       		.uleb128 0x3
 3779 0042 C0000000 		.4byte	.LASF9
 3780 0046 05       		.byte	0x5
 3781 0047 3F       		.byte	0x3f
 3782 0048 4C000000 		.4byte	0x4c
 3783 004c 02       		.uleb128 0x2
 3784 004d 04       		.byte	0x4
 3785 004e 05       		.byte	0x5
 3786 004f 07050000 		.4byte	.LASF4
 3787 0053 02       		.uleb128 0x2
 3788 0054 04       		.byte	0x4
 3789 0055 07       		.byte	0x7
 3790 0056 E8050000 		.4byte	.LASF5
 3791 005a 02       		.uleb128 0x2
 3792 005b 08       		.byte	0x8
 3793 005c 05       		.byte	0x5
 3794 005d 14040000 		.4byte	.LASF6
 3795 0061 02       		.uleb128 0x2
 3796 0062 08       		.byte	0x8
 3797 0063 07       		.byte	0x7
 3798 0064 D9010000 		.4byte	.LASF7
 3799 0068 04       		.uleb128 0x4
 3800 0069 04       		.byte	0x4
 3801 006a 05       		.byte	0x5
 3802 006b 696E7400 		.ascii	"int\000"
 3803 006f 02       		.uleb128 0x2
 3804 0070 04       		.byte	0x4
 3805 0071 07       		.byte	0x7
 3806 0072 8B000000 		.4byte	.LASF8
 3807 0076 03       		.uleb128 0x3
 3808 0077 11060000 		.4byte	.LASF10
 3809 007b 06       		.byte	0x6
 3810 007c 2C       		.byte	0x2c
 3811 007d 41000000 		.4byte	0x41
 3812 0081 05       		.uleb128 0x5
 3813 0082 09070000 		.4byte	.LASF11
 3814 0086 07       		.byte	0x7
 3815 0087 E401     		.2byte	0x1e4
 3816 0089 2C000000 		.4byte	0x2c
 3817 008d 05       		.uleb128 0x5
 3818 008e B2030000 		.4byte	.LASF12
 3819 0092 07       		.byte	0x7
 3820 0093 E501     		.2byte	0x1e5
 3821 0095 3A000000 		.4byte	0x3a
 3822 0099 02       		.uleb128 0x2
 3823 009a 04       		.byte	0x4
 3824 009b 04       		.byte	0x4
 3825 009c 82010000 		.4byte	.LASF13
 3826 00a0 02       		.uleb128 0x2
 3827 00a1 08       		.byte	0x8
 3828 00a2 04       		.byte	0x4
 3829 00a3 0F070000 		.4byte	.LASF14
 3830 00a7 02       		.uleb128 0x2
 3831 00a8 01       		.byte	0x1
 3832 00a9 08       		.byte	0x8
ARM GAS  C:\Users\isaac\AppData\Local\Temp\cc1fpKCw.s 			page 88


 3833 00aa 77030000 		.4byte	.LASF15
 3834 00ae 02       		.uleb128 0x2
 3835 00af 08       		.byte	0x8
 3836 00b0 04       		.byte	0x4
 3837 00b1 97040000 		.4byte	.LASF16
 3838 00b5 02       		.uleb128 0x2
 3839 00b6 04       		.byte	0x4
 3840 00b7 07       		.byte	0x7
 3841 00b8 DF050000 		.4byte	.LASF17
 3842 00bc 06       		.uleb128 0x6
 3843 00bd 04       		.byte	0x4
 3844 00be A7000000 		.4byte	0xa7
 3845 00c2 07       		.uleb128 0x7
 3846 00c3 A7000000 		.4byte	0xa7
 3847 00c7 D2000000 		.4byte	0xd2
 3848 00cb 08       		.uleb128 0x8
 3849 00cc B5000000 		.4byte	0xb5
 3850 00d0 17       		.byte	0x17
 3851 00d1 00       		.byte	0
 3852 00d2 09       		.uleb128 0x9
 3853 00d3 7D070000 		.4byte	.LASF18
 3854 00d7 08       		.byte	0x8
 3855 00d8 04       		.byte	0x4
 3856 00d9 0B       		.byte	0xb
 3857 00da F3000000 		.4byte	0xf3
 3858 00de 0A       		.uleb128 0xa
 3859 00df 7800     		.ascii	"x\000"
 3860 00e1 04       		.byte	0x4
 3861 00e2 0C       		.byte	0xc
 3862 00e3 68000000 		.4byte	0x68
 3863 00e7 00       		.byte	0
 3864 00e8 0A       		.uleb128 0xa
 3865 00e9 7900     		.ascii	"y\000"
 3866 00eb 04       		.byte	0x4
 3867 00ec 0C       		.byte	0xc
 3868 00ed 68000000 		.4byte	0x68
 3869 00f1 04       		.byte	0x4
 3870 00f2 00       		.byte	0
 3871 00f3 09       		.uleb128 0x9
 3872 00f4 27030000 		.4byte	.LASF19
 3873 00f8 0C       		.byte	0xc
 3874 00f9 01       		.byte	0x1
 3875 00fa 09       		.byte	0x9
 3876 00fb 18010000 		.4byte	0x118
 3877 00ff 0B       		.uleb128 0xb
 3878 0100 A4050000 		.4byte	.LASF20
 3879 0104 01       		.byte	0x1
 3880 0105 0A       		.byte	0xa
 3881 0106 18010000 		.4byte	0x118
 3882 010a 00       		.byte	0
 3883 010b 0B       		.uleb128 0xb
 3884 010c 0E040000 		.4byte	.LASF21
 3885 0110 01       		.byte	0x1
 3886 0111 0B       		.byte	0xb
 3887 0112 68000000 		.4byte	0x68
 3888 0116 08       		.byte	0x8
 3889 0117 00       		.byte	0
ARM GAS  C:\Users\isaac\AppData\Local\Temp\cc1fpKCw.s 			page 89


 3890 0118 07       		.uleb128 0x7
 3891 0119 A7000000 		.4byte	0xa7
 3892 011d 28010000 		.4byte	0x128
 3893 0121 08       		.uleb128 0x8
 3894 0122 B5000000 		.4byte	0xb5
 3895 0126 04       		.byte	0x4
 3896 0127 00       		.byte	0
 3897 0128 0C       		.uleb128 0xc
 3898 0129 19060000 		.4byte	.LASF22
 3899 012d 01       		.byte	0x1
 3900 012e 3501     		.2byte	0x135
 3901 0130 00000000 		.4byte	.LFB84
 3902 0134 30000000 		.4byte	.LFE84-.LFB84
 3903 0138 01       		.uleb128 0x1
 3904 0139 9C       		.byte	0x9c
 3905 013a 65010000 		.4byte	0x165
 3906 013e 0D       		.uleb128 0xd
 3907 013f 08000000 		.4byte	.LVL0
 3908 0143 03160000 		.4byte	0x1603
 3909 0147 52010000 		.4byte	0x152
 3910 014b 0E       		.uleb128 0xe
 3911 014c 01       		.uleb128 0x1
 3912 014d 50       		.byte	0x50
 3913 014e 02       		.uleb128 0x2
 3914 014f 08       		.byte	0x8
 3915 0150 32       		.byte	0x32
 3916 0151 00       		.byte	0
 3917 0152 0F       		.uleb128 0xf
 3918 0153 20000000 		.4byte	.LVL1
 3919 0157 0E160000 		.4byte	0x160e
 3920 015b 0F       		.uleb128 0xf
 3921 015c 24000000 		.4byte	.LVL2
 3922 0160 19160000 		.4byte	0x1619
 3923 0164 00       		.byte	0
 3924 0165 0C       		.uleb128 0xc
 3925 0166 F4020000 		.4byte	.LASF23
 3926 016a 01       		.byte	0x1
 3927 016b 3F01     		.2byte	0x13f
 3928 016d 00000000 		.4byte	.LFB85
 3929 0171 20000000 		.4byte	.LFE85-.LFB85
 3930 0175 01       		.uleb128 0x1
 3931 0176 9C       		.byte	0x9c
 3932 0177 8E010000 		.4byte	0x18e
 3933 017b 0F       		.uleb128 0xf
 3934 017c 14000000 		.4byte	.LVL3
 3935 0180 24160000 		.4byte	0x1624
 3936 0184 0F       		.uleb128 0xf
 3937 0185 18000000 		.4byte	.LVL4
 3938 0189 2F160000 		.4byte	0x162f
 3939 018d 00       		.byte	0
 3940 018e 0C       		.uleb128 0xc
 3941 018f 62060000 		.4byte	.LASF24
 3942 0193 01       		.byte	0x1
 3943 0194 6301     		.2byte	0x163
 3944 0196 00000000 		.4byte	.LFB87
 3945 019a 20000000 		.4byte	.LFE87-.LFB87
 3946 019e 01       		.uleb128 0x1
ARM GAS  C:\Users\isaac\AppData\Local\Temp\cc1fpKCw.s 			page 90


 3947 019f 9C       		.byte	0x9c
 3948 01a0 B7010000 		.4byte	0x1b7
 3949 01a4 0F       		.uleb128 0xf
 3950 01a5 14000000 		.4byte	.LVL5
 3951 01a9 3A160000 		.4byte	0x163a
 3952 01ad 0F       		.uleb128 0xf
 3953 01ae 18000000 		.4byte	.LVL6
 3954 01b2 45160000 		.4byte	0x1645
 3955 01b6 00       		.byte	0
 3956 01b7 10       		.uleb128 0x10
 3957 01b8 90040000 		.4byte	.LASF27
 3958 01bc 02       		.byte	0x2
 3959 01bd 07       		.byte	0x7
 3960 01be 68000000 		.4byte	0x68
 3961 01c2 00000000 		.4byte	.LFB64
 3962 01c6 06000000 		.4byte	.LFE64-.LFB64
 3963 01ca 01       		.uleb128 0x1
 3964 01cb 9C       		.byte	0x9c
 3965 01cc FA010000 		.4byte	0x1fa
 3966 01d0 11       		.uleb128 0x11
 3967 01d1 AB060000 		.4byte	.LASF25
 3968 01d5 02       		.byte	0x2
 3969 01d6 07       		.byte	0x7
 3970 01d7 68000000 		.4byte	0x68
 3971 01db 00000000 		.4byte	.LLST0
 3972 01df 12       		.uleb128 0x12
 3973 01e0 B0060000 		.4byte	.LASF26
 3974 01e4 02       		.byte	0x2
 3975 01e5 07       		.byte	0x7
 3976 01e6 68000000 		.4byte	0x68
 3977 01ea 01       		.uleb128 0x1
 3978 01eb 51       		.byte	0x51
 3979 01ec 13       		.uleb128 0x13
 3980 01ed 6300     		.ascii	"c\000"
 3981 01ef 02       		.byte	0x2
 3982 01f0 08       		.byte	0x8
 3983 01f1 68000000 		.4byte	0x68
 3984 01f5 21000000 		.4byte	.LLST1
 3985 01f9 00       		.byte	0
 3986 01fa 10       		.uleb128 0x10
 3987 01fb 6B070000 		.4byte	.LASF28
 3988 01ff 02       		.byte	0x2
 3989 0200 0C       		.byte	0xc
 3990 0201 68000000 		.4byte	0x68
 3991 0205 00000000 		.4byte	.LFB65
 3992 0209 1A000000 		.4byte	.LFE65-.LFB65
 3993 020d 01       		.uleb128 0x1
 3994 020e 9C       		.byte	0x9c
 3995 020f 4A020000 		.4byte	0x24a
 3996 0213 11       		.uleb128 0x11
 3997 0214 1E020000 		.4byte	.LASF29
 3998 0218 02       		.byte	0x2
 3999 0219 0C       		.byte	0xc
 4000 021a 68000000 		.4byte	0x68
 4001 021e 46000000 		.4byte	.LLST2
 4002 0222 11       		.uleb128 0x11
 4003 0223 6F060000 		.4byte	.LASF30
ARM GAS  C:\Users\isaac\AppData\Local\Temp\cc1fpKCw.s 			page 91


 4004 0227 02       		.byte	0x2
 4005 0228 0C       		.byte	0xc
 4006 0229 68000000 		.4byte	0x68
 4007 022d 64000000 		.4byte	.LLST3
 4008 0231 13       		.uleb128 0x13
 4009 0232 6E756D00 		.ascii	"num\000"
 4010 0236 02       		.byte	0x2
 4011 0237 0D       		.byte	0xd
 4012 0238 68000000 		.4byte	0x68
 4013 023c 90000000 		.4byte	.LLST4
 4014 0240 0F       		.uleb128 0xf
 4015 0241 0A000000 		.4byte	.LVL10
 4016 0245 50160000 		.4byte	0x1650
 4017 0249 00       		.byte	0
 4018 024a 14       		.uleb128 0x14
 4019 024b B5060000 		.4byte	.LASF31
 4020 024f 03       		.byte	0x3
 4021 0250 31       		.byte	0x31
 4022 0251 00000000 		.4byte	.LFB67
 4023 0255 90000000 		.4byte	.LFE67-.LFB67
 4024 0259 01       		.uleb128 0x1
 4025 025a 9C       		.byte	0x9c
 4026 025b E2030000 		.4byte	0x3e2
 4027 025f 11       		.uleb128 0x11
 4028 0260 AB060000 		.4byte	.LASF25
 4029 0264 03       		.byte	0x3
 4030 0265 31       		.byte	0x31
 4031 0266 68000000 		.4byte	0x68
 4032 026a B3000000 		.4byte	.LLST5
 4033 026e 0D       		.uleb128 0xd
 4034 026f 0A000000 		.4byte	.LVL16
 4035 0273 5B160000 		.4byte	0x165b
 4036 0277 85020000 		.4byte	0x285
 4037 027b 0E       		.uleb128 0xe
 4038 027c 01       		.uleb128 0x1
 4039 027d 50       		.byte	0x50
 4040 027e 05       		.uleb128 0x5
 4041 027f 03       		.byte	0x3
 4042 0280 00000000 		.4byte	lcd_ram
 4043 0284 00       		.byte	0
 4044 0285 0D       		.uleb128 0xd
 4045 0286 14000000 		.4byte	.LVL18
 4046 028a 66160000 		.4byte	0x1666
 4047 028e 9E020000 		.4byte	0x29e
 4048 0292 0E       		.uleb128 0xe
 4049 0293 01       		.uleb128 0x1
 4050 0294 50       		.byte	0x50
 4051 0295 01       		.uleb128 0x1
 4052 0296 30       		.byte	0x30
 4053 0297 0E       		.uleb128 0xe
 4054 0298 01       		.uleb128 0x1
 4055 0299 51       		.byte	0x51
 4056 029a 02       		.uleb128 0x2
 4057 029b 74       		.byte	0x74
 4058 029c 00       		.sleb128 0
 4059 029d 00       		.byte	0
 4060 029e 0D       		.uleb128 0xd
ARM GAS  C:\Users\isaac\AppData\Local\Temp\cc1fpKCw.s 			page 92


 4061 029f 1A000000 		.4byte	.LVL19
 4062 02a3 71160000 		.4byte	0x1671
 4063 02a7 B1020000 		.4byte	0x2b1
 4064 02ab 0E       		.uleb128 0xe
 4065 02ac 01       		.uleb128 0x1
 4066 02ad 50       		.byte	0x50
 4067 02ae 01       		.uleb128 0x1
 4068 02af 30       		.byte	0x30
 4069 02b0 00       		.byte	0
 4070 02b1 0D       		.uleb128 0xd
 4071 02b2 26000000 		.4byte	.LVL20
 4072 02b6 66160000 		.4byte	0x1666
 4073 02ba CA020000 		.4byte	0x2ca
 4074 02be 0E       		.uleb128 0xe
 4075 02bf 01       		.uleb128 0x1
 4076 02c0 50       		.byte	0x50
 4077 02c1 01       		.uleb128 0x1
 4078 02c2 30       		.byte	0x30
 4079 02c3 0E       		.uleb128 0xe
 4080 02c4 01       		.uleb128 0x1
 4081 02c5 51       		.byte	0x51
 4082 02c6 02       		.uleb128 0x2
 4083 02c7 77       		.byte	0x77
 4084 02c8 00       		.sleb128 0
 4085 02c9 00       		.byte	0
 4086 02ca 0D       		.uleb128 0xd
 4087 02cb 2C000000 		.4byte	.LVL21
 4088 02cf 71160000 		.4byte	0x1671
 4089 02d3 DD020000 		.4byte	0x2dd
 4090 02d7 0E       		.uleb128 0xe
 4091 02d8 01       		.uleb128 0x1
 4092 02d9 50       		.byte	0x50
 4093 02da 01       		.uleb128 0x1
 4094 02db 31       		.byte	0x31
 4095 02dc 00       		.byte	0
 4096 02dd 0D       		.uleb128 0xd
 4097 02de 38000000 		.4byte	.LVL22
 4098 02e2 66160000 		.4byte	0x1666
 4099 02e6 F6020000 		.4byte	0x2f6
 4100 02ea 0E       		.uleb128 0xe
 4101 02eb 01       		.uleb128 0x1
 4102 02ec 50       		.byte	0x50
 4103 02ed 01       		.uleb128 0x1
 4104 02ee 30       		.byte	0x30
 4105 02ef 0E       		.uleb128 0xe
 4106 02f0 01       		.uleb128 0x1
 4107 02f1 51       		.byte	0x51
 4108 02f2 02       		.uleb128 0x2
 4109 02f3 76       		.byte	0x76
 4110 02f4 00       		.sleb128 0
 4111 02f5 00       		.byte	0
 4112 02f6 0D       		.uleb128 0xd
 4113 02f7 3E000000 		.4byte	.LVL23
 4114 02fb 71160000 		.4byte	0x1671
 4115 02ff 09030000 		.4byte	0x309
 4116 0303 0E       		.uleb128 0xe
 4117 0304 01       		.uleb128 0x1
ARM GAS  C:\Users\isaac\AppData\Local\Temp\cc1fpKCw.s 			page 93


 4118 0305 50       		.byte	0x50
 4119 0306 01       		.uleb128 0x1
 4120 0307 32       		.byte	0x32
 4121 0308 00       		.byte	0
 4122 0309 0D       		.uleb128 0xd
 4123 030a 4A000000 		.4byte	.LVL24
 4124 030e 66160000 		.4byte	0x1666
 4125 0312 22030000 		.4byte	0x322
 4126 0316 0E       		.uleb128 0xe
 4127 0317 01       		.uleb128 0x1
 4128 0318 50       		.byte	0x50
 4129 0319 01       		.uleb128 0x1
 4130 031a 30       		.byte	0x30
 4131 031b 0E       		.uleb128 0xe
 4132 031c 01       		.uleb128 0x1
 4133 031d 51       		.byte	0x51
 4134 031e 02       		.uleb128 0x2
 4135 031f 75       		.byte	0x75
 4136 0320 00       		.sleb128 0
 4137 0321 00       		.byte	0
 4138 0322 0D       		.uleb128 0xd
 4139 0323 50000000 		.4byte	.LVL25
 4140 0327 71160000 		.4byte	0x1671
 4141 032b 35030000 		.4byte	0x335
 4142 032f 0E       		.uleb128 0xe
 4143 0330 01       		.uleb128 0x1
 4144 0331 50       		.byte	0x50
 4145 0332 01       		.uleb128 0x1
 4146 0333 33       		.byte	0x33
 4147 0334 00       		.byte	0
 4148 0335 0D       		.uleb128 0xd
 4149 0336 58000000 		.4byte	.LVL26
 4150 033a 66160000 		.4byte	0x1666
 4151 033e 4E030000 		.4byte	0x34e
 4152 0342 0E       		.uleb128 0xe
 4153 0343 01       		.uleb128 0x1
 4154 0344 50       		.byte	0x50
 4155 0345 01       		.uleb128 0x1
 4156 0346 31       		.byte	0x31
 4157 0347 0E       		.uleb128 0xe
 4158 0348 01       		.uleb128 0x1
 4159 0349 51       		.byte	0x51
 4160 034a 02       		.uleb128 0x2
 4161 034b 74       		.byte	0x74
 4162 034c 00       		.sleb128 0
 4163 034d 00       		.byte	0
 4164 034e 0D       		.uleb128 0xd
 4165 034f 5E000000 		.4byte	.LVL27
 4166 0353 71160000 		.4byte	0x1671
 4167 0357 61030000 		.4byte	0x361
 4168 035b 0E       		.uleb128 0xe
 4169 035c 01       		.uleb128 0x1
 4170 035d 50       		.byte	0x50
 4171 035e 01       		.uleb128 0x1
 4172 035f 34       		.byte	0x34
 4173 0360 00       		.byte	0
 4174 0361 0D       		.uleb128 0xd
ARM GAS  C:\Users\isaac\AppData\Local\Temp\cc1fpKCw.s 			page 94


 4175 0362 66000000 		.4byte	.LVL28
 4176 0366 66160000 		.4byte	0x1666
 4177 036a 7A030000 		.4byte	0x37a
 4178 036e 0E       		.uleb128 0xe
 4179 036f 01       		.uleb128 0x1
 4180 0370 50       		.byte	0x50
 4181 0371 01       		.uleb128 0x1
 4182 0372 31       		.byte	0x31
 4183 0373 0E       		.uleb128 0xe
 4184 0374 01       		.uleb128 0x1
 4185 0375 51       		.byte	0x51
 4186 0376 02       		.uleb128 0x2
 4187 0377 77       		.byte	0x77
 4188 0378 00       		.sleb128 0
 4189 0379 00       		.byte	0
 4190 037a 0D       		.uleb128 0xd
 4191 037b 6C000000 		.4byte	.LVL29
 4192 037f 71160000 		.4byte	0x1671
 4193 0383 8D030000 		.4byte	0x38d
 4194 0387 0E       		.uleb128 0xe
 4195 0388 01       		.uleb128 0x1
 4196 0389 50       		.byte	0x50
 4197 038a 01       		.uleb128 0x1
 4198 038b 35       		.byte	0x35
 4199 038c 00       		.byte	0
 4200 038d 0D       		.uleb128 0xd
 4201 038e 74000000 		.4byte	.LVL30
 4202 0392 66160000 		.4byte	0x1666
 4203 0396 A6030000 		.4byte	0x3a6
 4204 039a 0E       		.uleb128 0xe
 4205 039b 01       		.uleb128 0x1
 4206 039c 50       		.byte	0x50
 4207 039d 01       		.uleb128 0x1
 4208 039e 31       		.byte	0x31
 4209 039f 0E       		.uleb128 0xe
 4210 03a0 01       		.uleb128 0x1
 4211 03a1 51       		.byte	0x51
 4212 03a2 02       		.uleb128 0x2
 4213 03a3 76       		.byte	0x76
 4214 03a4 00       		.sleb128 0
 4215 03a5 00       		.byte	0
 4216 03a6 0D       		.uleb128 0xd
 4217 03a7 7A000000 		.4byte	.LVL31
 4218 03ab 71160000 		.4byte	0x1671
 4219 03af B9030000 		.4byte	0x3b9
 4220 03b3 0E       		.uleb128 0xe
 4221 03b4 01       		.uleb128 0x1
 4222 03b5 50       		.byte	0x50
 4223 03b6 01       		.uleb128 0x1
 4224 03b7 36       		.byte	0x36
 4225 03b8 00       		.byte	0
 4226 03b9 0D       		.uleb128 0xd
 4227 03ba 82000000 		.4byte	.LVL32
 4228 03be 66160000 		.4byte	0x1666
 4229 03c2 D2030000 		.4byte	0x3d2
 4230 03c6 0E       		.uleb128 0xe
 4231 03c7 01       		.uleb128 0x1
ARM GAS  C:\Users\isaac\AppData\Local\Temp\cc1fpKCw.s 			page 95


 4232 03c8 50       		.byte	0x50
 4233 03c9 01       		.uleb128 0x1
 4234 03ca 31       		.byte	0x31
 4235 03cb 0E       		.uleb128 0xe
 4236 03cc 01       		.uleb128 0x1
 4237 03cd 51       		.byte	0x51
 4238 03ce 02       		.uleb128 0x2
 4239 03cf 75       		.byte	0x75
 4240 03d0 00       		.sleb128 0
 4241 03d1 00       		.byte	0
 4242 03d2 15       		.uleb128 0x15
 4243 03d3 88000000 		.4byte	.LVL33
 4244 03d7 71160000 		.4byte	0x1671
 4245 03db 0E       		.uleb128 0xe
 4246 03dc 01       		.uleb128 0x1
 4247 03dd 50       		.byte	0x50
 4248 03de 01       		.uleb128 0x1
 4249 03df 37       		.byte	0x37
 4250 03e0 00       		.byte	0
 4251 03e1 00       		.byte	0
 4252 03e2 10       		.uleb128 0x10
 4253 03e3 4E030000 		.4byte	.LASF32
 4254 03e7 03       		.byte	0x3
 4255 03e8 48       		.byte	0x48
 4256 03e9 81000000 		.4byte	0x81
 4257 03ed 00000000 		.4byte	.LFB68
 4258 03f1 24000000 		.4byte	.LFE68-.LFB68
 4259 03f5 01       		.uleb128 0x1
 4260 03f6 9C       		.byte	0x9c
 4261 03f7 1A040000 		.4byte	0x41a
 4262 03fb 11       		.uleb128 0x11
 4263 03fc 82040000 		.4byte	.LASF33
 4264 0400 03       		.byte	0x3
 4265 0401 48       		.byte	0x48
 4266 0402 68000000 		.4byte	0x68
 4267 0406 DF000000 		.4byte	.LLST6
 4268 040a 16       		.uleb128 0x16
 4269 040b 69010000 		.4byte	.LASF34
 4270 040f 03       		.byte	0x3
 4271 0410 4A       		.byte	0x4a
 4272 0411 81000000 		.4byte	0x81
 4273 0415 13010000 		.4byte	.LLST7
 4274 0419 00       		.byte	0
 4275 041a 14       		.uleb128 0x14
 4276 041b F3040000 		.4byte	.LASF35
 4277 041f 03       		.byte	0x3
 4278 0420 0B       		.byte	0xb
 4279 0421 00000000 		.4byte	.LFB66
 4280 0425 8C000000 		.4byte	.LFE66-.LFB66
 4281 0429 01       		.uleb128 0x1
 4282 042a 9C       		.byte	0x9c
 4283 042b D3040000 		.4byte	0x4d3
 4284 042f 11       		.uleb128 0x11
 4285 0430 5E000000 		.4byte	.LASF36
 4286 0434 03       		.byte	0x3
 4287 0435 0B       		.byte	0xb
 4288 0436 E3040000 		.4byte	0x4e3
ARM GAS  C:\Users\isaac\AppData\Local\Temp\cc1fpKCw.s 			page 96


 4289 043a 32010000 		.4byte	.LLST8
 4290 043e 16       		.uleb128 0x16
 4291 043f 08040000 		.4byte	.LASF37
 4292 0443 03       		.byte	0x3
 4293 0444 0D       		.byte	0xd
 4294 0445 68000000 		.4byte	0x68
 4295 0449 5E010000 		.4byte	.LLST9
 4296 044d 16       		.uleb128 0x16
 4297 044e AB040000 		.4byte	.LASF38
 4298 0452 03       		.byte	0x3
 4299 0453 0E       		.byte	0xe
 4300 0454 68000000 		.4byte	0x68
 4301 0458 7D010000 		.4byte	.LLST10
 4302 045c 16       		.uleb128 0x16
 4303 045d 0F000000 		.4byte	.LASF39
 4304 0461 03       		.byte	0x3
 4305 0462 0F       		.byte	0xf
 4306 0463 68000000 		.4byte	0x68
 4307 0467 A7010000 		.4byte	.LLST11
 4308 046b 16       		.uleb128 0x16
 4309 046c 14010000 		.4byte	.LASF40
 4310 0470 03       		.byte	0x3
 4311 0471 10       		.byte	0x10
 4312 0472 68000000 		.4byte	0x68
 4313 0476 DD010000 		.4byte	.LLST12
 4314 047a 16       		.uleb128 0x16
 4315 047b 87040000 		.4byte	.LASF41
 4316 047f 03       		.byte	0x3
 4317 0480 11       		.byte	0x11
 4318 0481 81000000 		.4byte	0x81
 4319 0485 FC010000 		.4byte	.LLST13
 4320 0489 17       		.uleb128 0x17
 4321 048a 00000000 		.4byte	.Ldebug_ranges0+0
 4322 048e C3040000 		.4byte	0x4c3
 4323 0492 13       		.uleb128 0x13
 4324 0493 6900     		.ascii	"i\000"
 4325 0495 03       		.byte	0x3
 4326 0496 13       		.byte	0x13
 4327 0497 68000000 		.4byte	0x68
 4328 049b 3E020000 		.4byte	.LLST14
 4329 049f 18       		.uleb128 0x18
 4330 04a0 18000000 		.4byte	.Ldebug_ranges0+0x18
 4331 04a4 13       		.uleb128 0x13
 4332 04a5 7800     		.ascii	"x\000"
 4333 04a7 03       		.byte	0x3
 4334 04a8 14       		.byte	0x14
 4335 04a9 68000000 		.4byte	0x68
 4336 04ad 5D020000 		.4byte	.LLST15
 4337 04b1 15       		.uleb128 0x15
 4338 04b2 2C000000 		.4byte	.LVL45
 4339 04b6 E2030000 		.4byte	0x3e2
 4340 04ba 0E       		.uleb128 0xe
 4341 04bb 01       		.uleb128 0x1
 4342 04bc 50       		.byte	0x50
 4343 04bd 02       		.uleb128 0x2
 4344 04be 74       		.byte	0x74
 4345 04bf 00       		.sleb128 0
ARM GAS  C:\Users\isaac\AppData\Local\Temp\cc1fpKCw.s 			page 97


 4346 04c0 00       		.byte	0
 4347 04c1 00       		.byte	0
 4348 04c2 00       		.byte	0
 4349 04c3 15       		.uleb128 0x15
 4350 04c4 82000000 		.4byte	.LVL61
 4351 04c8 4A020000 		.4byte	0x24a
 4352 04cc 0E       		.uleb128 0xe
 4353 04cd 01       		.uleb128 0x1
 4354 04ce 50       		.byte	0x50
 4355 04cf 01       		.uleb128 0x1
 4356 04d0 30       		.byte	0x30
 4357 04d1 00       		.byte	0
 4358 04d2 00       		.byte	0
 4359 04d3 07       		.uleb128 0x7
 4360 04d4 68000000 		.4byte	0x68
 4361 04d8 E3040000 		.4byte	0x4e3
 4362 04dc 08       		.uleb128 0x8
 4363 04dd B5000000 		.4byte	0xb5
 4364 04e1 13       		.byte	0x13
 4365 04e2 00       		.byte	0
 4366 04e3 06       		.uleb128 0x6
 4367 04e4 04       		.byte	0x4
 4368 04e5 D3040000 		.4byte	0x4d3
 4369 04e9 19       		.uleb128 0x19
 4370 04ea 75060000 		.4byte	.LASF43
 4371 04ee 04       		.byte	0x4
 4372 04ef 26       		.byte	0x26
 4373 04f0 00000000 		.4byte	.LFB69
 4374 04f4 20000000 		.4byte	.LFE69-.LFB69
 4375 04f8 01       		.uleb128 0x1
 4376 04f9 9C       		.byte	0x9c
 4377 04fa 16050000 		.4byte	0x516
 4378 04fe 1A       		.uleb128 0x1a
 4379 04ff 00000000 		.4byte	.LBB6
 4380 0503 1A000000 		.4byte	.LBE6-.LBB6
 4381 0507 13       		.uleb128 0x13
 4382 0508 6900     		.ascii	"i\000"
 4383 050a 04       		.byte	0x4
 4384 050b 27       		.byte	0x27
 4385 050c 68000000 		.4byte	0x68
 4386 0510 7B020000 		.4byte	.LLST16
 4387 0514 00       		.byte	0
 4388 0515 00       		.byte	0
 4389 0516 14       		.uleb128 0x14
 4390 0517 59040000 		.4byte	.LASF42
 4391 051b 04       		.byte	0x4
 4392 051c 2D       		.byte	0x2d
 4393 051d 00000000 		.4byte	.LFB70
 4394 0521 78000000 		.4byte	.LFE70-.LFB70
 4395 0525 01       		.uleb128 0x1
 4396 0526 9C       		.byte	0x9c
 4397 0527 72050000 		.4byte	0x572
 4398 052b 11       		.uleb128 0x11
 4399 052c 5E000000 		.4byte	.LASF36
 4400 0530 04       		.byte	0x4
 4401 0531 2D       		.byte	0x2d
 4402 0532 E3040000 		.4byte	0x4e3
ARM GAS  C:\Users\isaac\AppData\Local\Temp\cc1fpKCw.s 			page 98


 4403 0536 9A020000 		.4byte	.LLST17
 4404 053a 1B       		.uleb128 0x1b
 4405 053b 12000000 		.4byte	.LBB7
 4406 053f 2C000000 		.4byte	.LBE7-.LBB7
 4407 0543 68050000 		.4byte	0x568
 4408 0547 13       		.uleb128 0x13
 4409 0548 7900     		.ascii	"y\000"
 4410 054a 04       		.byte	0x4
 4411 054b 33       		.byte	0x33
 4412 054c 68000000 		.4byte	0x68
 4413 0550 C6020000 		.4byte	.LLST18
 4414 0554 18       		.uleb128 0x18
 4415 0555 30000000 		.4byte	.Ldebug_ranges0+0x30
 4416 0559 13       		.uleb128 0x13
 4417 055a 7800     		.ascii	"x\000"
 4418 055c 04       		.byte	0x4
 4419 055d 34       		.byte	0x34
 4420 055e 68000000 		.4byte	0x68
 4421 0562 E5020000 		.4byte	.LLST19
 4422 0566 00       		.byte	0
 4423 0567 00       		.byte	0
 4424 0568 0F       		.uleb128 0xf
 4425 0569 12000000 		.4byte	.LVL67
 4426 056d E9040000 		.4byte	0x4e9
 4427 0571 00       		.byte	0
 4428 0572 19       		.uleb128 0x19
 4429 0573 81060000 		.4byte	.LASF44
 4430 0577 04       		.byte	0x4
 4431 0578 43       		.byte	0x43
 4432 0579 00000000 		.4byte	.LFB71
 4433 057d 94000000 		.4byte	.LFE71-.LFB71
 4434 0581 01       		.uleb128 0x1
 4435 0582 9C       		.byte	0x9c
 4436 0583 12060000 		.4byte	0x612
 4437 0587 1A       		.uleb128 0x1a
 4438 0588 02000000 		.4byte	.LBB10
 4439 058c 92000000 		.4byte	.LBE10-.LBB10
 4440 0590 13       		.uleb128 0x13
 4441 0591 6900     		.ascii	"i\000"
 4442 0593 04       		.byte	0x4
 4443 0594 44       		.byte	0x44
 4444 0595 68000000 		.4byte	0x68
 4445 0599 03030000 		.4byte	.LLST20
 4446 059d 1B       		.uleb128 0x1b
 4447 059e 2E000000 		.4byte	.LBB11
 4448 05a2 50000000 		.4byte	.LBE11-.LBB11
 4449 05a6 E4050000 		.4byte	0x5e4
 4450 05aa 13       		.uleb128 0x13
 4451 05ab 6A00     		.ascii	"j\000"
 4452 05ad 04       		.byte	0x4
 4453 05ae 4A       		.byte	0x4a
 4454 05af 68000000 		.4byte	0x68
 4455 05b3 22030000 		.4byte	.LLST21
 4456 05b7 0D       		.uleb128 0xd
 4457 05b8 5E000000 		.4byte	.LVL80
 4458 05bc FA010000 		.4byte	0x1fa
 4459 05c0 CF050000 		.4byte	0x5cf
ARM GAS  C:\Users\isaac\AppData\Local\Temp\cc1fpKCw.s 			page 99


 4460 05c4 0E       		.uleb128 0xe
 4461 05c5 01       		.uleb128 0x1
 4462 05c6 50       		.byte	0x50
 4463 05c7 01       		.uleb128 0x1
 4464 05c8 31       		.byte	0x31
 4465 05c9 0E       		.uleb128 0xe
 4466 05ca 01       		.uleb128 0x1
 4467 05cb 51       		.byte	0x51
 4468 05cc 01       		.uleb128 0x1
 4469 05cd 43       		.byte	0x43
 4470 05ce 00       		.byte	0
 4471 05cf 15       		.uleb128 0x15
 4472 05d0 6C000000 		.4byte	.LVL81
 4473 05d4 FA010000 		.4byte	0x1fa
 4474 05d8 0E       		.uleb128 0xe
 4475 05d9 01       		.uleb128 0x1
 4476 05da 50       		.byte	0x50
 4477 05db 01       		.uleb128 0x1
 4478 05dc 31       		.byte	0x31
 4479 05dd 0E       		.uleb128 0xe
 4480 05de 01       		.uleb128 0x1
 4481 05df 51       		.byte	0x51
 4482 05e0 01       		.uleb128 0x1
 4483 05e1 3F       		.byte	0x3f
 4484 05e2 00       		.byte	0
 4485 05e3 00       		.byte	0
 4486 05e4 0D       		.uleb128 0xd
 4487 05e5 1A000000 		.4byte	.LVL76
 4488 05e9 FA010000 		.4byte	0x1fa
 4489 05ed FC050000 		.4byte	0x5fc
 4490 05f1 0E       		.uleb128 0xe
 4491 05f2 01       		.uleb128 0x1
 4492 05f3 50       		.byte	0x50
 4493 05f4 01       		.uleb128 0x1
 4494 05f5 31       		.byte	0x31
 4495 05f6 0E       		.uleb128 0xe
 4496 05f7 01       		.uleb128 0x1
 4497 05f8 51       		.byte	0x51
 4498 05f9 01       		.uleb128 0x1
 4499 05fa 43       		.byte	0x43
 4500 05fb 00       		.byte	0
 4501 05fc 15       		.uleb128 0x15
 4502 05fd 28000000 		.4byte	.LVL77
 4503 0601 FA010000 		.4byte	0x1fa
 4504 0605 0E       		.uleb128 0xe
 4505 0606 01       		.uleb128 0x1
 4506 0607 50       		.byte	0x50
 4507 0608 01       		.uleb128 0x1
 4508 0609 31       		.byte	0x31
 4509 060a 0E       		.uleb128 0xe
 4510 060b 01       		.uleb128 0x1
 4511 060c 51       		.byte	0x51
 4512 060d 01       		.uleb128 0x1
 4513 060e 3F       		.byte	0x3f
 4514 060f 00       		.byte	0
 4515 0610 00       		.byte	0
 4516 0611 00       		.byte	0
ARM GAS  C:\Users\isaac\AppData\Local\Temp\cc1fpKCw.s 			page 100


 4517 0612 19       		.uleb128 0x19
 4518 0613 A5030000 		.4byte	.LASF45
 4519 0617 04       		.byte	0x4
 4520 0618 55       		.byte	0x55
 4521 0619 00000000 		.4byte	.LFB72
 4522 061d 40000000 		.4byte	.LFE72-.LFB72
 4523 0621 01       		.uleb128 0x1
 4524 0622 9C       		.byte	0x9c
 4525 0623 52060000 		.4byte	0x652
 4526 0627 1A       		.uleb128 0x1a
 4527 0628 02000000 		.4byte	.LBB12
 4528 062c 36000000 		.4byte	.LBE12-.LBB12
 4529 0630 13       		.uleb128 0x13
 4530 0631 7900     		.ascii	"y\000"
 4531 0633 04       		.byte	0x4
 4532 0634 57       		.byte	0x57
 4533 0635 68000000 		.4byte	0x68
 4534 0639 41030000 		.4byte	.LLST22
 4535 063d 18       		.uleb128 0x18
 4536 063e 48000000 		.4byte	.Ldebug_ranges0+0x48
 4537 0642 13       		.uleb128 0x13
 4538 0643 7800     		.ascii	"x\000"
 4539 0645 04       		.byte	0x4
 4540 0646 58       		.byte	0x58
 4541 0647 68000000 		.4byte	0x68
 4542 064b 60030000 		.4byte	.LLST23
 4543 064f 00       		.byte	0
 4544 0650 00       		.byte	0
 4545 0651 00       		.byte	0
 4546 0652 19       		.uleb128 0x19
 4547 0653 B9030000 		.4byte	.LASF46
 4548 0657 04       		.byte	0x4
 4549 0658 5F       		.byte	0x5f
 4550 0659 00000000 		.4byte	.LFB73
 4551 065d 2C000000 		.4byte	.LFE73-.LFB73
 4552 0661 01       		.uleb128 0x1
 4553 0662 9C       		.byte	0x9c
 4554 0663 B8060000 		.4byte	0x6b8
 4555 0667 0D       		.uleb128 0xd
 4556 0668 0A000000 		.4byte	.LVL92
 4557 066c 66160000 		.4byte	0x1666
 4558 0670 7F060000 		.4byte	0x67f
 4559 0674 0E       		.uleb128 0xe
 4560 0675 01       		.uleb128 0x1
 4561 0676 50       		.byte	0x50
 4562 0677 01       		.uleb128 0x1
 4563 0678 30       		.byte	0x30
 4564 0679 0E       		.uleb128 0xe
 4565 067a 01       		.uleb128 0x1
 4566 067b 51       		.byte	0x51
 4567 067c 01       		.uleb128 0x1
 4568 067d 35       		.byte	0x35
 4569 067e 00       		.byte	0
 4570 067f 0D       		.uleb128 0xd
 4571 0680 10000000 		.4byte	.LVL93
 4572 0684 7C160000 		.4byte	0x167c
 4573 0688 96060000 		.4byte	0x696
ARM GAS  C:\Users\isaac\AppData\Local\Temp\cc1fpKCw.s 			page 101


 4574 068c 0E       		.uleb128 0xe
 4575 068d 01       		.uleb128 0x1
 4576 068e 50       		.byte	0x50
 4577 068f 05       		.uleb128 0x5
 4578 0690 03       		.byte	0x3
 4579 0691 00000000 		.4byte	.LC0
 4580 0695 00       		.byte	0
 4581 0696 0D       		.uleb128 0xd
 4582 0697 18000000 		.4byte	.LVL94
 4583 069b 66160000 		.4byte	0x1666
 4584 069f AE060000 		.4byte	0x6ae
 4585 06a3 0E       		.uleb128 0xe
 4586 06a4 01       		.uleb128 0x1
 4587 06a5 50       		.byte	0x50
 4588 06a6 01       		.uleb128 0x1
 4589 06a7 31       		.byte	0x31
 4590 06a8 0E       		.uleb128 0xe
 4591 06a9 01       		.uleb128 0x1
 4592 06aa 51       		.byte	0x51
 4593 06ab 01       		.uleb128 0x1
 4594 06ac 35       		.byte	0x35
 4595 06ad 00       		.byte	0
 4596 06ae 0F       		.uleb128 0xf
 4597 06af 20000000 		.4byte	.LVL95
 4598 06b3 87160000 		.4byte	0x1687
 4599 06b7 00       		.byte	0
 4600 06b8 19       		.uleb128 0x19
 4601 06b9 CC050000 		.4byte	.LASF47
 4602 06bd 04       		.byte	0x4
 4603 06be 65       		.byte	0x65
 4604 06bf 00000000 		.4byte	.LFB74
 4605 06c3 7C000000 		.4byte	.LFE74-.LFB74
 4606 06c7 01       		.uleb128 0x1
 4607 06c8 9C       		.byte	0x9c
 4608 06c9 54070000 		.4byte	0x754
 4609 06cd 16       		.uleb128 0x16
 4610 06ce 03070000 		.4byte	.LASF48
 4611 06d2 04       		.byte	0x4
 4612 06d3 68       		.byte	0x68
 4613 06d4 68000000 		.4byte	0x68
 4614 06d8 7E030000 		.4byte	.LLST24
 4615 06dc 1B       		.uleb128 0x1b
 4616 06dd 08000000 		.4byte	.LBB15
 4617 06e1 26000000 		.4byte	.LBE15-.LBB15
 4618 06e5 04070000 		.4byte	0x704
 4619 06e9 13       		.uleb128 0x13
 4620 06ea 7800     		.ascii	"x\000"
 4621 06ec 04       		.byte	0x4
 4622 06ed 6B       		.byte	0x6b
 4623 06ee 68000000 		.4byte	0x68
 4624 06f2 A8030000 		.4byte	.LLST25
 4625 06f6 13       		.uleb128 0x13
 4626 06f7 7900     		.ascii	"y\000"
 4627 06f9 04       		.byte	0x4
 4628 06fa 6C       		.byte	0x6c
 4629 06fb 68000000 		.4byte	0x68
 4630 06ff F7030000 		.4byte	.LLST26
ARM GAS  C:\Users\isaac\AppData\Local\Temp\cc1fpKCw.s 			page 102


 4631 0703 00       		.byte	0
 4632 0704 17       		.uleb128 0x17
 4633 0705 60000000 		.4byte	.Ldebug_ranges0+0x60
 4634 0709 1B070000 		.4byte	0x71b
 4635 070d 13       		.uleb128 0x13
 4636 070e 6900     		.ascii	"i\000"
 4637 0710 04       		.byte	0x4
 4638 0711 74       		.byte	0x74
 4639 0712 68000000 		.4byte	0x68
 4640 0716 46040000 		.4byte	.LLST27
 4641 071a 00       		.byte	0
 4642 071b 0F       		.uleb128 0xf
 4643 071c 06000000 		.4byte	.LVL96
 4644 0720 12060000 		.4byte	0x612
 4645 0724 0D       		.uleb128 0xd
 4646 0725 60000000 		.4byte	.LVL107
 4647 0729 92160000 		.4byte	0x1692
 4648 072d 37070000 		.4byte	0x737
 4649 0731 0E       		.uleb128 0xe
 4650 0732 01       		.uleb128 0x1
 4651 0733 50       		.byte	0x50
 4652 0734 01       		.uleb128 0x1
 4653 0735 31       		.byte	0x31
 4654 0736 00       		.byte	0
 4655 0737 0F       		.uleb128 0xf
 4656 0738 64000000 		.4byte	.LVL108
 4657 073c 52060000 		.4byte	0x652
 4658 0740 15       		.uleb128 0x15
 4659 0741 6A000000 		.4byte	.LVL109
 4660 0745 1A040000 		.4byte	0x41a
 4661 0749 0E       		.uleb128 0xe
 4662 074a 01       		.uleb128 0x1
 4663 074b 50       		.byte	0x50
 4664 074c 05       		.uleb128 0x5
 4665 074d 03       		.byte	0x3
 4666 074e 00000000 		.4byte	MapBuffer
 4667 0752 00       		.byte	0
 4668 0753 00       		.byte	0
 4669 0754 14       		.uleb128 0x14
 4670 0755 2E030000 		.4byte	.LASF49
 4671 0759 04       		.byte	0x4
 4672 075a 7E       		.byte	0x7e
 4673 075b 00000000 		.4byte	.LFB75
 4674 075f 4C000000 		.4byte	.LFE75-.LFB75
 4675 0763 01       		.uleb128 0x1
 4676 0764 9C       		.byte	0x9c
 4677 0765 77070000 		.4byte	0x777
 4678 0769 12       		.uleb128 0x12
 4679 076a 88010000 		.4byte	.LASF50
 4680 076e 04       		.byte	0x4
 4681 076f 7E       		.byte	0x7e
 4682 0770 A7000000 		.4byte	0xa7
 4683 0774 01       		.uleb128 0x1
 4684 0775 50       		.byte	0x50
 4685 0776 00       		.byte	0
 4686 0777 1C       		.uleb128 0x1c
 4687 0778 72040000 		.4byte	.LASF51
ARM GAS  C:\Users\isaac\AppData\Local\Temp\cc1fpKCw.s 			page 103


 4688 077c 04       		.byte	0x4
 4689 077d 8F       		.byte	0x8f
 4690 077e 57080000 		.4byte	0x857
 4691 0782 00000000 		.4byte	.LFB76
 4692 0786 DC010000 		.4byte	.LFE76-.LFB76
 4693 078a 01       		.uleb128 0x1
 4694 078b 9C       		.byte	0x9c
 4695 078c 57080000 		.4byte	0x857
 4696 0790 1D       		.uleb128 0x1d
 4697 0791 63757200 		.ascii	"cur\000"
 4698 0795 04       		.byte	0x4
 4699 0796 90       		.byte	0x90
 4700 0797 D2000000 		.4byte	0xd2
 4701 079b 02       		.uleb128 0x2
 4702 079c 91       		.byte	0x91
 4703 079d 60       		.sleb128 -32
 4704 079e 1E       		.uleb128 0x1e
 4705 079f 3D050000 		.4byte	.LASF52
 4706 07a3 04       		.byte	0x4
 4707 07a4 91       		.byte	0x91
 4708 07a5 D2000000 		.4byte	0xd2
 4709 07a9 02       		.uleb128 0x2
 4710 07aa 91       		.byte	0x91
 4711 07ab 58       		.sleb128 -40
 4712 07ac 1F       		.uleb128 0x1f
 4713 07ad 71080000 		.4byte	0x871
 4714 07b1 64040000 		.4byte	.LLST28
 4715 07b5 16       		.uleb128 0x16
 4716 07b6 B4050000 		.4byte	.LASF53
 4717 07ba 04       		.byte	0x4
 4718 07bb 92       		.byte	0x92
 4719 07bc 5E080000 		.4byte	0x85e
 4720 07c0 9C040000 		.4byte	.LLST29
 4721 07c4 17       		.uleb128 0x17
 4722 07c5 78000000 		.4byte	.Ldebug_ranges0+0x78
 4723 07c9 DB070000 		.4byte	0x7db
 4724 07cd 13       		.uleb128 0x13
 4725 07ce 6900     		.ascii	"i\000"
 4726 07d0 04       		.byte	0x4
 4727 07d1 B6       		.byte	0xb6
 4728 07d2 68000000 		.4byte	0x68
 4729 07d6 4C050000 		.4byte	.LLST30
 4730 07da 00       		.byte	0
 4731 07db 1B       		.uleb128 0x1b
 4732 07dc AE000000 		.4byte	.LBB19
 4733 07e0 AE000000 		.4byte	.LBE19-.LBB19
 4734 07e4 28080000 		.4byte	0x828
 4735 07e8 13       		.uleb128 0x13
 4736 07e9 6900     		.ascii	"i\000"
 4737 07eb 04       		.byte	0x4
 4738 07ec BC       		.byte	0xbc
 4739 07ed 68000000 		.4byte	0x68
 4740 07f1 6A050000 		.4byte	.LLST31
 4741 07f5 1B       		.uleb128 0x1b
 4742 07f6 F2000000 		.4byte	.LBB20
 4743 07fa 26000000 		.4byte	.LBE20-.LBB20
 4744 07fe 10080000 		.4byte	0x810
ARM GAS  C:\Users\isaac\AppData\Local\Temp\cc1fpKCw.s 			page 104


 4745 0802 13       		.uleb128 0x13
 4746 0803 6900     		.ascii	"i\000"
 4747 0805 04       		.byte	0x4
 4748 0806 CA       		.byte	0xca
 4749 0807 68000000 		.4byte	0x68
 4750 080b 88050000 		.4byte	.LLST32
 4751 080f 00       		.byte	0
 4752 0810 1A       		.uleb128 0x1a
 4753 0811 26010000 		.4byte	.LBB21
 4754 0815 22000000 		.4byte	.LBE21-.LBB21
 4755 0819 13       		.uleb128 0x13
 4756 081a 6900     		.ascii	"i\000"
 4757 081c 04       		.byte	0x4
 4758 081d D1       		.byte	0xd1
 4759 081e 68000000 		.4byte	0x68
 4760 0822 A7050000 		.4byte	.LLST33
 4761 0826 00       		.byte	0
 4762 0827 00       		.byte	0
 4763 0828 1B       		.uleb128 0x1b
 4764 0829 5C010000 		.4byte	.LBB22
 4765 082d 20000000 		.4byte	.LBE22-.LBB22
 4766 0831 43080000 		.4byte	0x843
 4767 0835 13       		.uleb128 0x13
 4768 0836 6900     		.ascii	"i\000"
 4769 0838 04       		.byte	0x4
 4770 0839 DB       		.byte	0xdb
 4771 083a 68000000 		.4byte	0x68
 4772 083e E9050000 		.4byte	.LLST34
 4773 0842 00       		.byte	0
 4774 0843 18       		.uleb128 0x18
 4775 0844 90000000 		.4byte	.Ldebug_ranges0+0x90
 4776 0848 13       		.uleb128 0x13
 4777 0849 6900     		.ascii	"i\000"
 4778 084b 04       		.byte	0x4
 4779 084c E1       		.byte	0xe1
 4780 084d 68000000 		.4byte	0x68
 4781 0851 FC050000 		.4byte	.LLST35
 4782 0855 00       		.byte	0
 4783 0856 00       		.byte	0
 4784 0857 02       		.uleb128 0x2
 4785 0858 01       		.byte	0x1
 4786 0859 02       		.byte	0x2
 4787 085a EE020000 		.4byte	.LASF54
 4788 085e 07       		.uleb128 0x7
 4789 085f D2000000 		.4byte	0xd2
 4790 0863 71080000 		.4byte	0x871
 4791 0867 20       		.uleb128 0x20
 4792 0868 B5000000 		.4byte	0xb5
 4793 086c AC070000 		.4byte	0x7ac
 4794 0870 00       		.byte	0
 4795 0871 21       		.uleb128 0x21
 4796 0872 B5000000 		.4byte	0xb5
 4797 0876 19       		.uleb128 0x19
 4798 0877 65050000 		.4byte	.LASF55
 4799 087b 01       		.byte	0x1
 4800 087c E6       		.byte	0xe6
 4801 087d 00000000 		.4byte	.LFB79
ARM GAS  C:\Users\isaac\AppData\Local\Temp\cc1fpKCw.s 			page 105


 4802 0881 3C000000 		.4byte	.LFE79-.LFB79
 4803 0885 01       		.uleb128 0x1
 4804 0886 9C       		.byte	0x9c
 4805 0887 BA080000 		.4byte	0x8ba
 4806 088b 1A       		.uleb128 0x1a
 4807 088c 02000000 		.4byte	.LBB26
 4808 0890 32000000 		.4byte	.LBE26-.LBB26
 4809 0894 13       		.uleb128 0x13
 4810 0895 6900     		.ascii	"i\000"
 4811 0897 01       		.byte	0x1
 4812 0898 E7       		.byte	0xe7
 4813 0899 68000000 		.4byte	0x68
 4814 089d 3E060000 		.4byte	.LLST36
 4815 08a1 1A       		.uleb128 0x1a
 4816 08a2 14000000 		.4byte	.LBB27
 4817 08a6 1A000000 		.4byte	.LBE27-.LBB27
 4818 08aa 13       		.uleb128 0x13
 4819 08ab 6A00     		.ascii	"j\000"
 4820 08ad 01       		.byte	0x1
 4821 08ae E9       		.byte	0xe9
 4822 08af 68000000 		.4byte	0x68
 4823 08b3 5D060000 		.4byte	.LLST37
 4824 08b7 00       		.byte	0
 4825 08b8 00       		.byte	0
 4826 08b9 00       		.byte	0
 4827 08ba 19       		.uleb128 0x19
 4828 08bb D4040000 		.4byte	.LASF56
 4829 08bf 01       		.byte	0x1
 4830 08c0 DC       		.byte	0xdc
 4831 08c1 00000000 		.4byte	.LFB78
 4832 08c5 50000000 		.4byte	.LFE78-.LFB78
 4833 08c9 01       		.uleb128 0x1
 4834 08ca 9C       		.byte	0x9c
 4835 08cb 32090000 		.4byte	0x932
 4836 08cf 1B       		.uleb128 0x1b
 4837 08d0 06000000 		.4byte	.LBB28
 4838 08d4 44000000 		.4byte	.LBE28-.LBB28
 4839 08d8 28090000 		.4byte	0x928
 4840 08dc 13       		.uleb128 0x13
 4841 08dd 6900     		.ascii	"i\000"
 4842 08df 01       		.byte	0x1
 4843 08e0 DF       		.byte	0xdf
 4844 08e1 68000000 		.4byte	0x68
 4845 08e5 7C060000 		.4byte	.LLST38
 4846 08e9 1B       		.uleb128 0x1b
 4847 08ea 24000000 		.4byte	.LBB29
 4848 08ee 20000000 		.4byte	.LBE29-.LBB29
 4849 08f2 17090000 		.4byte	0x917
 4850 08f6 13       		.uleb128 0x13
 4851 08f7 6A00     		.ascii	"j\000"
 4852 08f9 01       		.byte	0x1
 4853 08fa E1       		.byte	0xe1
 4854 08fb 68000000 		.4byte	0x68
 4855 08ff 9B060000 		.4byte	.LLST39
 4856 0903 15       		.uleb128 0x15
 4857 0904 3E000000 		.4byte	.LVL163
 4858 0908 9D160000 		.4byte	0x169d
ARM GAS  C:\Users\isaac\AppData\Local\Temp\cc1fpKCw.s 			page 106


 4859 090c 0E       		.uleb128 0xe
 4860 090d 01       		.uleb128 0x1
 4861 090e 51       		.byte	0x51
 4862 090f 05       		.uleb128 0x5
 4863 0910 76       		.byte	0x76
 4864 0911 00       		.sleb128 0
 4865 0912 74       		.byte	0x74
 4866 0913 00       		.sleb128 0
 4867 0914 22       		.byte	0x22
 4868 0915 00       		.byte	0
 4869 0916 00       		.byte	0
 4870 0917 15       		.uleb128 0x15
 4871 0918 24000000 		.4byte	.LVL161
 4872 091c 9D160000 		.4byte	0x169d
 4873 0920 0E       		.uleb128 0xe
 4874 0921 01       		.uleb128 0x1
 4875 0922 51       		.byte	0x51
 4876 0923 02       		.uleb128 0x2
 4877 0924 76       		.byte	0x76
 4878 0925 00       		.sleb128 0
 4879 0926 00       		.byte	0
 4880 0927 00       		.byte	0
 4881 0928 0F       		.uleb128 0xf
 4882 0929 06000000 		.4byte	.LVL159
 4883 092d 76080000 		.4byte	0x876
 4884 0931 00       		.byte	0
 4885 0932 19       		.uleb128 0x19
 4886 0933 27070000 		.4byte	.LASF57
 4887 0937 01       		.byte	0x1
 4888 0938 EE       		.byte	0xee
 4889 0939 00000000 		.4byte	.LFB80
 4890 093d 4C000000 		.4byte	.LFE80-.LFB80
 4891 0941 01       		.uleb128 0x1
 4892 0942 9C       		.byte	0x9c
 4893 0943 9D090000 		.4byte	0x99d
 4894 0947 1A       		.uleb128 0x1a
 4895 0948 02000000 		.4byte	.LBB30
 4896 094c 44000000 		.4byte	.LBE30-.LBB30
 4897 0950 13       		.uleb128 0x13
 4898 0951 6900     		.ascii	"i\000"
 4899 0953 01       		.byte	0x1
 4900 0954 EF       		.byte	0xef
 4901 0955 68000000 		.4byte	0x68
 4902 0959 BA060000 		.4byte	.LLST40
 4903 095d 1B       		.uleb128 0x1b
 4904 095e 20000000 		.4byte	.LBB31
 4905 0962 20000000 		.4byte	.LBE31-.LBB31
 4906 0966 8B090000 		.4byte	0x98b
 4907 096a 13       		.uleb128 0x13
 4908 096b 6A00     		.ascii	"j\000"
 4909 096d 01       		.byte	0x1
 4910 096e F1       		.byte	0xf1
 4911 096f 68000000 		.4byte	0x68
 4912 0973 D9060000 		.4byte	.LLST41
 4913 0977 15       		.uleb128 0x15
 4914 0978 3A000000 		.4byte	.LVL171
 4915 097c 9D160000 		.4byte	0x169d
ARM GAS  C:\Users\isaac\AppData\Local\Temp\cc1fpKCw.s 			page 107


 4916 0980 0E       		.uleb128 0xe
 4917 0981 01       		.uleb128 0x1
 4918 0982 51       		.byte	0x51
 4919 0983 05       		.uleb128 0x5
 4920 0984 76       		.byte	0x76
 4921 0985 00       		.sleb128 0
 4922 0986 74       		.byte	0x74
 4923 0987 00       		.sleb128 0
 4924 0988 22       		.byte	0x22
 4925 0989 00       		.byte	0
 4926 098a 00       		.byte	0
 4927 098b 15       		.uleb128 0x15
 4928 098c 20000000 		.4byte	.LVL169
 4929 0990 9D160000 		.4byte	0x169d
 4930 0994 0E       		.uleb128 0xe
 4931 0995 01       		.uleb128 0x1
 4932 0996 51       		.byte	0x51
 4933 0997 02       		.uleb128 0x2
 4934 0998 76       		.byte	0x76
 4935 0999 00       		.sleb128 0
 4936 099a 00       		.byte	0
 4937 099b 00       		.byte	0
 4938 099c 00       		.byte	0
 4939 099d 19       		.uleb128 0x19
 4940 099e 87030000 		.4byte	.LASF58
 4941 09a2 01       		.byte	0x1
 4942 09a3 F6       		.byte	0xf6
 4943 09a4 00000000 		.4byte	.LFB81
 4944 09a8 4C000000 		.4byte	.LFE81-.LFB81
 4945 09ac 01       		.uleb128 0x1
 4946 09ad 9C       		.byte	0x9c
 4947 09ae 080A0000 		.4byte	0xa08
 4948 09b2 1A       		.uleb128 0x1a
 4949 09b3 02000000 		.4byte	.LBB32
 4950 09b7 44000000 		.4byte	.LBE32-.LBB32
 4951 09bb 13       		.uleb128 0x13
 4952 09bc 6900     		.ascii	"i\000"
 4953 09be 01       		.byte	0x1
 4954 09bf F7       		.byte	0xf7
 4955 09c0 68000000 		.4byte	0x68
 4956 09c4 F8060000 		.4byte	.LLST42
 4957 09c8 1B       		.uleb128 0x1b
 4958 09c9 20000000 		.4byte	.LBB33
 4959 09cd 20000000 		.4byte	.LBE33-.LBB33
 4960 09d1 F6090000 		.4byte	0x9f6
 4961 09d5 13       		.uleb128 0x13
 4962 09d6 6A00     		.ascii	"j\000"
 4963 09d8 01       		.byte	0x1
 4964 09d9 F9       		.byte	0xf9
 4965 09da 68000000 		.4byte	0x68
 4966 09de 17070000 		.4byte	.LLST43
 4967 09e2 15       		.uleb128 0x15
 4968 09e3 2E000000 		.4byte	.LVL180
 4969 09e7 A8160000 		.4byte	0x16a8
 4970 09eb 0E       		.uleb128 0xe
 4971 09ec 01       		.uleb128 0x1
 4972 09ed 50       		.byte	0x50
ARM GAS  C:\Users\isaac\AppData\Local\Temp\cc1fpKCw.s 			page 108


 4973 09ee 05       		.uleb128 0x5
 4974 09ef 77       		.byte	0x77
 4975 09f0 00       		.sleb128 0
 4976 09f1 74       		.byte	0x74
 4977 09f2 00       		.sleb128 0
 4978 09f3 22       		.byte	0x22
 4979 09f4 00       		.byte	0
 4980 09f5 00       		.byte	0
 4981 09f6 15       		.uleb128 0x15
 4982 09f7 14000000 		.4byte	.LVL177
 4983 09fb A8160000 		.4byte	0x16a8
 4984 09ff 0E       		.uleb128 0xe
 4985 0a00 01       		.uleb128 0x1
 4986 0a01 50       		.byte	0x50
 4987 0a02 02       		.uleb128 0x2
 4988 0a03 77       		.byte	0x77
 4989 0a04 00       		.sleb128 0
 4990 0a05 00       		.byte	0
 4991 0a06 00       		.byte	0
 4992 0a07 00       		.byte	0
 4993 0a08 1C       		.uleb128 0x1c
 4994 0a09 16070000 		.4byte	.LASF59
 4995 0a0d 01       		.byte	0x1
 4996 0a0e FE       		.byte	0xfe
 4997 0a0f 57080000 		.4byte	0x857
 4998 0a13 00000000 		.4byte	.LFB82
 4999 0a17 C8000000 		.4byte	.LFE82-.LFB82
 5000 0a1b 01       		.uleb128 0x1
 5001 0a1c 9C       		.byte	0x9c
 5002 0a1d 9C0A0000 		.4byte	0xa9c
 5003 0a21 16       		.uleb128 0x16
 5004 0a22 D7020000 		.4byte	.LASF60
 5005 0a26 01       		.byte	0x1
 5006 0a27 FF       		.byte	0xff
 5007 0a28 68000000 		.4byte	0x68
 5008 0a2c 36070000 		.4byte	.LLST44
 5009 0a30 22       		.uleb128 0x22
 5010 0a31 E8030000 		.4byte	.LASF61
 5011 0a35 01       		.byte	0x1
 5012 0a36 0001     		.2byte	0x100
 5013 0a38 F3000000 		.4byte	0xf3
 5014 0a3c 02       		.uleb128 0x2
 5015 0a3d 91       		.byte	0x91
 5016 0a3e 5C       		.sleb128 -36
 5017 0a3f 1B       		.uleb128 0x1b
 5018 0a40 00000000 		.4byte	.LBB34
 5019 0a44 1E000000 		.4byte	.LBE34-.LBB34
 5020 0a48 5B0A0000 		.4byte	0xa5b
 5021 0a4c 23       		.uleb128 0x23
 5022 0a4d 6900     		.ascii	"i\000"
 5023 0a4f 01       		.byte	0x1
 5024 0a50 0201     		.2byte	0x102
 5025 0a52 68000000 		.4byte	0x68
 5026 0a56 61070000 		.4byte	.LLST45
 5027 0a5a 00       		.byte	0
 5028 0a5b 17       		.uleb128 0x17
 5029 0a5c A8000000 		.4byte	.Ldebug_ranges0+0xa8
ARM GAS  C:\Users\isaac\AppData\Local\Temp\cc1fpKCw.s 			page 109


 5030 0a60 730A0000 		.4byte	0xa73
 5031 0a64 23       		.uleb128 0x23
 5032 0a65 6900     		.ascii	"i\000"
 5033 0a67 01       		.byte	0x1
 5034 0a68 0B01     		.2byte	0x10b
 5035 0a6a 68000000 		.4byte	0x68
 5036 0a6e 80070000 		.4byte	.LLST46
 5037 0a72 00       		.byte	0
 5038 0a73 18       		.uleb128 0x18
 5039 0a74 C0000000 		.4byte	.Ldebug_ranges0+0xc0
 5040 0a78 23       		.uleb128 0x23
 5041 0a79 6300     		.ascii	"c\000"
 5042 0a7b 01       		.byte	0x1
 5043 0a7c 0F01     		.2byte	0x10f
 5044 0a7e 68000000 		.4byte	0x68
 5045 0a82 9F070000 		.4byte	.LLST47
 5046 0a86 18       		.uleb128 0x18
 5047 0a87 D8000000 		.4byte	.Ldebug_ranges0+0xd8
 5048 0a8b 23       		.uleb128 0x23
 5049 0a8c 6400     		.ascii	"d\000"
 5050 0a8e 01       		.byte	0x1
 5051 0a8f 1001     		.2byte	0x110
 5052 0a91 68000000 		.4byte	0x68
 5053 0a95 BD070000 		.4byte	.LLST48
 5054 0a99 00       		.byte	0
 5055 0a9a 00       		.byte	0
 5056 0a9b 00       		.byte	0
 5057 0a9c 24       		.uleb128 0x24
 5058 0a9d 03030000 		.4byte	.LASF62
 5059 0aa1 01       		.byte	0x1
 5060 0aa2 1D01     		.2byte	0x11d
 5061 0aa4 00000000 		.4byte	.LFB83
 5062 0aa8 94000000 		.4byte	.LFE83-.LFB83
 5063 0aac 01       		.uleb128 0x1
 5064 0aad 9C       		.byte	0x9c
 5065 0aae 3B0C0000 		.4byte	0xc3b
 5066 0ab2 1B       		.uleb128 0x1b
 5067 0ab3 02000000 		.4byte	.LBB41
 5068 0ab7 56000000 		.4byte	.LBE41-.LBB41
 5069 0abb 920B0000 		.4byte	0xb92
 5070 0abf 23       		.uleb128 0x23
 5071 0ac0 6900     		.ascii	"i\000"
 5072 0ac2 01       		.byte	0x1
 5073 0ac3 1E01     		.2byte	0x11e
 5074 0ac5 68000000 		.4byte	0x68
 5075 0ac9 E8070000 		.4byte	.LLST49
 5076 0acd 0D       		.uleb128 0xd
 5077 0ace 16000000 		.4byte	.LVL202
 5078 0ad2 66160000 		.4byte	0x1666
 5079 0ad6 E60A0000 		.4byte	0xae6
 5080 0ada 0E       		.uleb128 0xe
 5081 0adb 01       		.uleb128 0x1
 5082 0adc 50       		.byte	0x50
 5083 0add 01       		.uleb128 0x1
 5084 0ade 30       		.byte	0x30
 5085 0adf 0E       		.uleb128 0xe
 5086 0ae0 01       		.uleb128 0x1
ARM GAS  C:\Users\isaac\AppData\Local\Temp\cc1fpKCw.s 			page 110


 5087 0ae1 51       		.byte	0x51
 5088 0ae2 02       		.uleb128 0x2
 5089 0ae3 75       		.byte	0x75
 5090 0ae4 00       		.sleb128 0
 5091 0ae5 00       		.byte	0
 5092 0ae6 0D       		.uleb128 0xd
 5093 0ae7 1C000000 		.4byte	.LVL203
 5094 0aeb 71160000 		.4byte	0x1671
 5095 0aef FA0A0000 		.4byte	0xafa
 5096 0af3 0E       		.uleb128 0xe
 5097 0af4 01       		.uleb128 0x1
 5098 0af5 50       		.byte	0x50
 5099 0af6 02       		.uleb128 0x2
 5100 0af7 08       		.byte	0x8
 5101 0af8 23       		.byte	0x23
 5102 0af9 00       		.byte	0
 5103 0afa 0D       		.uleb128 0xd
 5104 0afb 2A000000 		.4byte	.LVL204
 5105 0aff 66160000 		.4byte	0x1666
 5106 0b03 130B0000 		.4byte	0xb13
 5107 0b07 0E       		.uleb128 0xe
 5108 0b08 01       		.uleb128 0x1
 5109 0b09 50       		.byte	0x50
 5110 0b0a 01       		.uleb128 0x1
 5111 0b0b 30       		.byte	0x30
 5112 0b0c 0E       		.uleb128 0xe
 5113 0b0d 01       		.uleb128 0x1
 5114 0b0e 51       		.byte	0x51
 5115 0b0f 02       		.uleb128 0x2
 5116 0b10 74       		.byte	0x74
 5117 0b11 00       		.sleb128 0
 5118 0b12 00       		.byte	0
 5119 0b13 0D       		.uleb128 0xd
 5120 0b14 30000000 		.4byte	.LVL205
 5121 0b18 71160000 		.4byte	0x1671
 5122 0b1c 270B0000 		.4byte	0xb27
 5123 0b20 0E       		.uleb128 0xe
 5124 0b21 01       		.uleb128 0x1
 5125 0b22 50       		.byte	0x50
 5126 0b23 02       		.uleb128 0x2
 5127 0b24 08       		.byte	0x8
 5128 0b25 23       		.byte	0x23
 5129 0b26 00       		.byte	0
 5130 0b27 0D       		.uleb128 0xd
 5131 0b28 38000000 		.4byte	.LVL206
 5132 0b2c 66160000 		.4byte	0x1666
 5133 0b30 400B0000 		.4byte	0xb40
 5134 0b34 0E       		.uleb128 0xe
 5135 0b35 01       		.uleb128 0x1
 5136 0b36 50       		.byte	0x50
 5137 0b37 01       		.uleb128 0x1
 5138 0b38 31       		.byte	0x31
 5139 0b39 0E       		.uleb128 0xe
 5140 0b3a 01       		.uleb128 0x1
 5141 0b3b 51       		.byte	0x51
 5142 0b3c 02       		.uleb128 0x2
 5143 0b3d 75       		.byte	0x75
ARM GAS  C:\Users\isaac\AppData\Local\Temp\cc1fpKCw.s 			page 111


 5144 0b3e 00       		.sleb128 0
 5145 0b3f 00       		.byte	0
 5146 0b40 0D       		.uleb128 0xd
 5147 0b41 3E000000 		.4byte	.LVL207
 5148 0b45 71160000 		.4byte	0x1671
 5149 0b49 540B0000 		.4byte	0xb54
 5150 0b4d 0E       		.uleb128 0xe
 5151 0b4e 01       		.uleb128 0x1
 5152 0b4f 50       		.byte	0x50
 5153 0b50 02       		.uleb128 0x2
 5154 0b51 08       		.byte	0x8
 5155 0b52 23       		.byte	0x23
 5156 0b53 00       		.byte	0
 5157 0b54 0D       		.uleb128 0xd
 5158 0b55 46000000 		.4byte	.LVL208
 5159 0b59 66160000 		.4byte	0x1666
 5160 0b5d 6D0B0000 		.4byte	0xb6d
 5161 0b61 0E       		.uleb128 0xe
 5162 0b62 01       		.uleb128 0x1
 5163 0b63 50       		.byte	0x50
 5164 0b64 01       		.uleb128 0x1
 5165 0b65 31       		.byte	0x31
 5166 0b66 0E       		.uleb128 0xe
 5167 0b67 01       		.uleb128 0x1
 5168 0b68 51       		.byte	0x51
 5169 0b69 02       		.uleb128 0x2
 5170 0b6a 74       		.byte	0x74
 5171 0b6b 00       		.sleb128 0
 5172 0b6c 00       		.byte	0
 5173 0b6d 0D       		.uleb128 0xd
 5174 0b6e 4C000000 		.4byte	.LVL209
 5175 0b72 71160000 		.4byte	0x1671
 5176 0b76 810B0000 		.4byte	0xb81
 5177 0b7a 0E       		.uleb128 0xe
 5178 0b7b 01       		.uleb128 0x1
 5179 0b7c 50       		.byte	0x50
 5180 0b7d 02       		.uleb128 0x2
 5181 0b7e 08       		.byte	0x8
 5182 0b7f 23       		.byte	0x23
 5183 0b80 00       		.byte	0
 5184 0b81 15       		.uleb128 0x15
 5185 0b82 52000000 		.4byte	.LVL210
 5186 0b86 03160000 		.4byte	0x1603
 5187 0b8a 0E       		.uleb128 0xe
 5188 0b8b 01       		.uleb128 0x1
 5189 0b8c 50       		.byte	0x50
 5190 0b8d 02       		.uleb128 0x2
 5191 0b8e 08       		.byte	0x8
 5192 0b8f 64       		.byte	0x64
 5193 0b90 00       		.byte	0
 5194 0b91 00       		.byte	0
 5195 0b92 1B       		.uleb128 0x1b
 5196 0b93 5E000000 		.4byte	.LBB42
 5197 0b97 28000000 		.4byte	.LBE42-.LBB42
 5198 0b9b 040C0000 		.4byte	0xc04
 5199 0b9f 23       		.uleb128 0x23
 5200 0ba0 6900     		.ascii	"i\000"
ARM GAS  C:\Users\isaac\AppData\Local\Temp\cc1fpKCw.s 			page 112


 5201 0ba2 01       		.byte	0x1
 5202 0ba3 2A01     		.2byte	0x12a
 5203 0ba5 68000000 		.4byte	0x68
 5204 0ba9 07080000 		.4byte	.LLST50
 5205 0bad 0D       		.uleb128 0xd
 5206 0bae 6C000000 		.4byte	.LVL214
 5207 0bb2 66160000 		.4byte	0x1666
 5208 0bb6 C60B0000 		.4byte	0xbc6
 5209 0bba 0E       		.uleb128 0xe
 5210 0bbb 01       		.uleb128 0x1
 5211 0bbc 50       		.byte	0x50
 5212 0bbd 01       		.uleb128 0x1
 5213 0bbe 30       		.byte	0x30
 5214 0bbf 0E       		.uleb128 0xe
 5215 0bc0 01       		.uleb128 0x1
 5216 0bc1 51       		.byte	0x51
 5217 0bc2 02       		.uleb128 0x2
 5218 0bc3 75       		.byte	0x75
 5219 0bc4 00       		.sleb128 0
 5220 0bc5 00       		.byte	0
 5221 0bc6 0D       		.uleb128 0xd
 5222 0bc7 72000000 		.4byte	.LVL215
 5223 0bcb 71160000 		.4byte	0x1671
 5224 0bcf DA0B0000 		.4byte	0xbda
 5225 0bd3 0E       		.uleb128 0xe
 5226 0bd4 01       		.uleb128 0x1
 5227 0bd5 50       		.byte	0x50
 5228 0bd6 02       		.uleb128 0x2
 5229 0bd7 08       		.byte	0x8
 5230 0bd8 25       		.byte	0x25
 5231 0bd9 00       		.byte	0
 5232 0bda 0D       		.uleb128 0xd
 5233 0bdb 7A000000 		.4byte	.LVL216
 5234 0bdf 66160000 		.4byte	0x1666
 5235 0be3 F30B0000 		.4byte	0xbf3
 5236 0be7 0E       		.uleb128 0xe
 5237 0be8 01       		.uleb128 0x1
 5238 0be9 50       		.byte	0x50
 5239 0bea 01       		.uleb128 0x1
 5240 0beb 31       		.byte	0x31
 5241 0bec 0E       		.uleb128 0xe
 5242 0bed 01       		.uleb128 0x1
 5243 0bee 51       		.byte	0x51
 5244 0bef 02       		.uleb128 0x2
 5245 0bf0 75       		.byte	0x75
 5246 0bf1 00       		.sleb128 0
 5247 0bf2 00       		.byte	0
 5248 0bf3 15       		.uleb128 0x15
 5249 0bf4 80000000 		.4byte	.LVL217
 5250 0bf8 71160000 		.4byte	0x1671
 5251 0bfc 0E       		.uleb128 0xe
 5252 0bfd 01       		.uleb128 0x1
 5253 0bfe 50       		.byte	0x50
 5254 0bff 02       		.uleb128 0x2
 5255 0c00 08       		.byte	0x8
 5256 0c01 25       		.byte	0x25
 5257 0c02 00       		.byte	0
ARM GAS  C:\Users\isaac\AppData\Local\Temp\cc1fpKCw.s 			page 113


 5258 0c03 00       		.byte	0
 5259 0c04 0D       		.uleb128 0xd
 5260 0c05 5E000000 		.4byte	.LVL212
 5261 0c09 92160000 		.4byte	0x1692
 5262 0c0d 170C0000 		.4byte	0xc17
 5263 0c11 0E       		.uleb128 0xe
 5264 0c12 01       		.uleb128 0x1
 5265 0c13 50       		.byte	0x50
 5266 0c14 01       		.uleb128 0x1
 5267 0c15 31       		.byte	0x31
 5268 0c16 00       		.byte	0
 5269 0c17 0D       		.uleb128 0xd
 5270 0c18 8C000000 		.4byte	.LVL219
 5271 0c1c 03160000 		.4byte	0x1603
 5272 0c20 2B0C0000 		.4byte	0xc2b
 5273 0c24 0E       		.uleb128 0xe
 5274 0c25 01       		.uleb128 0x1
 5275 0c26 50       		.byte	0x50
 5276 0c27 02       		.uleb128 0x2
 5277 0c28 08       		.byte	0x8
 5278 0c29 64       		.byte	0x64
 5279 0c2a 00       		.byte	0
 5280 0c2b 15       		.uleb128 0x15
 5281 0c2c 92000000 		.4byte	.LVL220
 5282 0c30 92160000 		.4byte	0x1692
 5283 0c34 0E       		.uleb128 0xe
 5284 0c35 01       		.uleb128 0x1
 5285 0c36 50       		.byte	0x50
 5286 0c37 01       		.uleb128 0x1
 5287 0c38 31       		.byte	0x31
 5288 0c39 00       		.byte	0
 5289 0c3a 00       		.byte	0
 5290 0c3b 0C       		.uleb128 0xc
 5291 0c3c 18030000 		.4byte	.LASF63
 5292 0c40 01       		.byte	0x1
 5293 0c41 6D01     		.2byte	0x16d
 5294 0c43 00000000 		.4byte	.LFB88
 5295 0c47 2C000000 		.4byte	.LFE88-.LFB88
 5296 0c4b 01       		.uleb128 0x1
 5297 0c4c 9C       		.byte	0x9c
 5298 0c4d 820C0000 		.4byte	0xc82
 5299 0c51 25       		.uleb128 0x25
 5300 0c52 62030000 		.4byte	.LASF64
 5301 0c56 01       		.byte	0x1
 5302 0c57 6D01     		.2byte	0x16d
 5303 0c59 BC000000 		.4byte	0xbc
 5304 0c5d 01       		.uleb128 0x1
 5305 0c5e 50       		.byte	0x50
 5306 0c5f 23       		.uleb128 0x23
 5307 0c60 6A00     		.ascii	"j\000"
 5308 0c62 01       		.byte	0x1
 5309 0c63 6E01     		.2byte	0x16e
 5310 0c65 68000000 		.4byte	0x68
 5311 0c69 26080000 		.4byte	.LLST51
 5312 0c6d 18       		.uleb128 0x18
 5313 0c6e F0000000 		.4byte	.Ldebug_ranges0+0xf0
 5314 0c72 23       		.uleb128 0x23
ARM GAS  C:\Users\isaac\AppData\Local\Temp\cc1fpKCw.s 			page 114


 5315 0c73 6900     		.ascii	"i\000"
 5316 0c75 01       		.byte	0x1
 5317 0c76 6F01     		.2byte	0x16f
 5318 0c78 68000000 		.4byte	0x68
 5319 0c7c 45080000 		.4byte	.LLST52
 5320 0c80 00       		.byte	0
 5321 0c81 00       		.byte	0
 5322 0c82 0C       		.uleb128 0xc
 5323 0c83 42030000 		.4byte	.LASF65
 5324 0c87 01       		.byte	0x1
 5325 0c88 7D01     		.2byte	0x17d
 5326 0c8a 00000000 		.4byte	.LFB90
 5327 0c8e F4010000 		.4byte	.LFE90-.LFB90
 5328 0c92 01       		.uleb128 0x1
 5329 0c93 9C       		.byte	0x9c
 5330 0c94 000D0000 		.4byte	0xd00
 5331 0c98 1B       		.uleb128 0x1b
 5332 0c99 F0000000 		.4byte	.LBB45
 5333 0c9d 12000000 		.4byte	.LBE45-.LBB45
 5334 0ca1 B40C0000 		.4byte	0xcb4
 5335 0ca5 23       		.uleb128 0x23
 5336 0ca6 6900     		.ascii	"i\000"
 5337 0ca8 01       		.byte	0x1
 5338 0ca9 A301     		.2byte	0x1a3
 5339 0cab 68000000 		.4byte	0x68
 5340 0caf 64080000 		.4byte	.LLST53
 5341 0cb3 00       		.byte	0
 5342 0cb4 1B       		.uleb128 0x1b
 5343 0cb5 B8010000 		.4byte	.LBB46
 5344 0cb9 12000000 		.4byte	.LBE46-.LBB46
 5345 0cbd D00C0000 		.4byte	0xcd0
 5346 0cc1 23       		.uleb128 0x23
 5347 0cc2 6900     		.ascii	"i\000"
 5348 0cc4 01       		.byte	0x1
 5349 0cc5 BE01     		.2byte	0x1be
 5350 0cc7 68000000 		.4byte	0x68
 5351 0ccb 83080000 		.4byte	.LLST54
 5352 0ccf 00       		.byte	0
 5353 0cd0 0F       		.uleb128 0xf
 5354 0cd1 06000000 		.4byte	.LVL227
 5355 0cd5 B3160000 		.4byte	0x16b3
 5356 0cd9 0F       		.uleb128 0xf
 5357 0cda 0C010000 		.4byte	.LVL231
 5358 0cde 54070000 		.4byte	0x754
 5359 0ce2 0D       		.uleb128 0xd
 5360 0ce3 D4010000 		.4byte	.LVL235
 5361 0ce7 3B0C0000 		.4byte	0xc3b
 5362 0ceb F60C0000 		.4byte	0xcf6
 5363 0cef 0E       		.uleb128 0xe
 5364 0cf0 01       		.uleb128 0x1
 5365 0cf1 50       		.byte	0x50
 5366 0cf2 02       		.uleb128 0x2
 5367 0cf3 74       		.byte	0x74
 5368 0cf4 38       		.sleb128 56
 5369 0cf5 00       		.byte	0
 5370 0cf6 0F       		.uleb128 0xf
 5371 0cf7 E4010000 		.4byte	.LVL236
ARM GAS  C:\Users\isaac\AppData\Local\Temp\cc1fpKCw.s 			page 115


 5372 0cfb BE160000 		.4byte	0x16be
 5373 0cff 00       		.byte	0
 5374 0d00 24       		.uleb128 0x24
 5375 0d01 5C010000 		.4byte	.LASF66
 5376 0d05 01       		.byte	0x1
 5377 0d06 7601     		.2byte	0x176
 5378 0d08 00000000 		.4byte	.LFB89
 5379 0d0c 24000000 		.4byte	.LFE89-.LFB89
 5380 0d10 01       		.uleb128 0x1
 5381 0d11 9C       		.byte	0x9c
 5382 0d12 530D0000 		.4byte	0xd53
 5383 0d16 22       		.uleb128 0x22
 5384 0d17 86070000 		.4byte	.LASF67
 5385 0d1b 01       		.byte	0x1
 5386 0d1c 7701     		.2byte	0x177
 5387 0d1e C2000000 		.4byte	0xc2
 5388 0d22 02       		.uleb128 0x2
 5389 0d23 91       		.byte	0x91
 5390 0d24 60       		.sleb128 -32
 5391 0d25 0D       		.uleb128 0xd
 5392 0d26 10000000 		.4byte	.LVL237
 5393 0d2a C9160000 		.4byte	0x16c9
 5394 0d2e 420D0000 		.4byte	0xd42
 5395 0d32 0E       		.uleb128 0xe
 5396 0d33 01       		.uleb128 0x1
 5397 0d34 50       		.byte	0x50
 5398 0d35 02       		.uleb128 0x2
 5399 0d36 7D       		.byte	0x7d
 5400 0d37 00       		.sleb128 0
 5401 0d38 0E       		.uleb128 0xe
 5402 0d39 01       		.uleb128 0x1
 5403 0d3a 51       		.byte	0x51
 5404 0d3b 05       		.uleb128 0x5
 5405 0d3c 03       		.byte	0x3
 5406 0d3d 08000000 		.4byte	.LC1
 5407 0d41 00       		.byte	0
 5408 0d42 15       		.uleb128 0x15
 5409 0d43 16000000 		.4byte	.LVL238
 5410 0d47 D4160000 		.4byte	0x16d4
 5411 0d4b 0E       		.uleb128 0xe
 5412 0d4c 01       		.uleb128 0x1
 5413 0d4d 50       		.byte	0x50
 5414 0d4e 02       		.uleb128 0x2
 5415 0d4f 7D       		.byte	0x7d
 5416 0d50 00       		.sleb128 0
 5417 0d51 00       		.byte	0
 5418 0d52 00       		.byte	0
 5419 0d53 26       		.uleb128 0x26
 5420 0d54 FE060000 		.4byte	.LASF151
 5421 0d58 01       		.byte	0x1
 5422 0d59 46       		.byte	0x46
 5423 0d5a 68000000 		.4byte	0x68
 5424 0d5e 00000000 		.4byte	.LFB77
 5425 0d62 00030000 		.4byte	.LFE77-.LFB77
 5426 0d66 01       		.uleb128 0x1
 5427 0d67 9C       		.byte	0x9c
 5428 0d68 C4120000 		.4byte	0x12c4
ARM GAS  C:\Users\isaac\AppData\Local\Temp\cc1fpKCw.s 			page 116


 5429 0d6c 1B       		.uleb128 0x1b
 5430 0d6d 94000000 		.4byte	.LBB47
 5431 0d71 6C020000 		.4byte	.LBE47-.LBB47
 5432 0d75 11120000 		.4byte	0x1211
 5433 0d79 16       		.uleb128 0x16
 5434 0d7a 60050000 		.4byte	.LASF68
 5435 0d7e 01       		.byte	0x1
 5436 0d7f 5F       		.byte	0x5f
 5437 0d80 68000000 		.4byte	0x68
 5438 0d84 A2080000 		.4byte	.LLST55
 5439 0d88 17       		.uleb128 0x17
 5440 0d89 08010000 		.4byte	.Ldebug_ranges0+0x108
 5441 0d8d 9F0D0000 		.4byte	0xd9f
 5442 0d91 13       		.uleb128 0x13
 5443 0d92 6900     		.ascii	"i\000"
 5444 0d94 01       		.byte	0x1
 5445 0d95 60       		.byte	0x60
 5446 0d96 68000000 		.4byte	0x68
 5447 0d9a C1080000 		.4byte	.LLST56
 5448 0d9e 00       		.byte	0
 5449 0d9f 1B       		.uleb128 0x1b
 5450 0da0 36020000 		.4byte	.LBB50
 5451 0da4 6C000000 		.4byte	.LBE50-.LBB50
 5452 0da8 B50E0000 		.4byte	0xeb5
 5453 0dac 1D       		.uleb128 0x1d
 5454 0dad 6900     		.ascii	"i\000"
 5455 0daf 01       		.byte	0x1
 5456 0db0 C5       		.byte	0xc5
 5457 0db1 68000000 		.4byte	0x68
 5458 0db5 01       		.uleb128 0x1
 5459 0db6 54       		.byte	0x54
 5460 0db7 0D       		.uleb128 0xd
 5461 0db8 3C020000 		.4byte	.LVL312
 5462 0dbc 92160000 		.4byte	0x1692
 5463 0dc0 CA0D0000 		.4byte	0xdca
 5464 0dc4 0E       		.uleb128 0xe
 5465 0dc5 01       		.uleb128 0x1
 5466 0dc6 50       		.byte	0x50
 5467 0dc7 01       		.uleb128 0x1
 5468 0dc8 31       		.byte	0x31
 5469 0dc9 00       		.byte	0
 5470 0dca 0D       		.uleb128 0xd
 5471 0dcb 44020000 		.4byte	.LVL313
 5472 0dcf 66160000 		.4byte	0x1666
 5473 0dd3 E20D0000 		.4byte	0xde2
 5474 0dd7 0E       		.uleb128 0xe
 5475 0dd8 01       		.uleb128 0x1
 5476 0dd9 50       		.byte	0x50
 5477 0dda 01       		.uleb128 0x1
 5478 0ddb 30       		.byte	0x30
 5479 0ddc 0E       		.uleb128 0xe
 5480 0ddd 01       		.uleb128 0x1
 5481 0dde 51       		.byte	0x51
 5482 0ddf 01       		.uleb128 0x1
 5483 0de0 30       		.byte	0x30
 5484 0de1 00       		.byte	0
 5485 0de2 0D       		.uleb128 0xd
ARM GAS  C:\Users\isaac\AppData\Local\Temp\cc1fpKCw.s 			page 117


 5486 0de3 4C020000 		.4byte	.LVL314
 5487 0de7 7C160000 		.4byte	0x167c
 5488 0deb F90D0000 		.4byte	0xdf9
 5489 0def 0E       		.uleb128 0xe
 5490 0df0 01       		.uleb128 0x1
 5491 0df1 50       		.byte	0x50
 5492 0df2 05       		.uleb128 0x5
 5493 0df3 03       		.byte	0x3
 5494 0df4 64000000 		.4byte	.LC9
 5495 0df8 00       		.byte	0
 5496 0df9 0D       		.uleb128 0xd
 5497 0dfa 56020000 		.4byte	.LVL315
 5498 0dfe 7C160000 		.4byte	0x167c
 5499 0e02 100E0000 		.4byte	0xe10
 5500 0e06 0E       		.uleb128 0xe
 5501 0e07 01       		.uleb128 0x1
 5502 0e08 50       		.byte	0x50
 5503 0e09 05       		.uleb128 0x5
 5504 0e0a 03       		.byte	0x3
 5505 0e0b 74000000 		.4byte	.LC10
 5506 0e0f 00       		.byte	0
 5507 0e10 0D       		.uleb128 0xd
 5508 0e11 60020000 		.4byte	.LVL316
 5509 0e15 7C160000 		.4byte	0x167c
 5510 0e19 270E0000 		.4byte	0xe27
 5511 0e1d 0E       		.uleb128 0xe
 5512 0e1e 01       		.uleb128 0x1
 5513 0e1f 50       		.byte	0x50
 5514 0e20 05       		.uleb128 0x5
 5515 0e21 03       		.byte	0x3
 5516 0e22 84000000 		.4byte	.LC11
 5517 0e26 00       		.byte	0
 5518 0e27 0D       		.uleb128 0xd
 5519 0e28 68020000 		.4byte	.LVL317
 5520 0e2c 66160000 		.4byte	0x1666
 5521 0e30 3F0E0000 		.4byte	0xe3f
 5522 0e34 0E       		.uleb128 0xe
 5523 0e35 01       		.uleb128 0x1
 5524 0e36 50       		.byte	0x50
 5525 0e37 01       		.uleb128 0x1
 5526 0e38 31       		.byte	0x31
 5527 0e39 0E       		.uleb128 0xe
 5528 0e3a 01       		.uleb128 0x1
 5529 0e3b 51       		.byte	0x51
 5530 0e3c 01       		.uleb128 0x1
 5531 0e3d 30       		.byte	0x30
 5532 0e3e 00       		.byte	0
 5533 0e3f 0D       		.uleb128 0xd
 5534 0e40 78020000 		.4byte	.LVL318
 5535 0e44 7C160000 		.4byte	0x167c
 5536 0e48 530E0000 		.4byte	0xe53
 5537 0e4c 0E       		.uleb128 0xe
 5538 0e4d 01       		.uleb128 0x1
 5539 0e4e 50       		.byte	0x50
 5540 0e4f 02       		.uleb128 0x2
 5541 0e50 75       		.byte	0x75
 5542 0e51 00       		.sleb128 0
ARM GAS  C:\Users\isaac\AppData\Local\Temp\cc1fpKCw.s 			page 118


 5543 0e52 00       		.byte	0
 5544 0e53 0D       		.uleb128 0xd
 5545 0e54 80020000 		.4byte	.LVL319
 5546 0e58 66160000 		.4byte	0x1666
 5547 0e5c 6B0E0000 		.4byte	0xe6b
 5548 0e60 0E       		.uleb128 0xe
 5549 0e61 01       		.uleb128 0x1
 5550 0e62 50       		.byte	0x50
 5551 0e63 01       		.uleb128 0x1
 5552 0e64 31       		.byte	0x31
 5553 0e65 0E       		.uleb128 0xe
 5554 0e66 01       		.uleb128 0x1
 5555 0e67 51       		.byte	0x51
 5556 0e68 01       		.uleb128 0x1
 5557 0e69 36       		.byte	0x36
 5558 0e6a 00       		.byte	0
 5559 0e6b 0D       		.uleb128 0xd
 5560 0e6c 86020000 		.4byte	.LVL320
 5561 0e70 7C160000 		.4byte	0x167c
 5562 0e74 820E0000 		.4byte	0xe82
 5563 0e78 0E       		.uleb128 0xe
 5564 0e79 01       		.uleb128 0x1
 5565 0e7a 50       		.byte	0x50
 5566 0e7b 05       		.uleb128 0x5
 5567 0e7c 03       		.byte	0x3
 5568 0e7d 4C000000 		.4byte	.LC7
 5569 0e81 00       		.byte	0
 5570 0e82 0D       		.uleb128 0xd
 5571 0e83 8E020000 		.4byte	.LVL321
 5572 0e87 66160000 		.4byte	0x1666
 5573 0e8b 9A0E0000 		.4byte	0xe9a
 5574 0e8f 0E       		.uleb128 0xe
 5575 0e90 01       		.uleb128 0x1
 5576 0e91 50       		.byte	0x50
 5577 0e92 01       		.uleb128 0x1
 5578 0e93 31       		.byte	0x31
 5579 0e94 0E       		.uleb128 0xe
 5580 0e95 01       		.uleb128 0x1
 5581 0e96 51       		.byte	0x51
 5582 0e97 01       		.uleb128 0x1
 5583 0e98 39       		.byte	0x39
 5584 0e99 00       		.byte	0
 5585 0e9a 0F       		.uleb128 0xf
 5586 0e9b 94020000 		.4byte	.LVL322
 5587 0e9f 87160000 		.4byte	0x1687
 5588 0ea3 15       		.uleb128 0x15
 5589 0ea4 9C020000 		.4byte	.LVL323
 5590 0ea8 03160000 		.4byte	0x1603
 5591 0eac 0E       		.uleb128 0xe
 5592 0ead 01       		.uleb128 0x1
 5593 0eae 50       		.byte	0x50
 5594 0eaf 03       		.uleb128 0x3
 5595 0eb0 0A       		.byte	0xa
 5596 0eb1 D007     		.2byte	0x7d0
 5597 0eb3 00       		.byte	0
 5598 0eb4 00       		.byte	0
 5599 0eb5 0F       		.uleb128 0xf
ARM GAS  C:\Users\isaac\AppData\Local\Temp\cc1fpKCw.s 			page 119


 5600 0eb6 98000000 		.4byte	.LVL251
 5601 0eba 9D090000 		.4byte	0x99d
 5602 0ebe 0F       		.uleb128 0xf
 5603 0ebf B4000000 		.4byte	.LVL257
 5604 0ec3 BA080000 		.4byte	0x8ba
 5605 0ec7 0D       		.uleb128 0xd
 5606 0ec8 C2000000 		.4byte	.LVL258
 5607 0ecc 92160000 		.4byte	0x1692
 5608 0ed0 DA0E0000 		.4byte	0xeda
 5609 0ed4 0E       		.uleb128 0xe
 5610 0ed5 01       		.uleb128 0x1
 5611 0ed6 50       		.byte	0x50
 5612 0ed7 01       		.uleb128 0x1
 5613 0ed8 31       		.byte	0x31
 5614 0ed9 00       		.byte	0
 5615 0eda 0D       		.uleb128 0xd
 5616 0edb C8000000 		.4byte	.LVL259
 5617 0edf 16050000 		.4byte	0x516
 5618 0ee3 F10E0000 		.4byte	0xef1
 5619 0ee7 0E       		.uleb128 0xe
 5620 0ee8 01       		.uleb128 0x1
 5621 0ee9 50       		.byte	0x50
 5622 0eea 05       		.uleb128 0x5
 5623 0eeb 03       		.byte	0x3
 5624 0eec 58000000 		.4byte	.LANCHOR0+88
 5625 0ef0 00       		.byte	0
 5626 0ef1 0D       		.uleb128 0xd
 5627 0ef2 D0000000 		.4byte	.LVL260
 5628 0ef6 66160000 		.4byte	0x1666
 5629 0efa 090F0000 		.4byte	0xf09
 5630 0efe 0E       		.uleb128 0xe
 5631 0eff 01       		.uleb128 0x1
 5632 0f00 50       		.byte	0x50
 5633 0f01 01       		.uleb128 0x1
 5634 0f02 30       		.byte	0x30
 5635 0f03 0E       		.uleb128 0xe
 5636 0f04 01       		.uleb128 0x1
 5637 0f05 51       		.byte	0x51
 5638 0f06 01       		.uleb128 0x1
 5639 0f07 30       		.byte	0x30
 5640 0f08 00       		.byte	0
 5641 0f09 0D       		.uleb128 0xd
 5642 0f0a D6000000 		.4byte	.LVL261
 5643 0f0e 7C160000 		.4byte	0x167c
 5644 0f12 200F0000 		.4byte	0xf20
 5645 0f16 0E       		.uleb128 0xe
 5646 0f17 01       		.uleb128 0x1
 5647 0f18 50       		.byte	0x50
 5648 0f19 05       		.uleb128 0x5
 5649 0f1a 03       		.byte	0x3
 5650 0f1b 14000000 		.4byte	.LC2
 5651 0f1f 00       		.byte	0
 5652 0f20 0D       		.uleb128 0xd
 5653 0f21 DE000000 		.4byte	.LVL262
 5654 0f25 66160000 		.4byte	0x1666
 5655 0f29 380F0000 		.4byte	0xf38
 5656 0f2d 0E       		.uleb128 0xe
ARM GAS  C:\Users\isaac\AppData\Local\Temp\cc1fpKCw.s 			page 120


 5657 0f2e 01       		.uleb128 0x1
 5658 0f2f 50       		.byte	0x50
 5659 0f30 01       		.uleb128 0x1
 5660 0f31 31       		.byte	0x31
 5661 0f32 0E       		.uleb128 0xe
 5662 0f33 01       		.uleb128 0x1
 5663 0f34 51       		.byte	0x51
 5664 0f35 01       		.uleb128 0x1
 5665 0f36 30       		.byte	0x30
 5666 0f37 00       		.byte	0
 5667 0f38 0D       		.uleb128 0xd
 5668 0f39 E4000000 		.4byte	.LVL263
 5669 0f3d 7C160000 		.4byte	0x167c
 5670 0f41 4F0F0000 		.4byte	0xf4f
 5671 0f45 0E       		.uleb128 0xe
 5672 0f46 01       		.uleb128 0x1
 5673 0f47 50       		.byte	0x50
 5674 0f48 05       		.uleb128 0x5
 5675 0f49 03       		.byte	0x3
 5676 0f4a 20000000 		.4byte	.LC3
 5677 0f4e 00       		.byte	0
 5678 0f4f 0D       		.uleb128 0xd
 5679 0f50 EC000000 		.4byte	.LVL264
 5680 0f54 03160000 		.4byte	0x1603
 5681 0f58 620F0000 		.4byte	0xf62
 5682 0f5c 0E       		.uleb128 0xe
 5683 0f5d 01       		.uleb128 0x1
 5684 0f5e 50       		.byte	0x50
 5685 0f5f 01       		.uleb128 0x1
 5686 0f60 35       		.byte	0x35
 5687 0f61 00       		.byte	0
 5688 0f62 0F       		.uleb128 0xf
 5689 0f63 F8000000 		.4byte	.LVL265
 5690 0f67 9C0A0000 		.4byte	0xa9c
 5691 0f6b 0F       		.uleb128 0xf
 5692 0f6c FC000000 		.4byte	.LVL266
 5693 0f70 DF160000 		.4byte	0x16df
 5694 0f74 0D       		.uleb128 0xd
 5695 0f75 04010000 		.4byte	.LVL267
 5696 0f79 EA160000 		.4byte	0x16ea
 5697 0f7d 890F0000 		.4byte	0xf89
 5698 0f81 0E       		.uleb128 0xe
 5699 0f82 01       		.uleb128 0x1
 5700 0f83 50       		.byte	0x50
 5701 0f84 03       		.uleb128 0x3
 5702 0f85 0A       		.byte	0xa
 5703 0f86 E803     		.2byte	0x3e8
 5704 0f88 00       		.byte	0
 5705 0f89 0F       		.uleb128 0xf
 5706 0f8a 0E010000 		.4byte	.LVL268
 5707 0f8e 000D0000 		.4byte	0xd00
 5708 0f92 0F       		.uleb128 0xf
 5709 0f93 14010000 		.4byte	.LVL269
 5710 0f97 F5160000 		.4byte	0x16f5
 5711 0f9b 0F       		.uleb128 0xf
 5712 0f9c 18010000 		.4byte	.LVL270
 5713 0fa0 9C0A0000 		.4byte	0xa9c
ARM GAS  C:\Users\isaac\AppData\Local\Temp\cc1fpKCw.s 			page 121


 5714 0fa4 0F       		.uleb128 0xf
 5715 0fa5 1C010000 		.4byte	.LVL271
 5716 0fa9 00170000 		.4byte	0x1700
 5717 0fad 0D       		.uleb128 0xd
 5718 0fae 36010000 		.4byte	.LVL272
 5719 0fb2 66160000 		.4byte	0x1666
 5720 0fb6 C50F0000 		.4byte	0xfc5
 5721 0fba 0E       		.uleb128 0xe
 5722 0fbb 01       		.uleb128 0x1
 5723 0fbc 50       		.byte	0x50
 5724 0fbd 01       		.uleb128 0x1
 5725 0fbe 30       		.byte	0x30
 5726 0fbf 0E       		.uleb128 0xe
 5727 0fc0 01       		.uleb128 0x1
 5728 0fc1 51       		.byte	0x51
 5729 0fc2 01       		.uleb128 0x1
 5730 0fc3 34       		.byte	0x34
 5731 0fc4 00       		.byte	0
 5732 0fc5 0D       		.uleb128 0xd
 5733 0fc6 3C010000 		.4byte	.LVL273
 5734 0fca 7C160000 		.4byte	0x167c
 5735 0fce DC0F0000 		.4byte	0xfdc
 5736 0fd2 0E       		.uleb128 0xe
 5737 0fd3 01       		.uleb128 0x1
 5738 0fd4 50       		.byte	0x50
 5739 0fd5 05       		.uleb128 0x5
 5740 0fd6 03       		.byte	0x3
 5741 0fd7 30000000 		.4byte	.LC4
 5742 0fdb 00       		.byte	0
 5743 0fdc 0D       		.uleb128 0xd
 5744 0fdd 42010000 		.4byte	.LVL274
 5745 0fe1 03160000 		.4byte	0x1603
 5746 0fe5 F00F0000 		.4byte	0xff0
 5747 0fe9 0E       		.uleb128 0xe
 5748 0fea 01       		.uleb128 0x1
 5749 0feb 50       		.byte	0x50
 5750 0fec 02       		.uleb128 0x2
 5751 0fed 08       		.byte	0x8
 5752 0fee FA       		.byte	0xfa
 5753 0fef 00       		.byte	0
 5754 0ff0 0F       		.uleb128 0xf
 5755 0ff1 46010000 		.4byte	.LVL275
 5756 0ff5 0B170000 		.4byte	0x170b
 5757 0ff9 0F       		.uleb128 0xf
 5758 0ffa 4A010000 		.4byte	.LVL276
 5759 0ffe 16170000 		.4byte	0x1716
 5760 1002 0F       		.uleb128 0xf
 5761 1003 4E010000 		.4byte	.LVL277
 5762 1007 21170000 		.4byte	0x1721
 5763 100b 0F       		.uleb128 0xf
 5764 100c 52010000 		.4byte	.LVL278
 5765 1010 2C170000 		.4byte	0x172c
 5766 1014 0F       		.uleb128 0xf
 5767 1015 56010000 		.4byte	.LVL279
 5768 1019 37170000 		.4byte	0x1737
 5769 101d 0F       		.uleb128 0xf
 5770 101e 5A010000 		.4byte	.LVL280
ARM GAS  C:\Users\isaac\AppData\Local\Temp\cc1fpKCw.s 			page 122


 5771 1022 42170000 		.4byte	0x1742
 5772 1026 0F       		.uleb128 0xf
 5773 1027 5E010000 		.4byte	.LVL281
 5774 102b 4D170000 		.4byte	0x174d
 5775 102f 0F       		.uleb128 0xf
 5776 1030 6E010000 		.4byte	.LVL282
 5777 1034 58170000 		.4byte	0x1758
 5778 1038 0D       		.uleb128 0xd
 5779 1039 78010000 		.4byte	.LVL283
 5780 103d 66160000 		.4byte	0x1666
 5781 1041 50100000 		.4byte	0x1050
 5782 1045 0E       		.uleb128 0xe
 5783 1046 01       		.uleb128 0x1
 5784 1047 50       		.byte	0x50
 5785 1048 01       		.uleb128 0x1
 5786 1049 30       		.byte	0x30
 5787 104a 0E       		.uleb128 0xe
 5788 104b 01       		.uleb128 0x1
 5789 104c 51       		.byte	0x51
 5790 104d 01       		.uleb128 0x1
 5791 104e 34       		.byte	0x34
 5792 104f 00       		.byte	0
 5793 1050 0D       		.uleb128 0xd
 5794 1051 7E010000 		.4byte	.LVL284
 5795 1055 7C160000 		.4byte	0x167c
 5796 1059 67100000 		.4byte	0x1067
 5797 105d 0E       		.uleb128 0xe
 5798 105e 01       		.uleb128 0x1
 5799 105f 50       		.byte	0x50
 5800 1060 05       		.uleb128 0x5
 5801 1061 03       		.byte	0x3
 5802 1062 38000000 		.4byte	.LC5
 5803 1066 00       		.byte	0
 5804 1067 0D       		.uleb128 0xd
 5805 1068 84010000 		.4byte	.LVL285
 5806 106c 03160000 		.4byte	0x1603
 5807 1070 7B100000 		.4byte	0x107b
 5808 1074 0E       		.uleb128 0xe
 5809 1075 01       		.uleb128 0x1
 5810 1076 50       		.byte	0x50
 5811 1077 02       		.uleb128 0x2
 5812 1078 08       		.byte	0x8
 5813 1079 96       		.byte	0x96
 5814 107a 00       		.byte	0
 5815 107b 0D       		.uleb128 0xd
 5816 107c 8A010000 		.4byte	.LVL286
 5817 1080 92160000 		.4byte	0x1692
 5818 1084 8E100000 		.4byte	0x108e
 5819 1088 0E       		.uleb128 0xe
 5820 1089 01       		.uleb128 0x1
 5821 108a 50       		.byte	0x50
 5822 108b 01       		.uleb128 0x1
 5823 108c 31       		.byte	0x31
 5824 108d 00       		.byte	0
 5825 108e 0D       		.uleb128 0xd
 5826 108f 90010000 		.4byte	.LVL287
 5827 1093 03160000 		.4byte	0x1603
ARM GAS  C:\Users\isaac\AppData\Local\Temp\cc1fpKCw.s 			page 123


 5828 1097 A2100000 		.4byte	0x10a2
 5829 109b 0E       		.uleb128 0xe
 5830 109c 01       		.uleb128 0x1
 5831 109d 50       		.byte	0x50
 5832 109e 02       		.uleb128 0x2
 5833 109f 08       		.byte	0x8
 5834 10a0 96       		.byte	0x96
 5835 10a1 00       		.byte	0
 5836 10a2 0F       		.uleb128 0xf
 5837 10a3 9C010000 		.4byte	.LVL288
 5838 10a7 63170000 		.4byte	0x1763
 5839 10ab 0F       		.uleb128 0xf
 5840 10ac A0010000 		.4byte	.LVL289
 5841 10b0 9C0A0000 		.4byte	0xa9c
 5842 10b4 0F       		.uleb128 0xf
 5843 10b5 A4010000 		.4byte	.LVL290
 5844 10b9 58170000 		.4byte	0x1758
 5845 10bd 0F       		.uleb128 0xf
 5846 10be AE010000 		.4byte	.LVL291
 5847 10c2 000D0000 		.4byte	0xd00
 5848 10c6 0F       		.uleb128 0xf
 5849 10c7 B4010000 		.4byte	.LVL292
 5850 10cb 9C0A0000 		.4byte	0xa9c
 5851 10cf 0D       		.uleb128 0xd
 5852 10d0 BC010000 		.4byte	.LVL293
 5853 10d4 66160000 		.4byte	0x1666
 5854 10d8 E7100000 		.4byte	0x10e7
 5855 10dc 0E       		.uleb128 0xe
 5856 10dd 01       		.uleb128 0x1
 5857 10de 50       		.byte	0x50
 5858 10df 01       		.uleb128 0x1
 5859 10e0 30       		.byte	0x30
 5860 10e1 0E       		.uleb128 0xe
 5861 10e2 01       		.uleb128 0x1
 5862 10e3 51       		.byte	0x51
 5863 10e4 01       		.uleb128 0x1
 5864 10e5 33       		.byte	0x33
 5865 10e6 00       		.byte	0
 5866 10e7 0D       		.uleb128 0xd
 5867 10e8 C2010000 		.4byte	.LVL294
 5868 10ec 7C160000 		.4byte	0x167c
 5869 10f0 FE100000 		.4byte	0x10fe
 5870 10f4 0E       		.uleb128 0xe
 5871 10f5 01       		.uleb128 0x1
 5872 10f6 50       		.byte	0x50
 5873 10f7 05       		.uleb128 0x5
 5874 10f8 03       		.byte	0x3
 5875 10f9 40000000 		.4byte	.LC6
 5876 10fd 00       		.byte	0
 5877 10fe 0D       		.uleb128 0xd
 5878 10ff CA010000 		.4byte	.LVL295
 5879 1103 66160000 		.4byte	0x1666
 5880 1107 16110000 		.4byte	0x1116
 5881 110b 0E       		.uleb128 0xe
 5882 110c 01       		.uleb128 0x1
 5883 110d 50       		.byte	0x50
 5884 110e 01       		.uleb128 0x1
ARM GAS  C:\Users\isaac\AppData\Local\Temp\cc1fpKCw.s 			page 124


 5885 110f 31       		.byte	0x31
 5886 1110 0E       		.uleb128 0xe
 5887 1111 01       		.uleb128 0x1
 5888 1112 51       		.byte	0x51
 5889 1113 01       		.uleb128 0x1
 5890 1114 30       		.byte	0x30
 5891 1115 00       		.byte	0
 5892 1116 0D       		.uleb128 0xd
 5893 1117 D2010000 		.4byte	.LVL296
 5894 111b 7C160000 		.4byte	0x167c
 5895 111f 2A110000 		.4byte	0x112a
 5896 1123 0E       		.uleb128 0xe
 5897 1124 01       		.uleb128 0x1
 5898 1125 50       		.byte	0x50
 5899 1126 02       		.uleb128 0x2
 5900 1127 74       		.byte	0x74
 5901 1128 04       		.sleb128 4
 5902 1129 00       		.byte	0
 5903 112a 0D       		.uleb128 0xd
 5904 112b DA010000 		.4byte	.LVL297
 5905 112f 66160000 		.4byte	0x1666
 5906 1133 42110000 		.4byte	0x1142
 5907 1137 0E       		.uleb128 0xe
 5908 1138 01       		.uleb128 0x1
 5909 1139 50       		.byte	0x50
 5910 113a 01       		.uleb128 0x1
 5911 113b 31       		.byte	0x31
 5912 113c 0E       		.uleb128 0xe
 5913 113d 01       		.uleb128 0x1
 5914 113e 51       		.byte	0x51
 5915 113f 01       		.uleb128 0x1
 5916 1140 36       		.byte	0x36
 5917 1141 00       		.byte	0
 5918 1142 0D       		.uleb128 0xd
 5919 1143 E0010000 		.4byte	.LVL298
 5920 1147 7C160000 		.4byte	0x167c
 5921 114b 59110000 		.4byte	0x1159
 5922 114f 0E       		.uleb128 0xe
 5923 1150 01       		.uleb128 0x1
 5924 1151 50       		.byte	0x50
 5925 1152 05       		.uleb128 0x5
 5926 1153 03       		.byte	0x3
 5927 1154 4C000000 		.4byte	.LC7
 5928 1158 00       		.byte	0
 5929 1159 0D       		.uleb128 0xd
 5930 115a E8010000 		.4byte	.LVL299
 5931 115e 66160000 		.4byte	0x1666
 5932 1162 71110000 		.4byte	0x1171
 5933 1166 0E       		.uleb128 0xe
 5934 1167 01       		.uleb128 0x1
 5935 1168 50       		.byte	0x50
 5936 1169 01       		.uleb128 0x1
 5937 116a 31       		.byte	0x31
 5938 116b 0E       		.uleb128 0xe
 5939 116c 01       		.uleb128 0x1
 5940 116d 51       		.byte	0x51
 5941 116e 01       		.uleb128 0x1
ARM GAS  C:\Users\isaac\AppData\Local\Temp\cc1fpKCw.s 			page 125


 5942 116f 39       		.byte	0x39
 5943 1170 00       		.byte	0
 5944 1171 0F       		.uleb128 0xf
 5945 1172 F0010000 		.4byte	.LVL300
 5946 1176 87160000 		.4byte	0x1687
 5947 117a 0D       		.uleb128 0xd
 5948 117b F6010000 		.4byte	.LVL301
 5949 117f 03160000 		.4byte	0x1603
 5950 1183 8E110000 		.4byte	0x118e
 5951 1187 0E       		.uleb128 0xe
 5952 1188 01       		.uleb128 0x1
 5953 1189 50       		.byte	0x50
 5954 118a 02       		.uleb128 0x2
 5955 118b 08       		.byte	0x8
 5956 118c 32       		.byte	0x32
 5957 118d 00       		.byte	0
 5958 118e 0F       		.uleb128 0xf
 5959 118f FE010000 		.4byte	.LVL302
 5960 1193 000D0000 		.4byte	0xd00
 5961 1197 0F       		.uleb128 0xf
 5962 1198 04020000 		.4byte	.LVL303
 5963 119c 9C0A0000 		.4byte	0xa9c
 5964 11a0 0D       		.uleb128 0xd
 5965 11a1 0C020000 		.4byte	.LVL304
 5966 11a5 66160000 		.4byte	0x1666
 5967 11a9 B8110000 		.4byte	0x11b8
 5968 11ad 0E       		.uleb128 0xe
 5969 11ae 01       		.uleb128 0x1
 5970 11af 50       		.byte	0x50
 5971 11b0 01       		.uleb128 0x1
 5972 11b1 30       		.byte	0x30
 5973 11b2 0E       		.uleb128 0xe
 5974 11b3 01       		.uleb128 0x1
 5975 11b4 51       		.byte	0x51
 5976 11b5 01       		.uleb128 0x1
 5977 11b6 30       		.byte	0x30
 5978 11b7 00       		.byte	0
 5979 11b8 0D       		.uleb128 0xd
 5980 11b9 12020000 		.4byte	.LVL305
 5981 11bd 7C160000 		.4byte	0x167c
 5982 11c1 CF110000 		.4byte	0x11cf
 5983 11c5 0E       		.uleb128 0xe
 5984 11c6 01       		.uleb128 0x1
 5985 11c7 50       		.byte	0x50
 5986 11c8 05       		.uleb128 0x5
 5987 11c9 03       		.byte	0x3
 5988 11ca 50000000 		.4byte	.LC8
 5989 11ce 00       		.byte	0
 5990 11cf 0D       		.uleb128 0xd
 5991 11d0 18020000 		.4byte	.LVL306
 5992 11d4 03160000 		.4byte	0x1603
 5993 11d8 E3110000 		.4byte	0x11e3
 5994 11dc 0E       		.uleb128 0xe
 5995 11dd 01       		.uleb128 0x1
 5996 11de 50       		.byte	0x50
 5997 11df 02       		.uleb128 0x2
 5998 11e0 08       		.byte	0x8
ARM GAS  C:\Users\isaac\AppData\Local\Temp\cc1fpKCw.s 			page 126


 5999 11e1 32       		.byte	0x32
 6000 11e2 00       		.byte	0
 6001 11e3 0F       		.uleb128 0xf
 6002 11e4 22020000 		.4byte	.LVL307
 6003 11e8 000D0000 		.4byte	0xd00
 6004 11ec 0F       		.uleb128 0xf
 6005 11ed 28020000 		.4byte	.LVL308
 6006 11f1 080A0000 		.4byte	0xa08
 6007 11f5 0F       		.uleb128 0xf
 6008 11f6 2E020000 		.4byte	.LVL309
 6009 11fa 32090000 		.4byte	0x932
 6010 11fe 0F       		.uleb128 0xf
 6011 11ff 32020000 		.4byte	.LVL310
 6012 1203 9D090000 		.4byte	0x99d
 6013 1207 0F       		.uleb128 0xf
 6014 1208 B2020000 		.4byte	.LVL325
 6015 120c 000D0000 		.4byte	0xd00
 6016 1210 00       		.byte	0
 6017 1211 0F       		.uleb128 0xf
 6018 1212 08000000 		.4byte	.LVL239
 6019 1216 6E170000 		.4byte	0x176e
 6020 121a 0F       		.uleb128 0xf
 6021 121b 0C000000 		.4byte	.LVL240
 6022 121f 79170000 		.4byte	0x1779
 6023 1223 0F       		.uleb128 0xf
 6024 1224 10000000 		.4byte	.LVL241
 6025 1228 84170000 		.4byte	0x1784
 6026 122c 0F       		.uleb128 0xf
 6027 122d 14000000 		.4byte	.LVL242
 6028 1231 8F170000 		.4byte	0x178f
 6029 1235 0D       		.uleb128 0xd
 6030 1236 1A000000 		.4byte	.LVL243
 6031 123a 9A170000 		.4byte	0x179a
 6032 123e 4C120000 		.4byte	0x124c
 6033 1242 0E       		.uleb128 0xe
 6034 1243 01       		.uleb128 0x1
 6035 1244 50       		.byte	0x50
 6036 1245 05       		.uleb128 0x5
 6037 1246 03       		.byte	0x3
 6038 1247 00000000 		.4byte	com_handler
 6039 124b 00       		.byte	0
 6040 124c 0D       		.uleb128 0xd
 6041 124d 20000000 		.4byte	.LVL244
 6042 1251 A5170000 		.4byte	0x17a5
 6043 1255 63120000 		.4byte	0x1263
 6044 1259 0E       		.uleb128 0xe
 6045 125a 01       		.uleb128 0x1
 6046 125b 50       		.byte	0x50
 6047 125c 05       		.uleb128 0x5
 6048 125d 03       		.byte	0x3
 6049 125e 00000000 		.4byte	pause_handler
 6050 1262 00       		.byte	0
 6051 1263 0D       		.uleb128 0xd
 6052 1264 26000000 		.4byte	.LVL245
 6053 1268 B0170000 		.4byte	0x17b0
 6054 126c 7A120000 		.4byte	0x127a
 6055 1270 0E       		.uleb128 0xe
ARM GAS  C:\Users\isaac\AppData\Local\Temp\cc1fpKCw.s 			page 127


 6056 1271 01       		.uleb128 0x1
 6057 1272 50       		.byte	0x50
 6058 1273 05       		.uleb128 0x5
 6059 1274 03       		.byte	0x3
 6060 1275 00000000 		.4byte	resume_handler
 6061 1279 00       		.byte	0
 6062 127a 0D       		.uleb128 0xd
 6063 127b 2C000000 		.4byte	.LVL246
 6064 127f BB170000 		.4byte	0x17bb
 6065 1283 91120000 		.4byte	0x1291
 6066 1287 0E       		.uleb128 0xe
 6067 1288 01       		.uleb128 0x1
 6068 1289 50       		.byte	0x50
 6069 128a 05       		.uleb128 0x5
 6070 128b 03       		.byte	0x3
 6071 128c 00000000 		.4byte	real_handler
 6072 1290 00       		.byte	0
 6073 1291 0D       		.uleb128 0xd
 6074 1292 32000000 		.4byte	.LVL247
 6075 1296 C6170000 		.4byte	0x17c6
 6076 129a A8120000 		.4byte	0x12a8
 6077 129e 0E       		.uleb128 0xe
 6078 129f 01       		.uleb128 0x1
 6079 12a0 50       		.byte	0x50
 6080 12a1 05       		.uleb128 0x5
 6081 12a2 03       		.byte	0x3
 6082 12a3 00000000 		.4byte	tic_handler
 6083 12a7 00       		.byte	0
 6084 12a8 0F       		.uleb128 0xf
 6085 12a9 36000000 		.4byte	.LVL248
 6086 12ad D1170000 		.4byte	0x17d1
 6087 12b1 0F       		.uleb128 0xf
 6088 12b2 3A000000 		.4byte	.LVL249
 6089 12b6 DC170000 		.4byte	0x17dc
 6090 12ba 0F       		.uleb128 0xf
 6091 12bb 3E000000 		.4byte	.LVL250
 6092 12bf E7170000 		.4byte	0x17e7
 6093 12c3 00       		.byte	0
 6094 12c4 0C       		.uleb128 0xc
 6095 12c5 76010000 		.4byte	.LASF69
 6096 12c9 01       		.byte	0x1
 6097 12ca 4601     		.2byte	0x146
 6098 12cc 00000000 		.4byte	.LFB86
 6099 12d0 74000000 		.4byte	.LFE86-.LFB86
 6100 12d4 01       		.uleb128 0x1
 6101 12d5 9C       		.byte	0x9c
 6102 12d6 78130000 		.4byte	0x1378
 6103 12da 1B       		.uleb128 0x1b
 6104 12db 0A000000 		.4byte	.LBB51
 6105 12df 38000000 		.4byte	.LBE51-.LBB51
 6106 12e3 3E130000 		.4byte	0x133e
 6107 12e7 27       		.uleb128 0x27
 6108 12e8 73070000 		.4byte	.LASF70
 6109 12ec 01       		.byte	0x1
 6110 12ed 4C01     		.2byte	0x14c
 6111 12ef 57080000 		.4byte	0x857
 6112 12f3 EB080000 		.4byte	.LLST57
ARM GAS  C:\Users\isaac\AppData\Local\Temp\cc1fpKCw.s 			page 128


 6113 12f7 0D       		.uleb128 0xd
 6114 12f8 12000000 		.4byte	.LVL326
 6115 12fc FA010000 		.4byte	0x1fa
 6116 1300 10130000 		.4byte	0x1310
 6117 1304 0E       		.uleb128 0xe
 6118 1305 01       		.uleb128 0x1
 6119 1306 50       		.byte	0x50
 6120 1307 01       		.uleb128 0x1
 6121 1308 30       		.byte	0x30
 6122 1309 0E       		.uleb128 0xe
 6123 130a 01       		.uleb128 0x1
 6124 130b 51       		.byte	0x51
 6125 130c 02       		.uleb128 0x2
 6126 130d 08       		.byte	0x8
 6127 130e 64       		.byte	0x64
 6128 130f 00       		.byte	0
 6129 1310 0F       		.uleb128 0xf
 6130 1311 1A000000 		.4byte	.LVL327
 6131 1315 72050000 		.4byte	0x572
 6132 1319 0F       		.uleb128 0xf
 6133 131a 1E000000 		.4byte	.LVL328
 6134 131e 77070000 		.4byte	0x777
 6135 1322 0F       		.uleb128 0xf
 6136 1323 24000000 		.4byte	.LVL329
 6137 1327 B8060000 		.4byte	0x6b8
 6138 132b 0F       		.uleb128 0xf
 6139 132c 30000000 		.4byte	.LVL331
 6140 1330 000D0000 		.4byte	0xd00
 6141 1334 0F       		.uleb128 0xf
 6142 1335 42000000 		.4byte	.LVL332
 6143 1339 000D0000 		.4byte	0xd00
 6144 133d 00       		.byte	0
 6145 133e 1B       		.uleb128 0x1b
 6146 133f 4C000000 		.4byte	.LBB52
 6147 1343 10000000 		.4byte	.LBE52-.LBB52
 6148 1347 65130000 		.4byte	0x1365
 6149 134b 23       		.uleb128 0x23
 6150 134c 72657300 		.ascii	"res\000"
 6151 1350 01       		.byte	0x1
 6152 1351 5B01     		.2byte	0x15b
 6153 1353 68000000 		.4byte	0x68
 6154 1357 09090000 		.4byte	.LLST58
 6155 135b 0F       		.uleb128 0xf
 6156 135c 5C000000 		.4byte	.LVL335
 6157 1360 EA160000 		.4byte	0x16ea
 6158 1364 00       		.byte	0
 6159 1365 0F       		.uleb128 0xf
 6160 1366 66000000 		.4byte	.LVL336
 6161 136a F2170000 		.4byte	0x17f2
 6162 136e 0F       		.uleb128 0xf
 6163 136f 6A000000 		.4byte	.LVL337
 6164 1373 FD170000 		.4byte	0x17fd
 6165 1377 00       		.byte	0
 6166 1378 28       		.uleb128 0x28
 6167 1379 20050000 		.4byte	.LASF71
 6168 137d 08       		.byte	0x8
 6169 137e 1207     		.2byte	0x712
ARM GAS  C:\Users\isaac\AppData\Local\Temp\cc1fpKCw.s 			page 129


 6170 1380 84130000 		.4byte	0x1384
 6171 1384 29       		.uleb128 0x29
 6172 1385 76000000 		.4byte	0x76
 6173 1389 07       		.uleb128 0x7
 6174 138a 81000000 		.4byte	0x81
 6175 138e 99130000 		.4byte	0x1399
 6176 1392 08       		.uleb128 0x8
 6177 1393 B5000000 		.4byte	0xb5
 6178 1397 3F       		.byte	0x3f
 6179 1398 00       		.byte	0
 6180 1399 2A       		.uleb128 0x2a
 6181 139a 0A020000 		.4byte	.LASF72
 6182 139e 03       		.byte	0x3
 6183 139f 06       		.byte	0x6
 6184 13a0 89130000 		.4byte	0x1389
 6185 13a4 05       		.uleb128 0x5
 6186 13a5 03       		.byte	0x3
 6187 13a6 00000000 		.4byte	lcd_ram
 6188 13aa 2A       		.uleb128 0x2a
 6189 13ab E6000000 		.4byte	.LASF73
 6190 13af 04       		.byte	0x4
 6191 13b0 10       		.byte	0x10
 6192 13b1 BB130000 		.4byte	0x13bb
 6193 13b5 05       		.uleb128 0x5
 6194 13b6 03       		.byte	0x3
 6195 13b7 00000000 		.4byte	snake_size
 6196 13bb 21       		.uleb128 0x21
 6197 13bc 68000000 		.4byte	0x68
 6198 13c0 2A       		.uleb128 0x2a
 6199 13c1 74000000 		.4byte	.LASF74
 6200 13c5 04       		.byte	0x4
 6201 13c6 11       		.byte	0x11
 6202 13c7 BB130000 		.4byte	0x13bb
 6203 13cb 05       		.uleb128 0x5
 6204 13cc 03       		.byte	0x3
 6205 13cd 00000000 		.4byte	grid_size
 6206 13d1 2A       		.uleb128 0x2a
 6207 13d2 20010000 		.4byte	.LASF75
 6208 13d6 04       		.byte	0x4
 6209 13d7 13       		.byte	0x13
 6210 13d8 BB130000 		.4byte	0x13bb
 6211 13dc 05       		.uleb128 0x5
 6212 13dd 03       		.byte	0x3
 6213 13de 00000000 		.4byte	bait_size
 6214 13e2 07       		.uleb128 0x7
 6215 13e3 D2000000 		.4byte	0xd2
 6216 13e7 F3130000 		.4byte	0x13f3
 6217 13eb 2B       		.uleb128 0x2b
 6218 13ec B5000000 		.4byte	0xb5
 6219 13f0 3F01     		.2byte	0x13f
 6220 13f2 00       		.byte	0
 6221 13f3 2A       		.uleb128 0x2a
 6222 13f4 38060000 		.4byte	.LASF76
 6223 13f8 04       		.byte	0x4
 6224 13f9 15       		.byte	0x15
 6225 13fa E2130000 		.4byte	0x13e2
 6226 13fe 05       		.uleb128 0x5
ARM GAS  C:\Users\isaac\AppData\Local\Temp\cc1fpKCw.s 			page 130


 6227 13ff 03       		.byte	0x3
 6228 1400 00000000 		.4byte	snake
 6229 1404 07       		.uleb128 0x7
 6230 1405 D2000000 		.4byte	0xd2
 6231 1409 14140000 		.4byte	0x1414
 6232 140d 08       		.uleb128 0x8
 6233 140e B5000000 		.4byte	0xb5
 6234 1412 04       		.byte	0x4
 6235 1413 00       		.byte	0
 6236 1414 2A       		.uleb128 0x2a
 6237 1415 7D040000 		.4byte	.LASF77
 6238 1419 04       		.byte	0x4
 6239 141a 16       		.byte	0x16
 6240 141b 04140000 		.4byte	0x1404
 6241 141f 05       		.uleb128 0x5
 6242 1420 03       		.byte	0x3
 6243 1421 00000000 		.4byte	bait
 6244 1425 2A       		.uleb128 0x2a
 6245 1426 48040000 		.4byte	.LASF78
 6246 142a 04       		.byte	0x4
 6247 142b 18       		.byte	0x18
 6248 142c 68000000 		.4byte	0x68
 6249 1430 05       		.uleb128 0x5
 6250 1431 03       		.byte	0x3
 6251 1432 00000000 		.4byte	snake_head
 6252 1436 2A       		.uleb128 0x2a
 6253 1437 7C030000 		.4byte	.LASF79
 6254 143b 04       		.byte	0x4
 6255 143c 19       		.byte	0x19
 6256 143d 68000000 		.4byte	0x68
 6257 1441 05       		.uleb128 0x5
 6258 1442 03       		.byte	0x3
 6259 1443 00000000 		.4byte	snake_tail
 6260 1447 2A       		.uleb128 0x2a
 6261 1448 24020000 		.4byte	.LASF80
 6262 144c 04       		.byte	0x4
 6263 144d 1A       		.byte	0x1a
 6264 144e 68000000 		.4byte	0x68
 6265 1452 05       		.uleb128 0x5
 6266 1453 03       		.byte	0x3
 6267 1454 00000000 		.4byte	match_score
 6268 1458 2A       		.uleb128 0x2a
 6269 1459 12020000 		.4byte	.LASF81
 6270 145d 04       		.byte	0x4
 6271 145e 1C       		.byte	0x1c
 6272 145f 68000000 		.4byte	0x68
 6273 1463 05       		.uleb128 0x5
 6274 1464 03       		.byte	0x3
 6275 1465 00000000 		.4byte	score_ten_t
 6276 1469 2A       		.uleb128 0x2a
 6277 146a 56060000 		.4byte	.LASF82
 6278 146e 04       		.byte	0x4
 6279 146f 1D       		.byte	0x1d
 6280 1470 68000000 		.4byte	0x68
 6281 1474 05       		.uleb128 0x5
 6282 1475 03       		.byte	0x3
 6283 1476 00000000 		.4byte	period_offs
ARM GAS  C:\Users\isaac\AppData\Local\Temp\cc1fpKCw.s 			page 131


 6284 147a 2A       		.uleb128 0x2a
 6285 147b 39030000 		.4byte	.LASF83
 6286 147f 04       		.byte	0x4
 6287 1480 1F       		.byte	0x1f
 6288 1481 A7000000 		.4byte	0xa7
 6289 1485 05       		.uleb128 0x5
 6290 1486 03       		.byte	0x3
 6291 1487 00000000 		.4byte	last_dir
 6292 148b 2A       		.uleb128 0x2a
 6293 148c D1010000 		.4byte	.LASF84
 6294 1490 04       		.byte	0x4
 6295 1491 20       		.byte	0x20
 6296 1492 A7000000 		.4byte	0xa7
 6297 1496 05       		.uleb128 0x5
 6298 1497 03       		.byte	0x3
 6299 1498 00000000 		.4byte	cur_dir
 6300 149c 07       		.uleb128 0x7
 6301 149d 68000000 		.4byte	0x68
 6302 14a1 B2140000 		.4byte	0x14b2
 6303 14a5 08       		.uleb128 0x8
 6304 14a6 B5000000 		.4byte	0xb5
 6305 14aa 0F       		.byte	0xf
 6306 14ab 08       		.uleb128 0x8
 6307 14ac B5000000 		.4byte	0xb5
 6308 14b0 13       		.byte	0x13
 6309 14b1 00       		.byte	0
 6310 14b2 2A       		.uleb128 0x2a
 6311 14b3 92070000 		.4byte	.LASF85
 6312 14b7 04       		.byte	0x4
 6313 14b8 23       		.byte	0x23
 6314 14b9 9C140000 		.4byte	0x149c
 6315 14bd 05       		.uleb128 0x5
 6316 14be 03       		.byte	0x3
 6317 14bf 00000000 		.4byte	MapBuffer
 6318 14c3 07       		.uleb128 0x7
 6319 14c4 F3000000 		.4byte	0xf3
 6320 14c8 D3140000 		.4byte	0x14d3
 6321 14cc 08       		.uleb128 0x8
 6322 14cd B5000000 		.4byte	0xb5
 6323 14d1 03       		.byte	0x3
 6324 14d2 00       		.byte	0
 6325 14d3 2A       		.uleb128 0x2a
 6326 14d4 D7050000 		.4byte	.LASF86
 6327 14d8 01       		.byte	0x1
 6328 14d9 0E       		.byte	0xe
 6329 14da C3140000 		.4byte	0x14c3
 6330 14de 05       		.uleb128 0x5
 6331 14df 03       		.byte	0x3
 6332 14e0 00000000 		.4byte	players
 6333 14e4 2A       		.uleb128 0x2a
 6334 14e5 C3050000 		.4byte	.LASF87
 6335 14e9 01       		.byte	0x1
 6336 14ea 10       		.byte	0x10
 6337 14eb 18010000 		.4byte	0x118
 6338 14ef 05       		.uleb128 0x5
 6339 14f0 03       		.byte	0x3
 6340 14f1 00000000 		.4byte	cur_name
ARM GAS  C:\Users\isaac\AppData\Local\Temp\cc1fpKCw.s 			page 132


 6341 14f5 2A       		.uleb128 0x2a
 6342 14f6 B1040000 		.4byte	.LASF88
 6343 14fa 01       		.byte	0x1
 6344 14fb 12       		.byte	0x12
 6345 14fc 9C140000 		.4byte	0x149c
 6346 1500 05       		.uleb128 0x5
 6347 1501 03       		.byte	0x3
 6348 1502 00000000 		.4byte	SnakeBoard
 6349 1506 07       		.uleb128 0x7
 6350 1507 A7000000 		.4byte	0xa7
 6351 150b 16150000 		.4byte	0x1516
 6352 150f 08       		.uleb128 0x8
 6353 1510 B5000000 		.4byte	0xb5
 6354 1514 1F       		.byte	0x1f
 6355 1515 00       		.byte	0
 6356 1516 2A       		.uleb128 0x2a
 6357 1517 64070000 		.4byte	.LASF89
 6358 151b 01       		.byte	0x1
 6359 151c 26       		.byte	0x26
 6360 151d 06150000 		.4byte	0x1506
 6361 1521 05       		.uleb128 0x5
 6362 1522 03       		.byte	0x3
 6363 1523 00000000 		.4byte	codigo
 6364 1527 2A       		.uleb128 0x2a
 6365 1528 E0000000 		.4byte	.LASF90
 6366 152c 01       		.byte	0x1
 6367 152d 27       		.byte	0x27
 6368 152e 06150000 		.4byte	0x1506
 6369 1532 05       		.uleb128 0x5
 6370 1533 03       		.byte	0x3
 6371 1534 00000000 		.4byte	check
 6372 1538 2C       		.uleb128 0x2c
 6373 1539 666F6F00 		.ascii	"foo\000"
 6374 153d 01       		.byte	0x1
 6375 153e 28       		.byte	0x28
 6376 153f A7000000 		.4byte	0xa7
 6377 1543 05       		.uleb128 0x5
 6378 1544 03       		.byte	0x3
 6379 1545 00000000 		.4byte	foo
 6380 1549 2C       		.uleb128 0x2c
 6381 154a 637300   		.ascii	"cs\000"
 6382 154d 01       		.byte	0x1
 6383 154e 29       		.byte	0x29
 6384 154f 68000000 		.4byte	0x68
 6385 1553 05       		.uleb128 0x5
 6386 1554 03       		.byte	0x3
 6387 1555 00000000 		.4byte	cs
 6388 1559 2A       		.uleb128 0x2a
 6389 155a D2020000 		.4byte	.LASF91
 6390 155e 01       		.byte	0x1
 6391 155f 2A       		.byte	0x2a
 6392 1560 68000000 		.4byte	0x68
 6393 1564 05       		.uleb128 0x5
 6394 1565 03       		.byte	0x3
 6395 1566 00000000 		.4byte	pass
 6396 156a 2A       		.uleb128 0x2a
 6397 156b 70010000 		.4byte	.LASF92
ARM GAS  C:\Users\isaac\AppData\Local\Temp\cc1fpKCw.s 			page 133


 6398 156f 01       		.byte	0x1
 6399 1570 2B       		.byte	0x2b
 6400 1571 68000000 		.4byte	0x68
 6401 1575 05       		.uleb128 0x5
 6402 1576 03       		.byte	0x3
 6403 1577 00000000 		.4byte	comas
 6404 157b 2A       		.uleb128 0x2a
 6405 157c 8D070000 		.4byte	.LASF93
 6406 1580 01       		.byte	0x1
 6407 1581 2C       		.byte	0x2c
 6408 1582 68000000 		.4byte	0x68
 6409 1586 05       		.uleb128 0x5
 6410 1587 03       		.byte	0x3
 6411 1588 00000000 		.4byte	read
 6412 158c 2A       		.uleb128 0x2a
 6413 158d 58030000 		.4byte	.LASF94
 6414 1591 01       		.byte	0x1
 6415 1592 2D       		.byte	0x2d
 6416 1593 A7000000 		.4byte	0xa7
 6417 1597 05       		.uleb128 0x5
 6418 1598 03       		.byte	0x3
 6419 1599 00000000 		.4byte	com_state
 6420 159d 2A       		.uleb128 0x2a
 6421 159e F0010000 		.4byte	.LASF95
 6422 15a2 01       		.byte	0x1
 6423 15a3 2E       		.byte	0x2e
 6424 15a4 68000000 		.4byte	0x68
 6425 15a8 05       		.uleb128 0x5
 6426 15a9 03       		.byte	0x3
 6427 15aa 00000000 		.4byte	max_comas
 6428 15ae 2A       		.uleb128 0x2a
 6429 15af 3E060000 		.4byte	.LASF96
 6430 15b3 01       		.byte	0x1
 6431 15b4 30       		.byte	0x30
 6432 15b5 68000000 		.4byte	0x68
 6433 15b9 05       		.uleb128 0x5
 6434 15ba 03       		.byte	0x3
 6435 15bb 00000000 		.4byte	name_wait
 6436 15bf 2A       		.uleb128 0x2a
 6437 15c0 7E000000 		.4byte	.LASF97
 6438 15c4 01       		.byte	0x1
 6439 15c5 31       		.byte	0x31
 6440 15c6 68000000 		.4byte	0x68
 6441 15ca 05       		.uleb128 0x5
 6442 15cb 03       		.byte	0x3
 6443 15cc 00000000 		.4byte	pause_status
 6444 15d0 2A       		.uleb128 0x2a
 6445 15d1 6B030000 		.4byte	.LASF98
 6446 15d5 01       		.byte	0x1
 6447 15d6 33       		.byte	0x33
 6448 15d7 68000000 		.4byte	0x68
 6449 15db 05       		.uleb128 0x5
 6450 15dc 03       		.byte	0x3
 6451 15dd 00000000 		.4byte	time_paused
 6452 15e1 2A       		.uleb128 0x2a
 6453 15e2 DE020000 		.4byte	.LASF99
 6454 15e6 01       		.byte	0x1
ARM GAS  C:\Users\isaac\AppData\Local\Temp\cc1fpKCw.s 			page 134


 6455 15e7 34       		.byte	0x34
 6456 15e8 68000000 		.4byte	0x68
 6457 15ec 05       		.uleb128 0x5
 6458 15ed 03       		.byte	0x3
 6459 15ee 00000000 		.4byte	period_offs_old
 6460 15f2 2A       		.uleb128 0x2a
 6461 15f3 A5060000 		.4byte	.LASF100
 6462 15f7 01       		.byte	0x1
 6463 15f8 45       		.byte	0x45
 6464 15f9 A7000000 		.4byte	0xa7
 6465 15fd 05       		.uleb128 0x5
 6466 15fe 03       		.byte	0x3
 6467 15ff 00000000 		.4byte	state
 6468 1603 2D       		.uleb128 0x2d
 6469 1604 00000000 		.4byte	.LASF101
 6470 1608 00000000 		.4byte	.LASF101
 6471 160c 09       		.byte	0x9
 6472 160d 76       		.byte	0x76
 6473 160e 2D       		.uleb128 0x2d
 6474 160f 3A010000 		.4byte	.LASF102
 6475 1613 3A010000 		.4byte	.LASF102
 6476 1617 0A       		.byte	0xa
 6477 1618 2B       		.byte	0x2b
 6478 1619 2D       		.uleb128 0x2d
 6479 161a 8D050000 		.4byte	.LASF103
 6480 161e 8D050000 		.4byte	.LASF103
 6481 1622 0B       		.byte	0xb
 6482 1623 28       		.byte	0x28
 6483 1624 2D       		.uleb128 0x2d
 6484 1625 22040000 		.4byte	.LASF104
 6485 1629 22040000 		.4byte	.LASF104
 6486 162d 0C       		.byte	0xc
 6487 162e 2B       		.byte	0x2b
 6488 162f 2D       		.uleb128 0x2d
 6489 1630 98000000 		.4byte	.LASF105
 6490 1634 98000000 		.4byte	.LASF105
 6491 1638 0D       		.byte	0xd
 6492 1639 28       		.byte	0x28
 6493 163a 2D       		.uleb128 0x2d
 6494 163b 42050000 		.4byte	.LASF106
 6495 163f 42050000 		.4byte	.LASF106
 6496 1643 0E       		.byte	0xe
 6497 1644 5E       		.byte	0x5e
 6498 1645 2D       		.uleb128 0x2d
 6499 1646 48000000 		.4byte	.LASF107
 6500 164a 48000000 		.4byte	.LASF107
 6501 164e 0F       		.byte	0xf
 6502 164f 28       		.byte	0x28
 6503 1650 2D       		.uleb128 0x2d
 6504 1651 03040000 		.4byte	.LASF108
 6505 1655 03040000 		.4byte	.LASF108
 6506 1659 10       		.byte	0x10
 6507 165a 88       		.byte	0x88
 6508 165b 2D       		.uleb128 0x2d
 6509 165c BE020000 		.4byte	.LASF109
 6510 1660 BE020000 		.4byte	.LASF109
 6511 1664 11       		.byte	0x11
ARM GAS  C:\Users\isaac\AppData\Local\Temp\cc1fpKCw.s 			page 135


 6512 1665 55       		.byte	0x55
 6513 1666 2D       		.uleb128 0x2d
 6514 1667 C7040000 		.4byte	.LASF110
 6515 166b C7040000 		.4byte	.LASF110
 6516 166f 11       		.byte	0x11
 6517 1670 3D       		.byte	0x3d
 6518 1671 2D       		.uleb128 0x2d
 6519 1672 AD070000 		.4byte	.LASF111
 6520 1676 AD070000 		.4byte	.LASF111
 6521 167a 11       		.byte	0x11
 6522 167b 3E       		.byte	0x3e
 6523 167c 2D       		.uleb128 0x2d
 6524 167d 10050000 		.4byte	.LASF112
 6525 1681 10050000 		.4byte	.LASF112
 6526 1685 11       		.byte	0x11
 6527 1686 3C       		.byte	0x3c
 6528 1687 2D       		.uleb128 0x2d
 6529 1688 35000000 		.4byte	.LASF113
 6530 168c 35000000 		.4byte	.LASF113
 6531 1690 11       		.byte	0x11
 6532 1691 61       		.byte	0x61
 6533 1692 2D       		.uleb128 0x2d
 6534 1693 9C070000 		.4byte	.LASF114
 6535 1697 9C070000 		.4byte	.LASF114
 6536 169b 11       		.byte	0x11
 6537 169c 3A       		.byte	0x3a
 6538 169d 2D       		.uleb128 0x2d
 6539 169e 94060000 		.4byte	.LASF115
 6540 16a2 94060000 		.4byte	.LASF115
 6541 16a6 12       		.byte	0x12
 6542 16a7 21       		.byte	0x21
 6543 16a8 2D       		.uleb128 0x2d
 6544 16a9 38040000 		.4byte	.LASF116
 6545 16ad 38040000 		.4byte	.LASF116
 6546 16b1 12       		.byte	0x12
 6547 16b2 23       		.byte	0x23
 6548 16b3 2D       		.uleb128 0x2d
 6549 16b4 65040000 		.4byte	.LASF117
 6550 16b8 65040000 		.4byte	.LASF117
 6551 16bc 13       		.byte	0x13
 6552 16bd 71       		.byte	0x71
 6553 16be 2D       		.uleb128 0x2d
 6554 16bf 03010000 		.4byte	.LASF118
 6555 16c3 03010000 		.4byte	.LASF118
 6556 16c7 14       		.byte	0x14
 6557 16c8 28       		.byte	0x28
 6558 16c9 2D       		.uleb128 0x2d
 6559 16ca A3040000 		.4byte	.LASF119
 6560 16ce A3040000 		.4byte	.LASF119
 6561 16d2 15       		.byte	0x15
 6562 16d3 E7       		.byte	0xe7
 6563 16d4 2D       		.uleb128 0x2d
 6564 16d5 C4030000 		.4byte	.LASF120
 6565 16d9 C4030000 		.4byte	.LASF120
 6566 16dd 13       		.byte	0x13
 6567 16de 8B       		.byte	0x8b
 6568 16df 2D       		.uleb128 0x2d
ARM GAS  C:\Users\isaac\AppData\Local\Temp\cc1fpKCw.s 			page 136


 6569 16e0 2A010000 		.4byte	.LASF121
 6570 16e4 2A010000 		.4byte	.LASF121
 6571 16e8 16       		.byte	0x16
 6572 16e9 5A       		.byte	0x5a
 6573 16ea 2D       		.uleb128 0x2d
 6574 16eb CA000000 		.4byte	.LASF122
 6575 16ef CA000000 		.4byte	.LASF122
 6576 16f3 16       		.byte	0x16
 6577 16f4 68       		.byte	0x68
 6578 16f5 2D       		.uleb128 0x2d
 6579 16f6 FA010000 		.4byte	.LASF123
 6580 16fa FA010000 		.4byte	.LASF123
 6581 16fe 16       		.byte	0x16
 6582 16ff 8E       		.byte	0x8e
 6583 1700 2D       		.uleb128 0x2d
 6584 1701 27060000 		.4byte	.LASF124
 6585 1705 27060000 		.4byte	.LASF124
 6586 1709 0E       		.byte	0xe
 6587 170a 5A       		.byte	0x5a
 6588 170b 2D       		.uleb128 0x2d
 6589 170c 8A060000 		.4byte	.LASF125
 6590 1710 8A060000 		.4byte	.LASF125
 6591 1714 11       		.byte	0x11
 6592 1715 42       		.byte	0x42
 6593 1716 2D       		.uleb128 0x2d
 6594 1717 0D030000 		.4byte	.LASF126
 6595 171b 0D030000 		.4byte	.LASF126
 6596 171f 13       		.byte	0x13
 6597 1720 5D       		.byte	0x5d
 6598 1721 2D       		.uleb128 0x2d
 6599 1722 E4040000 		.4byte	.LASF127
 6600 1726 E4040000 		.4byte	.LASF127
 6601 172a 17       		.byte	0x17
 6602 172b 1F       		.byte	0x1f
 6603 172c 2D       		.uleb128 0x2d
 6604 172d F5030000 		.4byte	.LASF128
 6605 1731 F5030000 		.4byte	.LASF128
 6606 1735 17       		.byte	0x17
 6607 1736 23       		.byte	0x23
 6608 1737 2D       		.uleb128 0x2d
 6609 1738 F1000000 		.4byte	.LASF129
 6610 173c F1000000 		.4byte	.LASF129
 6611 1740 17       		.byte	0x17
 6612 1741 20       		.byte	0x20
 6613 1742 2D       		.uleb128 0x2d
 6614 1743 29000000 		.4byte	.LASF130
 6615 1747 29000000 		.4byte	.LASF130
 6616 174b 13       		.byte	0x13
 6617 174c 5E       		.byte	0x5e
 6618 174d 2D       		.uleb128 0x2d
 6619 174e BC040000 		.4byte	.LASF131
 6620 1752 BC040000 		.4byte	.LASF131
 6621 1756 11       		.byte	0x11
 6622 1757 43       		.byte	0x43
 6623 1758 2D       		.uleb128 0x2d
 6624 1759 7C050000 		.4byte	.LASF132
 6625 175d 7C050000 		.4byte	.LASF132
ARM GAS  C:\Users\isaac\AppData\Local\Temp\cc1fpKCw.s 			page 137


 6626 1761 16       		.byte	0x16
 6627 1762 8F       		.byte	0x8f
 6628 1763 2D       		.uleb128 0x2d
 6629 1764 64000000 		.4byte	.LASF133
 6630 1768 64000000 		.4byte	.LASF133
 6631 176c 0E       		.byte	0xe
 6632 176d 5B       		.byte	0x5b
 6633 176e 2D       		.uleb128 0x2d
 6634 176f 4F010000 		.4byte	.LASF134
 6635 1773 4F010000 		.4byte	.LASF134
 6636 1777 12       		.byte	0x12
 6637 1778 1F       		.byte	0x1f
 6638 1779 2D       		.uleb128 0x2d
 6639 177a 72050000 		.4byte	.LASF135
 6640 177e 72050000 		.4byte	.LASF135
 6641 1782 11       		.byte	0x11
 6642 1783 38       		.byte	0x38
 6643 1784 2D       		.uleb128 0x2d
 6644 1785 18000000 		.4byte	.LASF136
 6645 1789 18000000 		.4byte	.LASF136
 6646 178d 18       		.byte	0x18
 6647 178e 5A       		.byte	0x5a
 6648 178f 2D       		.uleb128 0x2d
 6649 1790 A9050000 		.4byte	.LASF137
 6650 1794 A9050000 		.4byte	.LASF137
 6651 1798 13       		.byte	0x13
 6652 1799 54       		.byte	0x54
 6653 179a 2D       		.uleb128 0x2d
 6654 179b F2060000 		.4byte	.LASF138
 6655 179f F2060000 		.4byte	.LASF138
 6656 17a3 14       		.byte	0x14
 6657 17a4 18       		.byte	0x18
 6658 17a5 2D       		.uleb128 0x2d
 6659 17a6 C1060000 		.4byte	.LASF139
 6660 17aa C1060000 		.4byte	.LASF139
 6661 17ae 0B       		.byte	0xb
 6662 17af 18       		.byte	0x18
 6663 17b0 2D       		.uleb128 0x2d
 6664 17b1 92030000 		.4byte	.LASF140
 6665 17b5 92030000 		.4byte	.LASF140
 6666 17b9 0D       		.byte	0xd
 6667 17ba 18       		.byte	0x18
 6668 17bb 2D       		.uleb128 0x2d
 6669 17bc 36070000 		.4byte	.LASF141
 6670 17c0 36070000 		.4byte	.LASF141
 6671 17c4 0F       		.byte	0xf
 6672 17c5 18       		.byte	0x18
 6673 17c6 2D       		.uleb128 0x2d
 6674 17c7 B0000000 		.4byte	.LASF142
 6675 17cb B0000000 		.4byte	.LASF142
 6676 17cf 19       		.byte	0x19
 6677 17d0 18       		.byte	0x18
 6678 17d1 2D       		.uleb128 0x2d
 6679 17d2 FA050000 		.4byte	.LASF143
 6680 17d6 FA050000 		.4byte	.LASF143
 6681 17da 18       		.byte	0x18
 6682 17db 69       		.byte	0x69
ARM GAS  C:\Users\isaac\AppData\Local\Temp\cc1fpKCw.s 			page 138


 6683 17dc 2D       		.uleb128 0x2d
 6684 17dd 53040000 		.4byte	.LASF144
 6685 17e1 53040000 		.4byte	.LASF144
 6686 17e5 10       		.byte	0x10
 6687 17e6 96       		.byte	0x96
 6688 17e7 2D       		.uleb128 0x2d
 6689 17e8 2D050000 		.4byte	.LASF145
 6690 17ec 2D050000 		.4byte	.LASF145
 6691 17f0 18       		.byte	0x18
 6692 17f1 5B       		.byte	0x5b
 6693 17f2 2D       		.uleb128 0x2d
 6694 17f3 47070000 		.4byte	.LASF146
 6695 17f7 47070000 		.4byte	.LASF146
 6696 17fb 16       		.byte	0x16
 6697 17fc 5E       		.byte	0x5e
 6698 17fd 2D       		.uleb128 0x2d
 6699 17fe D3030000 		.4byte	.LASF147
 6700 1802 D3030000 		.4byte	.LASF147
 6701 1806 19       		.byte	0x19
 6702 1807 28       		.byte	0x28
 6703 1808 00       		.byte	0
 6704              		.section	.debug_abbrev,"",%progbits
 6705              	.Ldebug_abbrev0:
 6706 0000 01       		.uleb128 0x1
 6707 0001 11       		.uleb128 0x11
 6708 0002 01       		.byte	0x1
 6709 0003 25       		.uleb128 0x25
 6710 0004 0E       		.uleb128 0xe
 6711 0005 13       		.uleb128 0x13
 6712 0006 0B       		.uleb128 0xb
 6713 0007 03       		.uleb128 0x3
 6714 0008 0E       		.uleb128 0xe
 6715 0009 1B       		.uleb128 0x1b
 6716 000a 0E       		.uleb128 0xe
 6717 000b 55       		.uleb128 0x55
 6718 000c 17       		.uleb128 0x17
 6719 000d 11       		.uleb128 0x11
 6720 000e 01       		.uleb128 0x1
 6721 000f 10       		.uleb128 0x10
 6722 0010 17       		.uleb128 0x17
 6723 0011 00       		.byte	0
 6724 0012 00       		.byte	0
 6725 0013 02       		.uleb128 0x2
 6726 0014 24       		.uleb128 0x24
 6727 0015 00       		.byte	0
 6728 0016 0B       		.uleb128 0xb
 6729 0017 0B       		.uleb128 0xb
 6730 0018 3E       		.uleb128 0x3e
 6731 0019 0B       		.uleb128 0xb
 6732 001a 03       		.uleb128 0x3
 6733 001b 0E       		.uleb128 0xe
 6734 001c 00       		.byte	0
 6735 001d 00       		.byte	0
 6736 001e 03       		.uleb128 0x3
 6737 001f 16       		.uleb128 0x16
 6738 0020 00       		.byte	0
 6739 0021 03       		.uleb128 0x3
ARM GAS  C:\Users\isaac\AppData\Local\Temp\cc1fpKCw.s 			page 139


 6740 0022 0E       		.uleb128 0xe
 6741 0023 3A       		.uleb128 0x3a
 6742 0024 0B       		.uleb128 0xb
 6743 0025 3B       		.uleb128 0x3b
 6744 0026 0B       		.uleb128 0xb
 6745 0027 49       		.uleb128 0x49
 6746 0028 13       		.uleb128 0x13
 6747 0029 00       		.byte	0
 6748 002a 00       		.byte	0
 6749 002b 04       		.uleb128 0x4
 6750 002c 24       		.uleb128 0x24
 6751 002d 00       		.byte	0
 6752 002e 0B       		.uleb128 0xb
 6753 002f 0B       		.uleb128 0xb
 6754 0030 3E       		.uleb128 0x3e
 6755 0031 0B       		.uleb128 0xb
 6756 0032 03       		.uleb128 0x3
 6757 0033 08       		.uleb128 0x8
 6758 0034 00       		.byte	0
 6759 0035 00       		.byte	0
 6760 0036 05       		.uleb128 0x5
 6761 0037 16       		.uleb128 0x16
 6762 0038 00       		.byte	0
 6763 0039 03       		.uleb128 0x3
 6764 003a 0E       		.uleb128 0xe
 6765 003b 3A       		.uleb128 0x3a
 6766 003c 0B       		.uleb128 0xb
 6767 003d 3B       		.uleb128 0x3b
 6768 003e 05       		.uleb128 0x5
 6769 003f 49       		.uleb128 0x49
 6770 0040 13       		.uleb128 0x13
 6771 0041 00       		.byte	0
 6772 0042 00       		.byte	0
 6773 0043 06       		.uleb128 0x6
 6774 0044 0F       		.uleb128 0xf
 6775 0045 00       		.byte	0
 6776 0046 0B       		.uleb128 0xb
 6777 0047 0B       		.uleb128 0xb
 6778 0048 49       		.uleb128 0x49
 6779 0049 13       		.uleb128 0x13
 6780 004a 00       		.byte	0
 6781 004b 00       		.byte	0
 6782 004c 07       		.uleb128 0x7
 6783 004d 01       		.uleb128 0x1
 6784 004e 01       		.byte	0x1
 6785 004f 49       		.uleb128 0x49
 6786 0050 13       		.uleb128 0x13
 6787 0051 01       		.uleb128 0x1
 6788 0052 13       		.uleb128 0x13
 6789 0053 00       		.byte	0
 6790 0054 00       		.byte	0
 6791 0055 08       		.uleb128 0x8
 6792 0056 21       		.uleb128 0x21
 6793 0057 00       		.byte	0
 6794 0058 49       		.uleb128 0x49
 6795 0059 13       		.uleb128 0x13
 6796 005a 2F       		.uleb128 0x2f
ARM GAS  C:\Users\isaac\AppData\Local\Temp\cc1fpKCw.s 			page 140


 6797 005b 0B       		.uleb128 0xb
 6798 005c 00       		.byte	0
 6799 005d 00       		.byte	0
 6800 005e 09       		.uleb128 0x9
 6801 005f 13       		.uleb128 0x13
 6802 0060 01       		.byte	0x1
 6803 0061 03       		.uleb128 0x3
 6804 0062 0E       		.uleb128 0xe
 6805 0063 0B       		.uleb128 0xb
 6806 0064 0B       		.uleb128 0xb
 6807 0065 3A       		.uleb128 0x3a
 6808 0066 0B       		.uleb128 0xb
 6809 0067 3B       		.uleb128 0x3b
 6810 0068 0B       		.uleb128 0xb
 6811 0069 01       		.uleb128 0x1
 6812 006a 13       		.uleb128 0x13
 6813 006b 00       		.byte	0
 6814 006c 00       		.byte	0
 6815 006d 0A       		.uleb128 0xa
 6816 006e 0D       		.uleb128 0xd
 6817 006f 00       		.byte	0
 6818 0070 03       		.uleb128 0x3
 6819 0071 08       		.uleb128 0x8
 6820 0072 3A       		.uleb128 0x3a
 6821 0073 0B       		.uleb128 0xb
 6822 0074 3B       		.uleb128 0x3b
 6823 0075 0B       		.uleb128 0xb
 6824 0076 49       		.uleb128 0x49
 6825 0077 13       		.uleb128 0x13
 6826 0078 38       		.uleb128 0x38
 6827 0079 0B       		.uleb128 0xb
 6828 007a 00       		.byte	0
 6829 007b 00       		.byte	0
 6830 007c 0B       		.uleb128 0xb
 6831 007d 0D       		.uleb128 0xd
 6832 007e 00       		.byte	0
 6833 007f 03       		.uleb128 0x3
 6834 0080 0E       		.uleb128 0xe
 6835 0081 3A       		.uleb128 0x3a
 6836 0082 0B       		.uleb128 0xb
 6837 0083 3B       		.uleb128 0x3b
 6838 0084 0B       		.uleb128 0xb
 6839 0085 49       		.uleb128 0x49
 6840 0086 13       		.uleb128 0x13
 6841 0087 38       		.uleb128 0x38
 6842 0088 0B       		.uleb128 0xb
 6843 0089 00       		.byte	0
 6844 008a 00       		.byte	0
 6845 008b 0C       		.uleb128 0xc
 6846 008c 2E       		.uleb128 0x2e
 6847 008d 01       		.byte	0x1
 6848 008e 3F       		.uleb128 0x3f
 6849 008f 19       		.uleb128 0x19
 6850 0090 03       		.uleb128 0x3
 6851 0091 0E       		.uleb128 0xe
 6852 0092 3A       		.uleb128 0x3a
 6853 0093 0B       		.uleb128 0xb
ARM GAS  C:\Users\isaac\AppData\Local\Temp\cc1fpKCw.s 			page 141


 6854 0094 3B       		.uleb128 0x3b
 6855 0095 05       		.uleb128 0x5
 6856 0096 27       		.uleb128 0x27
 6857 0097 19       		.uleb128 0x19
 6858 0098 11       		.uleb128 0x11
 6859 0099 01       		.uleb128 0x1
 6860 009a 12       		.uleb128 0x12
 6861 009b 06       		.uleb128 0x6
 6862 009c 40       		.uleb128 0x40
 6863 009d 18       		.uleb128 0x18
 6864 009e 9742     		.uleb128 0x2117
 6865 00a0 19       		.uleb128 0x19
 6866 00a1 01       		.uleb128 0x1
 6867 00a2 13       		.uleb128 0x13
 6868 00a3 00       		.byte	0
 6869 00a4 00       		.byte	0
 6870 00a5 0D       		.uleb128 0xd
 6871 00a6 898201   		.uleb128 0x4109
 6872 00a9 01       		.byte	0x1
 6873 00aa 11       		.uleb128 0x11
 6874 00ab 01       		.uleb128 0x1
 6875 00ac 31       		.uleb128 0x31
 6876 00ad 13       		.uleb128 0x13
 6877 00ae 01       		.uleb128 0x1
 6878 00af 13       		.uleb128 0x13
 6879 00b0 00       		.byte	0
 6880 00b1 00       		.byte	0
 6881 00b2 0E       		.uleb128 0xe
 6882 00b3 8A8201   		.uleb128 0x410a
 6883 00b6 00       		.byte	0
 6884 00b7 02       		.uleb128 0x2
 6885 00b8 18       		.uleb128 0x18
 6886 00b9 9142     		.uleb128 0x2111
 6887 00bb 18       		.uleb128 0x18
 6888 00bc 00       		.byte	0
 6889 00bd 00       		.byte	0
 6890 00be 0F       		.uleb128 0xf
 6891 00bf 898201   		.uleb128 0x4109
 6892 00c2 00       		.byte	0
 6893 00c3 11       		.uleb128 0x11
 6894 00c4 01       		.uleb128 0x1
 6895 00c5 31       		.uleb128 0x31
 6896 00c6 13       		.uleb128 0x13
 6897 00c7 00       		.byte	0
 6898 00c8 00       		.byte	0
 6899 00c9 10       		.uleb128 0x10
 6900 00ca 2E       		.uleb128 0x2e
 6901 00cb 01       		.byte	0x1
 6902 00cc 3F       		.uleb128 0x3f
 6903 00cd 19       		.uleb128 0x19
 6904 00ce 03       		.uleb128 0x3
 6905 00cf 0E       		.uleb128 0xe
 6906 00d0 3A       		.uleb128 0x3a
 6907 00d1 0B       		.uleb128 0xb
 6908 00d2 3B       		.uleb128 0x3b
 6909 00d3 0B       		.uleb128 0xb
 6910 00d4 27       		.uleb128 0x27
ARM GAS  C:\Users\isaac\AppData\Local\Temp\cc1fpKCw.s 			page 142


 6911 00d5 19       		.uleb128 0x19
 6912 00d6 49       		.uleb128 0x49
 6913 00d7 13       		.uleb128 0x13
 6914 00d8 11       		.uleb128 0x11
 6915 00d9 01       		.uleb128 0x1
 6916 00da 12       		.uleb128 0x12
 6917 00db 06       		.uleb128 0x6
 6918 00dc 40       		.uleb128 0x40
 6919 00dd 18       		.uleb128 0x18
 6920 00de 9742     		.uleb128 0x2117
 6921 00e0 19       		.uleb128 0x19
 6922 00e1 01       		.uleb128 0x1
 6923 00e2 13       		.uleb128 0x13
 6924 00e3 00       		.byte	0
 6925 00e4 00       		.byte	0
 6926 00e5 11       		.uleb128 0x11
 6927 00e6 05       		.uleb128 0x5
 6928 00e7 00       		.byte	0
 6929 00e8 03       		.uleb128 0x3
 6930 00e9 0E       		.uleb128 0xe
 6931 00ea 3A       		.uleb128 0x3a
 6932 00eb 0B       		.uleb128 0xb
 6933 00ec 3B       		.uleb128 0x3b
 6934 00ed 0B       		.uleb128 0xb
 6935 00ee 49       		.uleb128 0x49
 6936 00ef 13       		.uleb128 0x13
 6937 00f0 02       		.uleb128 0x2
 6938 00f1 17       		.uleb128 0x17
 6939 00f2 00       		.byte	0
 6940 00f3 00       		.byte	0
 6941 00f4 12       		.uleb128 0x12
 6942 00f5 05       		.uleb128 0x5
 6943 00f6 00       		.byte	0
 6944 00f7 03       		.uleb128 0x3
 6945 00f8 0E       		.uleb128 0xe
 6946 00f9 3A       		.uleb128 0x3a
 6947 00fa 0B       		.uleb128 0xb
 6948 00fb 3B       		.uleb128 0x3b
 6949 00fc 0B       		.uleb128 0xb
 6950 00fd 49       		.uleb128 0x49
 6951 00fe 13       		.uleb128 0x13
 6952 00ff 02       		.uleb128 0x2
 6953 0100 18       		.uleb128 0x18
 6954 0101 00       		.byte	0
 6955 0102 00       		.byte	0
 6956 0103 13       		.uleb128 0x13
 6957 0104 34       		.uleb128 0x34
 6958 0105 00       		.byte	0
 6959 0106 03       		.uleb128 0x3
 6960 0107 08       		.uleb128 0x8
 6961 0108 3A       		.uleb128 0x3a
 6962 0109 0B       		.uleb128 0xb
 6963 010a 3B       		.uleb128 0x3b
 6964 010b 0B       		.uleb128 0xb
 6965 010c 49       		.uleb128 0x49
 6966 010d 13       		.uleb128 0x13
 6967 010e 02       		.uleb128 0x2
ARM GAS  C:\Users\isaac\AppData\Local\Temp\cc1fpKCw.s 			page 143


 6968 010f 17       		.uleb128 0x17
 6969 0110 00       		.byte	0
 6970 0111 00       		.byte	0
 6971 0112 14       		.uleb128 0x14
 6972 0113 2E       		.uleb128 0x2e
 6973 0114 01       		.byte	0x1
 6974 0115 3F       		.uleb128 0x3f
 6975 0116 19       		.uleb128 0x19
 6976 0117 03       		.uleb128 0x3
 6977 0118 0E       		.uleb128 0xe
 6978 0119 3A       		.uleb128 0x3a
 6979 011a 0B       		.uleb128 0xb
 6980 011b 3B       		.uleb128 0x3b
 6981 011c 0B       		.uleb128 0xb
 6982 011d 27       		.uleb128 0x27
 6983 011e 19       		.uleb128 0x19
 6984 011f 11       		.uleb128 0x11
 6985 0120 01       		.uleb128 0x1
 6986 0121 12       		.uleb128 0x12
 6987 0122 06       		.uleb128 0x6
 6988 0123 40       		.uleb128 0x40
 6989 0124 18       		.uleb128 0x18
 6990 0125 9742     		.uleb128 0x2117
 6991 0127 19       		.uleb128 0x19
 6992 0128 01       		.uleb128 0x1
 6993 0129 13       		.uleb128 0x13
 6994 012a 00       		.byte	0
 6995 012b 00       		.byte	0
 6996 012c 15       		.uleb128 0x15
 6997 012d 898201   		.uleb128 0x4109
 6998 0130 01       		.byte	0x1
 6999 0131 11       		.uleb128 0x11
 7000 0132 01       		.uleb128 0x1
 7001 0133 31       		.uleb128 0x31
 7002 0134 13       		.uleb128 0x13
 7003 0135 00       		.byte	0
 7004 0136 00       		.byte	0
 7005 0137 16       		.uleb128 0x16
 7006 0138 34       		.uleb128 0x34
 7007 0139 00       		.byte	0
 7008 013a 03       		.uleb128 0x3
 7009 013b 0E       		.uleb128 0xe
 7010 013c 3A       		.uleb128 0x3a
 7011 013d 0B       		.uleb128 0xb
 7012 013e 3B       		.uleb128 0x3b
 7013 013f 0B       		.uleb128 0xb
 7014 0140 49       		.uleb128 0x49
 7015 0141 13       		.uleb128 0x13
 7016 0142 02       		.uleb128 0x2
 7017 0143 17       		.uleb128 0x17
 7018 0144 00       		.byte	0
 7019 0145 00       		.byte	0
 7020 0146 17       		.uleb128 0x17
 7021 0147 0B       		.uleb128 0xb
 7022 0148 01       		.byte	0x1
 7023 0149 55       		.uleb128 0x55
 7024 014a 17       		.uleb128 0x17
ARM GAS  C:\Users\isaac\AppData\Local\Temp\cc1fpKCw.s 			page 144


 7025 014b 01       		.uleb128 0x1
 7026 014c 13       		.uleb128 0x13
 7027 014d 00       		.byte	0
 7028 014e 00       		.byte	0
 7029 014f 18       		.uleb128 0x18
 7030 0150 0B       		.uleb128 0xb
 7031 0151 01       		.byte	0x1
 7032 0152 55       		.uleb128 0x55
 7033 0153 17       		.uleb128 0x17
 7034 0154 00       		.byte	0
 7035 0155 00       		.byte	0
 7036 0156 19       		.uleb128 0x19
 7037 0157 2E       		.uleb128 0x2e
 7038 0158 01       		.byte	0x1
 7039 0159 3F       		.uleb128 0x3f
 7040 015a 19       		.uleb128 0x19
 7041 015b 03       		.uleb128 0x3
 7042 015c 0E       		.uleb128 0xe
 7043 015d 3A       		.uleb128 0x3a
 7044 015e 0B       		.uleb128 0xb
 7045 015f 3B       		.uleb128 0x3b
 7046 0160 0B       		.uleb128 0xb
 7047 0161 11       		.uleb128 0x11
 7048 0162 01       		.uleb128 0x1
 7049 0163 12       		.uleb128 0x12
 7050 0164 06       		.uleb128 0x6
 7051 0165 40       		.uleb128 0x40
 7052 0166 18       		.uleb128 0x18
 7053 0167 9742     		.uleb128 0x2117
 7054 0169 19       		.uleb128 0x19
 7055 016a 01       		.uleb128 0x1
 7056 016b 13       		.uleb128 0x13
 7057 016c 00       		.byte	0
 7058 016d 00       		.byte	0
 7059 016e 1A       		.uleb128 0x1a
 7060 016f 0B       		.uleb128 0xb
 7061 0170 01       		.byte	0x1
 7062 0171 11       		.uleb128 0x11
 7063 0172 01       		.uleb128 0x1
 7064 0173 12       		.uleb128 0x12
 7065 0174 06       		.uleb128 0x6
 7066 0175 00       		.byte	0
 7067 0176 00       		.byte	0
 7068 0177 1B       		.uleb128 0x1b
 7069 0178 0B       		.uleb128 0xb
 7070 0179 01       		.byte	0x1
 7071 017a 11       		.uleb128 0x11
 7072 017b 01       		.uleb128 0x1
 7073 017c 12       		.uleb128 0x12
 7074 017d 06       		.uleb128 0x6
 7075 017e 01       		.uleb128 0x1
 7076 017f 13       		.uleb128 0x13
 7077 0180 00       		.byte	0
 7078 0181 00       		.byte	0
 7079 0182 1C       		.uleb128 0x1c
 7080 0183 2E       		.uleb128 0x2e
 7081 0184 01       		.byte	0x1
ARM GAS  C:\Users\isaac\AppData\Local\Temp\cc1fpKCw.s 			page 145


 7082 0185 3F       		.uleb128 0x3f
 7083 0186 19       		.uleb128 0x19
 7084 0187 03       		.uleb128 0x3
 7085 0188 0E       		.uleb128 0xe
 7086 0189 3A       		.uleb128 0x3a
 7087 018a 0B       		.uleb128 0xb
 7088 018b 3B       		.uleb128 0x3b
 7089 018c 0B       		.uleb128 0xb
 7090 018d 49       		.uleb128 0x49
 7091 018e 13       		.uleb128 0x13
 7092 018f 11       		.uleb128 0x11
 7093 0190 01       		.uleb128 0x1
 7094 0191 12       		.uleb128 0x12
 7095 0192 06       		.uleb128 0x6
 7096 0193 40       		.uleb128 0x40
 7097 0194 18       		.uleb128 0x18
 7098 0195 9742     		.uleb128 0x2117
 7099 0197 19       		.uleb128 0x19
 7100 0198 01       		.uleb128 0x1
 7101 0199 13       		.uleb128 0x13
 7102 019a 00       		.byte	0
 7103 019b 00       		.byte	0
 7104 019c 1D       		.uleb128 0x1d
 7105 019d 34       		.uleb128 0x34
 7106 019e 00       		.byte	0
 7107 019f 03       		.uleb128 0x3
 7108 01a0 08       		.uleb128 0x8
 7109 01a1 3A       		.uleb128 0x3a
 7110 01a2 0B       		.uleb128 0xb
 7111 01a3 3B       		.uleb128 0x3b
 7112 01a4 0B       		.uleb128 0xb
 7113 01a5 49       		.uleb128 0x49
 7114 01a6 13       		.uleb128 0x13
 7115 01a7 02       		.uleb128 0x2
 7116 01a8 18       		.uleb128 0x18
 7117 01a9 00       		.byte	0
 7118 01aa 00       		.byte	0
 7119 01ab 1E       		.uleb128 0x1e
 7120 01ac 34       		.uleb128 0x34
 7121 01ad 00       		.byte	0
 7122 01ae 03       		.uleb128 0x3
 7123 01af 0E       		.uleb128 0xe
 7124 01b0 3A       		.uleb128 0x3a
 7125 01b1 0B       		.uleb128 0xb
 7126 01b2 3B       		.uleb128 0x3b
 7127 01b3 0B       		.uleb128 0xb
 7128 01b4 49       		.uleb128 0x49
 7129 01b5 13       		.uleb128 0x13
 7130 01b6 02       		.uleb128 0x2
 7131 01b7 18       		.uleb128 0x18
 7132 01b8 00       		.byte	0
 7133 01b9 00       		.byte	0
 7134 01ba 1F       		.uleb128 0x1f
 7135 01bb 34       		.uleb128 0x34
 7136 01bc 00       		.byte	0
 7137 01bd 34       		.uleb128 0x34
 7138 01be 19       		.uleb128 0x19
ARM GAS  C:\Users\isaac\AppData\Local\Temp\cc1fpKCw.s 			page 146


 7139 01bf 49       		.uleb128 0x49
 7140 01c0 13       		.uleb128 0x13
 7141 01c1 02       		.uleb128 0x2
 7142 01c2 17       		.uleb128 0x17
 7143 01c3 00       		.byte	0
 7144 01c4 00       		.byte	0
 7145 01c5 20       		.uleb128 0x20
 7146 01c6 21       		.uleb128 0x21
 7147 01c7 00       		.byte	0
 7148 01c8 49       		.uleb128 0x49
 7149 01c9 13       		.uleb128 0x13
 7150 01ca 2F       		.uleb128 0x2f
 7151 01cb 13       		.uleb128 0x13
 7152 01cc 00       		.byte	0
 7153 01cd 00       		.byte	0
 7154 01ce 21       		.uleb128 0x21
 7155 01cf 26       		.uleb128 0x26
 7156 01d0 00       		.byte	0
 7157 01d1 49       		.uleb128 0x49
 7158 01d2 13       		.uleb128 0x13
 7159 01d3 00       		.byte	0
 7160 01d4 00       		.byte	0
 7161 01d5 22       		.uleb128 0x22
 7162 01d6 34       		.uleb128 0x34
 7163 01d7 00       		.byte	0
 7164 01d8 03       		.uleb128 0x3
 7165 01d9 0E       		.uleb128 0xe
 7166 01da 3A       		.uleb128 0x3a
 7167 01db 0B       		.uleb128 0xb
 7168 01dc 3B       		.uleb128 0x3b
 7169 01dd 05       		.uleb128 0x5
 7170 01de 49       		.uleb128 0x49
 7171 01df 13       		.uleb128 0x13
 7172 01e0 02       		.uleb128 0x2
 7173 01e1 18       		.uleb128 0x18
 7174 01e2 00       		.byte	0
 7175 01e3 00       		.byte	0
 7176 01e4 23       		.uleb128 0x23
 7177 01e5 34       		.uleb128 0x34
 7178 01e6 00       		.byte	0
 7179 01e7 03       		.uleb128 0x3
 7180 01e8 08       		.uleb128 0x8
 7181 01e9 3A       		.uleb128 0x3a
 7182 01ea 0B       		.uleb128 0xb
 7183 01eb 3B       		.uleb128 0x3b
 7184 01ec 05       		.uleb128 0x5
 7185 01ed 49       		.uleb128 0x49
 7186 01ee 13       		.uleb128 0x13
 7187 01ef 02       		.uleb128 0x2
 7188 01f0 17       		.uleb128 0x17
 7189 01f1 00       		.byte	0
 7190 01f2 00       		.byte	0
 7191 01f3 24       		.uleb128 0x24
 7192 01f4 2E       		.uleb128 0x2e
 7193 01f5 01       		.byte	0x1
 7194 01f6 3F       		.uleb128 0x3f
 7195 01f7 19       		.uleb128 0x19
ARM GAS  C:\Users\isaac\AppData\Local\Temp\cc1fpKCw.s 			page 147


 7196 01f8 03       		.uleb128 0x3
 7197 01f9 0E       		.uleb128 0xe
 7198 01fa 3A       		.uleb128 0x3a
 7199 01fb 0B       		.uleb128 0xb
 7200 01fc 3B       		.uleb128 0x3b
 7201 01fd 05       		.uleb128 0x5
 7202 01fe 11       		.uleb128 0x11
 7203 01ff 01       		.uleb128 0x1
 7204 0200 12       		.uleb128 0x12
 7205 0201 06       		.uleb128 0x6
 7206 0202 40       		.uleb128 0x40
 7207 0203 18       		.uleb128 0x18
 7208 0204 9742     		.uleb128 0x2117
 7209 0206 19       		.uleb128 0x19
 7210 0207 01       		.uleb128 0x1
 7211 0208 13       		.uleb128 0x13
 7212 0209 00       		.byte	0
 7213 020a 00       		.byte	0
 7214 020b 25       		.uleb128 0x25
 7215 020c 05       		.uleb128 0x5
 7216 020d 00       		.byte	0
 7217 020e 03       		.uleb128 0x3
 7218 020f 0E       		.uleb128 0xe
 7219 0210 3A       		.uleb128 0x3a
 7220 0211 0B       		.uleb128 0xb
 7221 0212 3B       		.uleb128 0x3b
 7222 0213 05       		.uleb128 0x5
 7223 0214 49       		.uleb128 0x49
 7224 0215 13       		.uleb128 0x13
 7225 0216 02       		.uleb128 0x2
 7226 0217 18       		.uleb128 0x18
 7227 0218 00       		.byte	0
 7228 0219 00       		.byte	0
 7229 021a 26       		.uleb128 0x26
 7230 021b 2E       		.uleb128 0x2e
 7231 021c 01       		.byte	0x1
 7232 021d 3F       		.uleb128 0x3f
 7233 021e 19       		.uleb128 0x19
 7234 021f 03       		.uleb128 0x3
 7235 0220 0E       		.uleb128 0xe
 7236 0221 3A       		.uleb128 0x3a
 7237 0222 0B       		.uleb128 0xb
 7238 0223 3B       		.uleb128 0x3b
 7239 0224 0B       		.uleb128 0xb
 7240 0225 27       		.uleb128 0x27
 7241 0226 19       		.uleb128 0x19
 7242 0227 49       		.uleb128 0x49
 7243 0228 13       		.uleb128 0x13
 7244 0229 8701     		.uleb128 0x87
 7245 022b 19       		.uleb128 0x19
 7246 022c 11       		.uleb128 0x11
 7247 022d 01       		.uleb128 0x1
 7248 022e 12       		.uleb128 0x12
 7249 022f 06       		.uleb128 0x6
 7250 0230 40       		.uleb128 0x40
 7251 0231 18       		.uleb128 0x18
 7252 0232 9742     		.uleb128 0x2117
ARM GAS  C:\Users\isaac\AppData\Local\Temp\cc1fpKCw.s 			page 148


 7253 0234 19       		.uleb128 0x19
 7254 0235 01       		.uleb128 0x1
 7255 0236 13       		.uleb128 0x13
 7256 0237 00       		.byte	0
 7257 0238 00       		.byte	0
 7258 0239 27       		.uleb128 0x27
 7259 023a 34       		.uleb128 0x34
 7260 023b 00       		.byte	0
 7261 023c 03       		.uleb128 0x3
 7262 023d 0E       		.uleb128 0xe
 7263 023e 3A       		.uleb128 0x3a
 7264 023f 0B       		.uleb128 0xb
 7265 0240 3B       		.uleb128 0x3b
 7266 0241 05       		.uleb128 0x5
 7267 0242 49       		.uleb128 0x49
 7268 0243 13       		.uleb128 0x13
 7269 0244 02       		.uleb128 0x2
 7270 0245 17       		.uleb128 0x17
 7271 0246 00       		.byte	0
 7272 0247 00       		.byte	0
 7273 0248 28       		.uleb128 0x28
 7274 0249 34       		.uleb128 0x34
 7275 024a 00       		.byte	0
 7276 024b 03       		.uleb128 0x3
 7277 024c 0E       		.uleb128 0xe
 7278 024d 3A       		.uleb128 0x3a
 7279 024e 0B       		.uleb128 0xb
 7280 024f 3B       		.uleb128 0x3b
 7281 0250 05       		.uleb128 0x5
 7282 0251 49       		.uleb128 0x49
 7283 0252 13       		.uleb128 0x13
 7284 0253 3F       		.uleb128 0x3f
 7285 0254 19       		.uleb128 0x19
 7286 0255 3C       		.uleb128 0x3c
 7287 0256 19       		.uleb128 0x19
 7288 0257 00       		.byte	0
 7289 0258 00       		.byte	0
 7290 0259 29       		.uleb128 0x29
 7291 025a 35       		.uleb128 0x35
 7292 025b 00       		.byte	0
 7293 025c 49       		.uleb128 0x49
 7294 025d 13       		.uleb128 0x13
 7295 025e 00       		.byte	0
 7296 025f 00       		.byte	0
 7297 0260 2A       		.uleb128 0x2a
 7298 0261 34       		.uleb128 0x34
 7299 0262 00       		.byte	0
 7300 0263 03       		.uleb128 0x3
 7301 0264 0E       		.uleb128 0xe
 7302 0265 3A       		.uleb128 0x3a
 7303 0266 0B       		.uleb128 0xb
 7304 0267 3B       		.uleb128 0x3b
 7305 0268 0B       		.uleb128 0xb
 7306 0269 49       		.uleb128 0x49
 7307 026a 13       		.uleb128 0x13
 7308 026b 3F       		.uleb128 0x3f
 7309 026c 19       		.uleb128 0x19
ARM GAS  C:\Users\isaac\AppData\Local\Temp\cc1fpKCw.s 			page 149


 7310 026d 02       		.uleb128 0x2
 7311 026e 18       		.uleb128 0x18
 7312 026f 00       		.byte	0
 7313 0270 00       		.byte	0
 7314 0271 2B       		.uleb128 0x2b
 7315 0272 21       		.uleb128 0x21
 7316 0273 00       		.byte	0
 7317 0274 49       		.uleb128 0x49
 7318 0275 13       		.uleb128 0x13
 7319 0276 2F       		.uleb128 0x2f
 7320 0277 05       		.uleb128 0x5
 7321 0278 00       		.byte	0
 7322 0279 00       		.byte	0
 7323 027a 2C       		.uleb128 0x2c
 7324 027b 34       		.uleb128 0x34
 7325 027c 00       		.byte	0
 7326 027d 03       		.uleb128 0x3
 7327 027e 08       		.uleb128 0x8
 7328 027f 3A       		.uleb128 0x3a
 7329 0280 0B       		.uleb128 0xb
 7330 0281 3B       		.uleb128 0x3b
 7331 0282 0B       		.uleb128 0xb
 7332 0283 49       		.uleb128 0x49
 7333 0284 13       		.uleb128 0x13
 7334 0285 3F       		.uleb128 0x3f
 7335 0286 19       		.uleb128 0x19
 7336 0287 02       		.uleb128 0x2
 7337 0288 18       		.uleb128 0x18
 7338 0289 00       		.byte	0
 7339 028a 00       		.byte	0
 7340 028b 2D       		.uleb128 0x2d
 7341 028c 2E       		.uleb128 0x2e
 7342 028d 00       		.byte	0
 7343 028e 3F       		.uleb128 0x3f
 7344 028f 19       		.uleb128 0x19
 7345 0290 3C       		.uleb128 0x3c
 7346 0291 19       		.uleb128 0x19
 7347 0292 6E       		.uleb128 0x6e
 7348 0293 0E       		.uleb128 0xe
 7349 0294 03       		.uleb128 0x3
 7350 0295 0E       		.uleb128 0xe
 7351 0296 3A       		.uleb128 0x3a
 7352 0297 0B       		.uleb128 0xb
 7353 0298 3B       		.uleb128 0x3b
 7354 0299 0B       		.uleb128 0xb
 7355 029a 00       		.byte	0
 7356 029b 00       		.byte	0
 7357 029c 00       		.byte	0
 7358              		.section	.debug_loc,"",%progbits
 7359              	.Ldebug_loc0:
 7360              	.LLST0:
 7361 0000 00000000 		.4byte	.LVL7
 7362 0004 04000000 		.4byte	.LVL8
 7363 0008 0100     		.2byte	0x1
 7364 000a 50       		.byte	0x50
 7365 000b 04000000 		.4byte	.LVL8
 7366 000f 06000000 		.4byte	.LFE64
ARM GAS  C:\Users\isaac\AppData\Local\Temp\cc1fpKCw.s 			page 150


 7367 0013 0400     		.2byte	0x4
 7368 0015 F3       		.byte	0xf3
 7369 0016 01       		.uleb128 0x1
 7370 0017 50       		.byte	0x50
 7371 0018 9F       		.byte	0x9f
 7372 0019 00000000 		.4byte	0
 7373 001d 00000000 		.4byte	0
 7374              	.LLST1:
 7375 0021 00000000 		.4byte	.LVL7
 7376 0025 04000000 		.4byte	.LVL8
 7377 0029 0800     		.2byte	0x8
 7378 002b 71       		.byte	0x71
 7379 002c 00       		.sleb128 0
 7380 002d 34       		.byte	0x34
 7381 002e 24       		.byte	0x24
 7382 002f 70       		.byte	0x70
 7383 0030 00       		.sleb128 0
 7384 0031 22       		.byte	0x22
 7385 0032 9F       		.byte	0x9f
 7386 0033 04000000 		.4byte	.LVL8
 7387 0037 06000000 		.4byte	.LFE64
 7388 003b 0100     		.2byte	0x1
 7389 003d 50       		.byte	0x50
 7390 003e 00000000 		.4byte	0
 7391 0042 00000000 		.4byte	0
 7392              	.LLST2:
 7393 0046 00000000 		.4byte	.LVL9
 7394 004a 09000000 		.4byte	.LVL10-1
 7395 004e 0100     		.2byte	0x1
 7396 0050 50       		.byte	0x50
 7397 0051 09000000 		.4byte	.LVL10-1
 7398 0055 1A000000 		.4byte	.LFE65
 7399 0059 0100     		.2byte	0x1
 7400 005b 55       		.byte	0x55
 7401 005c 00000000 		.4byte	0
 7402 0060 00000000 		.4byte	0
 7403              	.LLST3:
 7404 0064 00000000 		.4byte	.LVL9
 7405 0068 09000000 		.4byte	.LVL10-1
 7406 006c 0100     		.2byte	0x1
 7407 006e 51       		.byte	0x51
 7408 006f 09000000 		.4byte	.LVL10-1
 7409 0073 0C000000 		.4byte	.LVL11
 7410 0077 0100     		.2byte	0x1
 7411 0079 54       		.byte	0x54
 7412 007a 0C000000 		.4byte	.LVL11
 7413 007e 1A000000 		.4byte	.LFE65
 7414 0082 0400     		.2byte	0x4
 7415 0084 F3       		.byte	0xf3
 7416 0085 01       		.uleb128 0x1
 7417 0086 51       		.byte	0x51
 7418 0087 9F       		.byte	0x9f
 7419 0088 00000000 		.4byte	0
 7420 008c 00000000 		.4byte	0
 7421              	.LLST4:
 7422 0090 16000000 		.4byte	.LVL12
 7423 0094 18000000 		.4byte	.LVL13
ARM GAS  C:\Users\isaac\AppData\Local\Temp\cc1fpKCw.s 			page 151


 7424 0098 0600     		.2byte	0x6
 7425 009a 75       		.byte	0x75
 7426 009b 00       		.sleb128 0
 7427 009c 70       		.byte	0x70
 7428 009d 00       		.sleb128 0
 7429 009e 22       		.byte	0x22
 7430 009f 9F       		.byte	0x9f
 7431 00a0 18000000 		.4byte	.LVL13
 7432 00a4 1A000000 		.4byte	.LFE65
 7433 00a8 0100     		.2byte	0x1
 7434 00aa 50       		.byte	0x50
 7435 00ab 00000000 		.4byte	0
 7436 00af 00000000 		.4byte	0
 7437              	.LLST5:
 7438 00b3 00000000 		.4byte	.LVL14
 7439 00b7 06000000 		.4byte	.LVL15
 7440 00bb 0100     		.2byte	0x1
 7441 00bd 50       		.byte	0x50
 7442 00be 06000000 		.4byte	.LVL15
 7443 00c2 0C000000 		.4byte	.LVL17
 7444 00c6 0100     		.2byte	0x1
 7445 00c8 54       		.byte	0x54
 7446 00c9 0C000000 		.4byte	.LVL17
 7447 00cd 90000000 		.4byte	.LFE67
 7448 00d1 0400     		.2byte	0x4
 7449 00d3 F3       		.byte	0xf3
 7450 00d4 01       		.uleb128 0x1
 7451 00d5 50       		.byte	0x50
 7452 00d6 9F       		.byte	0x9f
 7453 00d7 00000000 		.4byte	0
 7454 00db 00000000 		.4byte	0
 7455              	.LLST6:
 7456 00df 00000000 		.4byte	.LVL34
 7457 00e3 06000000 		.4byte	.LVL35
 7458 00e7 0100     		.2byte	0x1
 7459 00e9 50       		.byte	0x50
 7460 00ea 06000000 		.4byte	.LVL35
 7461 00ee 08000000 		.4byte	.LVL36
 7462 00f2 0100     		.2byte	0x1
 7463 00f4 53       		.byte	0x53
 7464 00f5 08000000 		.4byte	.LVL36
 7465 00f9 0A000000 		.4byte	.LVL37
 7466 00fd 0100     		.2byte	0x1
 7467 00ff 50       		.byte	0x50
 7468 0100 0A000000 		.4byte	.LVL37
 7469 0104 24000000 		.4byte	.LFE68
 7470 0108 0100     		.2byte	0x1
 7471 010a 53       		.byte	0x53
 7472 010b 00000000 		.4byte	0
 7473 010f 00000000 		.4byte	0
 7474              	.LLST7:
 7475 0113 00000000 		.4byte	.LVL34
 7476 0117 0A000000 		.4byte	.LVL37
 7477 011b 0200     		.2byte	0x2
 7478 011d 30       		.byte	0x30
 7479 011e 9F       		.byte	0x9f
 7480 011f 0A000000 		.4byte	.LVL37
ARM GAS  C:\Users\isaac\AppData\Local\Temp\cc1fpKCw.s 			page 152


 7481 0123 24000000 		.4byte	.LFE68
 7482 0127 0100     		.2byte	0x1
 7483 0129 50       		.byte	0x50
 7484 012a 00000000 		.4byte	0
 7485 012e 00000000 		.4byte	0
 7486              	.LLST8:
 7487 0132 00000000 		.4byte	.LVL42
 7488 0136 14000000 		.4byte	.LVL44
 7489 013a 0100     		.2byte	0x1
 7490 013c 50       		.byte	0x50
 7491 013d 14000000 		.4byte	.LVL44
 7492 0141 86000000 		.4byte	.LVL62
 7493 0145 0100     		.2byte	0x1
 7494 0147 58       		.byte	0x58
 7495 0148 86000000 		.4byte	.LVL62
 7496 014c 8C000000 		.4byte	.LFE66
 7497 0150 0400     		.2byte	0x4
 7498 0152 F3       		.byte	0xf3
 7499 0153 01       		.uleb128 0x1
 7500 0154 50       		.byte	0x50
 7501 0155 9F       		.byte	0x9f
 7502 0156 00000000 		.4byte	0
 7503 015a 00000000 		.4byte	0
 7504              	.LLST9:
 7505 015e 06000000 		.4byte	.LVL43
 7506 0162 14000000 		.4byte	.LVL44
 7507 0166 0200     		.2byte	0x2
 7508 0168 30       		.byte	0x30
 7509 0169 9F       		.byte	0x9f
 7510 016a 14000000 		.4byte	.LVL44
 7511 016e 86000000 		.4byte	.LVL62
 7512 0172 0100     		.2byte	0x1
 7513 0174 57       		.byte	0x57
 7514 0175 00000000 		.4byte	0
 7515 0179 00000000 		.4byte	0
 7516              	.LLST10:
 7517 017d 06000000 		.4byte	.LVL43
 7518 0181 14000000 		.4byte	.LVL44
 7519 0185 0200     		.2byte	0x2
 7520 0187 30       		.byte	0x30
 7521 0188 9F       		.byte	0x9f
 7522 0189 14000000 		.4byte	.LVL44
 7523 018d 6A000000 		.4byte	.LVL57
 7524 0191 0100     		.2byte	0x1
 7525 0193 56       		.byte	0x56
 7526 0194 6C000000 		.4byte	.LVL58
 7527 0198 86000000 		.4byte	.LVL62
 7528 019c 0100     		.2byte	0x1
 7529 019e 56       		.byte	0x56
 7530 019f 00000000 		.4byte	0
 7531 01a3 00000000 		.4byte	0
 7532              	.LLST11:
 7533 01a7 06000000 		.4byte	.LVL43
 7534 01ab 14000000 		.4byte	.LVL44
 7535 01af 0200     		.2byte	0x2
 7536 01b1 30       		.byte	0x30
 7537 01b2 9F       		.byte	0x9f
ARM GAS  C:\Users\isaac\AppData\Local\Temp\cc1fpKCw.s 			page 153


 7538 01b3 14000000 		.4byte	.LVL44
 7539 01b7 50000000 		.4byte	.LVL53
 7540 01bb 0100     		.2byte	0x1
 7541 01bd 5A       		.byte	0x5a
 7542 01be 50000000 		.4byte	.LVL53
 7543 01c2 72000000 		.4byte	.LVL59
 7544 01c6 0200     		.2byte	0x2
 7545 01c8 30       		.byte	0x30
 7546 01c9 9F       		.byte	0x9f
 7547 01ca 72000000 		.4byte	.LVL59
 7548 01ce 86000000 		.4byte	.LVL62
 7549 01d2 0100     		.2byte	0x1
 7550 01d4 5A       		.byte	0x5a
 7551 01d5 00000000 		.4byte	0
 7552 01d9 00000000 		.4byte	0
 7553              	.LLST12:
 7554 01dd 06000000 		.4byte	.LVL43
 7555 01e1 14000000 		.4byte	.LVL44
 7556 01e5 0200     		.2byte	0x2
 7557 01e7 30       		.byte	0x30
 7558 01e8 9F       		.byte	0x9f
 7559 01e9 14000000 		.4byte	.LVL44
 7560 01ed 86000000 		.4byte	.LVL62
 7561 01f1 0100     		.2byte	0x1
 7562 01f3 5B       		.byte	0x5b
 7563 01f4 00000000 		.4byte	0
 7564 01f8 00000000 		.4byte	0
 7565              	.LLST13:
 7566 01fc 06000000 		.4byte	.LVL43
 7567 0200 14000000 		.4byte	.LVL44
 7568 0204 0200     		.2byte	0x2
 7569 0206 30       		.byte	0x30
 7570 0207 9F       		.byte	0x9f
 7571 0208 14000000 		.4byte	.LVL44
 7572 020c 34000000 		.4byte	.LVL48
 7573 0210 0100     		.2byte	0x1
 7574 0212 55       		.byte	0x55
 7575 0213 34000000 		.4byte	.LVL48
 7576 0217 38000000 		.4byte	.LVL49
 7577 021b 0200     		.2byte	0x2
 7578 021d 30       		.byte	0x30
 7579 021e 9F       		.byte	0x9f
 7580 021f 38000000 		.4byte	.LVL49
 7581 0223 42000000 		.4byte	.LVL50
 7582 0227 0100     		.2byte	0x1
 7583 0229 55       		.byte	0x55
 7584 022a 42000000 		.4byte	.LVL50
 7585 022e 8C000000 		.4byte	.LFE66
 7586 0232 0200     		.2byte	0x2
 7587 0234 30       		.byte	0x30
 7588 0235 9F       		.byte	0x9f
 7589 0236 00000000 		.4byte	0
 7590 023a 00000000 		.4byte	0
 7591              	.LLST14:
 7592 023e 06000000 		.4byte	.LVL43
 7593 0242 14000000 		.4byte	.LVL44
 7594 0246 0200     		.2byte	0x2
ARM GAS  C:\Users\isaac\AppData\Local\Temp\cc1fpKCw.s 			page 154


 7595 0248 30       		.byte	0x30
 7596 0249 9F       		.byte	0x9f
 7597 024a 14000000 		.4byte	.LVL44
 7598 024e 86000000 		.4byte	.LVL62
 7599 0252 0100     		.2byte	0x1
 7600 0254 59       		.byte	0x59
 7601 0255 00000000 		.4byte	0
 7602 0259 00000000 		.4byte	0
 7603              	.LLST15:
 7604 025d 14000000 		.4byte	.LVL44
 7605 0261 34000000 		.4byte	.LVL48
 7606 0265 0100     		.2byte	0x1
 7607 0267 54       		.byte	0x54
 7608 0268 38000000 		.4byte	.LVL49
 7609 026c 76000000 		.4byte	.LVL60
 7610 0270 0100     		.2byte	0x1
 7611 0272 54       		.byte	0x54
 7612 0273 00000000 		.4byte	0
 7613 0277 00000000 		.4byte	0
 7614              	.LLST16:
 7615 027b 00000000 		.4byte	.LVL63
 7616 027f 04000000 		.4byte	.LVL64
 7617 0283 0200     		.2byte	0x2
 7618 0285 30       		.byte	0x30
 7619 0286 9F       		.byte	0x9f
 7620 0287 04000000 		.4byte	.LVL64
 7621 028b 20000000 		.4byte	.LFE69
 7622 028f 0100     		.2byte	0x1
 7623 0291 53       		.byte	0x53
 7624 0292 00000000 		.4byte	0
 7625 0296 00000000 		.4byte	0
 7626              	.LLST17:
 7627 029a 00000000 		.4byte	.LVL66
 7628 029e 11000000 		.4byte	.LVL67-1
 7629 02a2 0100     		.2byte	0x1
 7630 02a4 50       		.byte	0x50
 7631 02a5 11000000 		.4byte	.LVL67-1
 7632 02a9 66000000 		.4byte	.LVL73
 7633 02ad 0100     		.2byte	0x1
 7634 02af 54       		.byte	0x54
 7635 02b0 66000000 		.4byte	.LVL73
 7636 02b4 78000000 		.4byte	.LFE70
 7637 02b8 0400     		.2byte	0x4
 7638 02ba F3       		.byte	0xf3
 7639 02bb 01       		.uleb128 0x1
 7640 02bc 50       		.byte	0x50
 7641 02bd 9F       		.byte	0x9f
 7642 02be 00000000 		.4byte	0
 7643 02c2 00000000 		.4byte	0
 7644              	.LLST18:
 7645 02c6 12000000 		.4byte	.LVL67
 7646 02ca 16000000 		.4byte	.LVL68
 7647 02ce 0200     		.2byte	0x2
 7648 02d0 30       		.byte	0x30
 7649 02d1 9F       		.byte	0x9f
 7650 02d2 16000000 		.4byte	.LVL68
 7651 02d6 78000000 		.4byte	.LFE70
ARM GAS  C:\Users\isaac\AppData\Local\Temp\cc1fpKCw.s 			page 155


 7652 02da 0100     		.2byte	0x1
 7653 02dc 50       		.byte	0x50
 7654 02dd 00000000 		.4byte	0
 7655 02e1 00000000 		.4byte	0
 7656              	.LLST19:
 7657 02e5 16000000 		.4byte	.LVL68
 7658 02e9 32000000 		.4byte	.LVL70
 7659 02ed 0100     		.2byte	0x1
 7660 02ef 52       		.byte	0x52
 7661 02f0 34000000 		.4byte	.LVL71
 7662 02f4 3A000000 		.4byte	.LVL72
 7663 02f8 0100     		.2byte	0x1
 7664 02fa 52       		.byte	0x52
 7665 02fb 00000000 		.4byte	0
 7666 02ff 00000000 		.4byte	0
 7667              	.LLST20:
 7668 0303 02000000 		.4byte	.LVL74
 7669 0307 06000000 		.4byte	.LVL75
 7670 030b 0200     		.2byte	0x2
 7671 030d 30       		.byte	0x30
 7672 030e 9F       		.byte	0x9f
 7673 030f 06000000 		.4byte	.LVL75
 7674 0313 86000000 		.4byte	.LVL85
 7675 0317 0100     		.2byte	0x1
 7676 0319 55       		.byte	0x55
 7677 031a 00000000 		.4byte	0
 7678 031e 00000000 		.4byte	0
 7679              	.LLST21:
 7680 0322 2E000000 		.4byte	.LVL78
 7681 0326 32000000 		.4byte	.LVL79
 7682 032a 0200     		.2byte	0x2
 7683 032c 30       		.byte	0x30
 7684 032d 9F       		.byte	0x9f
 7685 032e 32000000 		.4byte	.LVL79
 7686 0332 7E000000 		.4byte	.LVL83
 7687 0336 0100     		.2byte	0x1
 7688 0338 54       		.byte	0x54
 7689 0339 00000000 		.4byte	0
 7690 033d 00000000 		.4byte	0
 7691              	.LLST22:
 7692 0341 02000000 		.4byte	.LVL86
 7693 0345 06000000 		.4byte	.LVL87
 7694 0349 0200     		.2byte	0x2
 7695 034b 30       		.byte	0x30
 7696 034c 9F       		.byte	0x9f
 7697 034d 06000000 		.4byte	.LVL87
 7698 0351 40000000 		.4byte	.LFE72
 7699 0355 0100     		.2byte	0x1
 7700 0357 51       		.byte	0x51
 7701 0358 00000000 		.4byte	0
 7702 035c 00000000 		.4byte	0
 7703              	.LLST23:
 7704 0360 06000000 		.4byte	.LVL87
 7705 0364 2C000000 		.4byte	.LVL89
 7706 0368 0100     		.2byte	0x1
 7707 036a 52       		.byte	0x52
 7708 036b 2E000000 		.4byte	.LVL90
ARM GAS  C:\Users\isaac\AppData\Local\Temp\cc1fpKCw.s 			page 156


 7709 036f 34000000 		.4byte	.LVL91
 7710 0373 0100     		.2byte	0x1
 7711 0375 52       		.byte	0x52
 7712 0376 00000000 		.4byte	0
 7713 037a 00000000 		.4byte	0
 7714              	.LLST24:
 7715 037e 06000000 		.4byte	.LVL96
 7716 0382 08000000 		.4byte	.LVL97
 7717 0386 0200     		.2byte	0x2
 7718 0388 30       		.byte	0x30
 7719 0389 9F       		.byte	0x9f
 7720 038a 08000000 		.4byte	.LVL97
 7721 038e 30000000 		.4byte	.LVL103
 7722 0392 0100     		.2byte	0x1
 7723 0394 52       		.byte	0x52
 7724 0395 54000000 		.4byte	.LVL105
 7725 0399 56000000 		.4byte	.LVL106
 7726 039d 0100     		.2byte	0x1
 7727 039f 52       		.byte	0x52
 7728 03a0 00000000 		.4byte	0
 7729 03a4 00000000 		.4byte	0
 7730              	.LLST25:
 7731 03a8 0E000000 		.4byte	.LVL98
 7732 03ac 20000000 		.4byte	.LVL101
 7733 03b0 0100     		.2byte	0x1
 7734 03b2 51       		.byte	0x51
 7735 03b3 20000000 		.4byte	.LVL101
 7736 03b7 2E000000 		.4byte	.LVL102
 7737 03bb 0A00     		.2byte	0xa
 7738 03bd 72       		.byte	0x72
 7739 03be 00       		.sleb128 0
 7740 03bf 33       		.byte	0x33
 7741 03c0 24       		.byte	0x24
 7742 03c1 03       		.byte	0x3
 7743 03c2 00000000 		.4byte	snake
 7744 03c6 22       		.byte	0x22
 7745 03c7 2E000000 		.4byte	.LVL102
 7746 03cb 30000000 		.4byte	.LVL103
 7747 03cf 0A00     		.2byte	0xa
 7748 03d1 72       		.byte	0x72
 7749 03d2 7F       		.sleb128 -1
 7750 03d3 33       		.byte	0x33
 7751 03d4 24       		.byte	0x24
 7752 03d5 03       		.byte	0x3
 7753 03d6 00000000 		.4byte	snake
 7754 03da 22       		.byte	0x22
 7755 03db 54000000 		.4byte	.LVL105
 7756 03df 56000000 		.4byte	.LVL106
 7757 03e3 0A00     		.2byte	0xa
 7758 03e5 72       		.byte	0x72
 7759 03e6 00       		.sleb128 0
 7760 03e7 33       		.byte	0x33
 7761 03e8 24       		.byte	0x24
 7762 03e9 03       		.byte	0x3
 7763 03ea 00000000 		.4byte	snake
 7764 03ee 22       		.byte	0x22
 7765 03ef 00000000 		.4byte	0
ARM GAS  C:\Users\isaac\AppData\Local\Temp\cc1fpKCw.s 			page 157


 7766 03f3 00000000 		.4byte	0
 7767              	.LLST26:
 7768 03f7 14000000 		.4byte	.LVL99
 7769 03fb 18000000 		.4byte	.LVL100
 7770 03ff 0100     		.2byte	0x1
 7771 0401 53       		.byte	0x53
 7772 0402 18000000 		.4byte	.LVL100
 7773 0406 2E000000 		.4byte	.LVL102
 7774 040a 0A00     		.2byte	0xa
 7775 040c 72       		.byte	0x72
 7776 040d 00       		.sleb128 0
 7777 040e 33       		.byte	0x33
 7778 040f 24       		.byte	0x24
 7779 0410 03       		.byte	0x3
 7780 0411 04000000 		.4byte	snake+4
 7781 0415 22       		.byte	0x22
 7782 0416 2E000000 		.4byte	.LVL102
 7783 041a 30000000 		.4byte	.LVL103
 7784 041e 0A00     		.2byte	0xa
 7785 0420 72       		.byte	0x72
 7786 0421 7F       		.sleb128 -1
 7787 0422 33       		.byte	0x33
 7788 0423 24       		.byte	0x24
 7789 0424 03       		.byte	0x3
 7790 0425 04000000 		.4byte	snake+4
 7791 0429 22       		.byte	0x22
 7792 042a 54000000 		.4byte	.LVL105
 7793 042e 56000000 		.4byte	.LVL106
 7794 0432 0A00     		.2byte	0xa
 7795 0434 72       		.byte	0x72
 7796 0435 00       		.sleb128 0
 7797 0436 33       		.byte	0x33
 7798 0437 24       		.byte	0x24
 7799 0438 03       		.byte	0x3
 7800 0439 04000000 		.4byte	snake+4
 7801 043d 22       		.byte	0x22
 7802 043e 00000000 		.4byte	0
 7803 0442 00000000 		.4byte	0
 7804              	.LLST27:
 7805 0446 30000000 		.4byte	.LVL103
 7806 044a 54000000 		.4byte	.LVL105
 7807 044e 0100     		.2byte	0x1
 7808 0450 53       		.byte	0x53
 7809 0451 56000000 		.4byte	.LVL106
 7810 0455 5F000000 		.4byte	.LVL107-1
 7811 0459 0100     		.2byte	0x1
 7812 045b 53       		.byte	0x53
 7813 045c 00000000 		.4byte	0
 7814 0460 00000000 		.4byte	0
 7815              	.LLST28:
 7816 0464 24000000 		.4byte	.LVL111
 7817 0468 C6000000 		.4byte	.LVL117
 7818 046c 0100     		.2byte	0x1
 7819 046e 51       		.byte	0x51
 7820 046f C6000000 		.4byte	.LVL117
 7821 0473 F6000000 		.4byte	.LVL120
 7822 0477 0500     		.2byte	0x5
ARM GAS  C:\Users\isaac\AppData\Local\Temp\cc1fpKCw.s 			page 158


 7823 0479 03       		.byte	0x3
 7824 047a 00000000 		.4byte	snake_tail
 7825 047e 52010000 		.4byte	.LVL130
 7826 0482 5C010000 		.4byte	.LVL133
 7827 0486 0100     		.2byte	0x1
 7828 0488 51       		.byte	0x51
 7829 0489 B2010000 		.4byte	.LVL142
 7830 048d C4010000 		.4byte	.LVL151
 7831 0491 0100     		.2byte	0x1
 7832 0493 51       		.byte	0x51
 7833 0494 00000000 		.4byte	0
 7834 0498 00000000 		.4byte	0
 7835              	.LLST29:
 7836 049c 2E000000 		.4byte	.LVL112
 7837 04a0 50010000 		.4byte	.LVL129
 7838 04a4 0200     		.2byte	0x2
 7839 04a6 70       		.byte	0x70
 7840 04a7 00       		.sleb128 0
 7841 04a8 50010000 		.4byte	.LVL129
 7842 04ac 52010000 		.4byte	.LVL130
 7843 04b0 0200     		.2byte	0x2
 7844 04b2 7D       		.byte	0x7d
 7845 04b3 00       		.sleb128 0
 7846 04b4 52010000 		.4byte	.LVL130
 7847 04b8 B0010000 		.4byte	.LVL141
 7848 04bc 0200     		.2byte	0x2
 7849 04be 70       		.byte	0x70
 7850 04bf 00       		.sleb128 0
 7851 04c0 B0010000 		.4byte	.LVL141
 7852 04c4 B2010000 		.4byte	.LVL142
 7853 04c8 0200     		.2byte	0x2
 7854 04ca 7D       		.byte	0x7d
 7855 04cb 00       		.sleb128 0
 7856 04cc B2010000 		.4byte	.LVL142
 7857 04d0 B4010000 		.4byte	.LVL143
 7858 04d4 0200     		.2byte	0x2
 7859 04d6 70       		.byte	0x70
 7860 04d7 00       		.sleb128 0
 7861 04d8 B4010000 		.4byte	.LVL143
 7862 04dc B6010000 		.4byte	.LVL144
 7863 04e0 0200     		.2byte	0x2
 7864 04e2 7D       		.byte	0x7d
 7865 04e3 00       		.sleb128 0
 7866 04e4 B6010000 		.4byte	.LVL144
 7867 04e8 B8010000 		.4byte	.LVL145
 7868 04ec 0200     		.2byte	0x2
 7869 04ee 70       		.byte	0x70
 7870 04ef 00       		.sleb128 0
 7871 04f0 B8010000 		.4byte	.LVL145
 7872 04f4 BA010000 		.4byte	.LVL146
 7873 04f8 0200     		.2byte	0x2
 7874 04fa 7D       		.byte	0x7d
 7875 04fb 00       		.sleb128 0
 7876 04fc BA010000 		.4byte	.LVL146
 7877 0500 BC010000 		.4byte	.LVL147
 7878 0504 0200     		.2byte	0x2
 7879 0506 70       		.byte	0x70
ARM GAS  C:\Users\isaac\AppData\Local\Temp\cc1fpKCw.s 			page 159


 7880 0507 00       		.sleb128 0
 7881 0508 BC010000 		.4byte	.LVL147
 7882 050c BE010000 		.4byte	.LVL148
 7883 0510 0200     		.2byte	0x2
 7884 0512 7D       		.byte	0x7d
 7885 0513 00       		.sleb128 0
 7886 0514 BE010000 		.4byte	.LVL148
 7887 0518 C0010000 		.4byte	.LVL149
 7888 051c 0200     		.2byte	0x2
 7889 051e 70       		.byte	0x70
 7890 051f 00       		.sleb128 0
 7891 0520 C0010000 		.4byte	.LVL149
 7892 0524 C2010000 		.4byte	.LVL150
 7893 0528 0200     		.2byte	0x2
 7894 052a 7D       		.byte	0x7d
 7895 052b 00       		.sleb128 0
 7896 052c C2010000 		.4byte	.LVL150
 7897 0530 C4010000 		.4byte	.LVL151
 7898 0534 0200     		.2byte	0x2
 7899 0536 70       		.byte	0x70
 7900 0537 00       		.sleb128 0
 7901 0538 C4010000 		.4byte	.LVL151
 7902 053c C8010000 		.4byte	.LVL152
 7903 0540 0200     		.2byte	0x2
 7904 0542 7D       		.byte	0x7d
 7905 0543 00       		.sleb128 0
 7906 0544 00000000 		.4byte	0
 7907 0548 00000000 		.4byte	0
 7908              	.LLST30:
 7909 054c 8C000000 		.4byte	.LVL113
 7910 0550 AC000000 		.4byte	.LVL115
 7911 0554 0100     		.2byte	0x1
 7912 0556 53       		.byte	0x53
 7913 0557 C2010000 		.4byte	.LVL150
 7914 055b C4010000 		.4byte	.LVL151
 7915 055f 0100     		.2byte	0x1
 7916 0561 53       		.byte	0x53
 7917 0562 00000000 		.4byte	0
 7918 0566 00000000 		.4byte	0
 7919              	.LLST31:
 7920 056a AE000000 		.4byte	.LVL116
 7921 056e F0000000 		.4byte	.LVL118
 7922 0572 0100     		.2byte	0x1
 7923 0574 53       		.byte	0x53
 7924 0575 52010000 		.4byte	.LVL130
 7925 0579 5A010000 		.4byte	.LVL132
 7926 057d 0100     		.2byte	0x1
 7927 057f 53       		.byte	0x53
 7928 0580 00000000 		.4byte	0
 7929 0584 00000000 		.4byte	0
 7930              	.LLST32:
 7931 0588 F2000000 		.4byte	.LVL119
 7932 058c F6000000 		.4byte	.LVL120
 7933 0590 0200     		.2byte	0x2
 7934 0592 30       		.byte	0x30
 7935 0593 9F       		.byte	0x9f
 7936 0594 F6000000 		.4byte	.LVL120
ARM GAS  C:\Users\isaac\AppData\Local\Temp\cc1fpKCw.s 			page 160


 7937 0598 1C010000 		.4byte	.LVL122
 7938 059c 0100     		.2byte	0x1
 7939 059e 53       		.byte	0x53
 7940 059f 00000000 		.4byte	0
 7941 05a3 00000000 		.4byte	0
 7942              	.LLST33:
 7943 05a7 26010000 		.4byte	.LVL123
 7944 05ab 2A010000 		.4byte	.LVL124
 7945 05af 0200     		.2byte	0x2
 7946 05b1 30       		.byte	0x30
 7947 05b2 9F       		.byte	0x9f
 7948 05b3 2A010000 		.4byte	.LVL124
 7949 05b7 3A010000 		.4byte	.LVL125
 7950 05bb 0100     		.2byte	0x1
 7951 05bd 53       		.byte	0x53
 7952 05be 3A010000 		.4byte	.LVL125
 7953 05c2 42010000 		.4byte	.LVL126
 7954 05c6 0300     		.2byte	0x3
 7955 05c8 71       		.byte	0x71
 7956 05c9 7F       		.sleb128 -1
 7957 05ca 9F       		.byte	0x9f
 7958 05cb 42010000 		.4byte	.LVL126
 7959 05cf 44010000 		.4byte	.LVL127
 7960 05d3 0100     		.2byte	0x1
 7961 05d5 51       		.byte	0x51
 7962 05d6 44010000 		.4byte	.LVL127
 7963 05da 4A010000 		.4byte	.LVL128
 7964 05de 0100     		.2byte	0x1
 7965 05e0 53       		.byte	0x53
 7966 05e1 00000000 		.4byte	0
 7967 05e5 00000000 		.4byte	0
 7968              	.LLST34:
 7969 05e9 5C010000 		.4byte	.LVL133
 7970 05ed 7E010000 		.4byte	.LVL135
 7971 05f1 0100     		.2byte	0x1
 7972 05f3 53       		.byte	0x53
 7973 05f4 00000000 		.4byte	0
 7974 05f8 00000000 		.4byte	0
 7975              	.LLST35:
 7976 05fc 8C010000 		.4byte	.LVL136
 7977 0600 90010000 		.4byte	.LVL137
 7978 0604 0200     		.2byte	0x2
 7979 0606 30       		.byte	0x30
 7980 0607 9F       		.byte	0x9f
 7981 0608 90010000 		.4byte	.LVL137
 7982 060c A0010000 		.4byte	.LVL138
 7983 0610 0100     		.2byte	0x1
 7984 0612 53       		.byte	0x53
 7985 0613 A0010000 		.4byte	.LVL138
 7986 0617 A8010000 		.4byte	.LVL139
 7987 061b 0300     		.2byte	0x3
 7988 061d 71       		.byte	0x71
 7989 061e 7F       		.sleb128 -1
 7990 061f 9F       		.byte	0x9f
 7991 0620 A8010000 		.4byte	.LVL139
 7992 0624 AA010000 		.4byte	.LVL140
 7993 0628 0100     		.2byte	0x1
ARM GAS  C:\Users\isaac\AppData\Local\Temp\cc1fpKCw.s 			page 161


 7994 062a 51       		.byte	0x51
 7995 062b AA010000 		.4byte	.LVL140
 7996 062f B2010000 		.4byte	.LVL142
 7997 0633 0100     		.2byte	0x1
 7998 0635 53       		.byte	0x53
 7999 0636 00000000 		.4byte	0
 8000 063a 00000000 		.4byte	0
 8001              	.LLST36:
 8002 063e 02000000 		.4byte	.LVL153
 8003 0642 06000000 		.4byte	.LVL154
 8004 0646 0200     		.2byte	0x2
 8005 0648 30       		.byte	0x30
 8006 0649 9F       		.byte	0x9f
 8007 064a 06000000 		.4byte	.LVL154
 8008 064e 3C000000 		.4byte	.LFE79
 8009 0652 0100     		.2byte	0x1
 8010 0654 51       		.byte	0x51
 8011 0655 00000000 		.4byte	0
 8012 0659 00000000 		.4byte	0
 8013              	.LLST37:
 8014 065d 14000000 		.4byte	.LVL155
 8015 0661 18000000 		.4byte	.LVL156
 8016 0665 0200     		.2byte	0x2
 8017 0667 31       		.byte	0x31
 8018 0668 9F       		.byte	0x9f
 8019 0669 18000000 		.4byte	.LVL156
 8020 066d 30000000 		.4byte	.LVL158
 8021 0671 0100     		.2byte	0x1
 8022 0673 52       		.byte	0x52
 8023 0674 00000000 		.4byte	0
 8024 0678 00000000 		.4byte	0
 8025              	.LLST38:
 8026 067c 06000000 		.4byte	.LVL159
 8027 0680 0A000000 		.4byte	.LVL160
 8028 0684 0200     		.2byte	0x2
 8029 0686 30       		.byte	0x30
 8030 0687 9F       		.byte	0x9f
 8031 0688 0A000000 		.4byte	.LVL160
 8032 068c 4C000000 		.4byte	.LVL166
 8033 0690 0100     		.2byte	0x1
 8034 0692 55       		.byte	0x55
 8035 0693 00000000 		.4byte	0
 8036 0697 00000000 		.4byte	0
 8037              	.LLST39:
 8038 069b 24000000 		.4byte	.LVL161
 8039 069f 28000000 		.4byte	.LVL162
 8040 06a3 0200     		.2byte	0x2
 8041 06a5 31       		.byte	0x31
 8042 06a6 9F       		.byte	0x9f
 8043 06a7 28000000 		.4byte	.LVL162
 8044 06ab 46000000 		.4byte	.LVL165
 8045 06af 0100     		.2byte	0x1
 8046 06b1 54       		.byte	0x54
 8047 06b2 00000000 		.4byte	0
 8048 06b6 00000000 		.4byte	0
 8049              	.LLST40:
 8050 06ba 02000000 		.4byte	.LVL167
ARM GAS  C:\Users\isaac\AppData\Local\Temp\cc1fpKCw.s 			page 162


 8051 06be 06000000 		.4byte	.LVL168
 8052 06c2 0200     		.2byte	0x2
 8053 06c4 30       		.byte	0x30
 8054 06c5 9F       		.byte	0x9f
 8055 06c6 06000000 		.4byte	.LVL168
 8056 06ca 48000000 		.4byte	.LVL174
 8057 06ce 0100     		.2byte	0x1
 8058 06d0 55       		.byte	0x55
 8059 06d1 00000000 		.4byte	0
 8060 06d5 00000000 		.4byte	0
 8061              	.LLST41:
 8062 06d9 20000000 		.4byte	.LVL169
 8063 06dd 24000000 		.4byte	.LVL170
 8064 06e1 0200     		.2byte	0x2
 8065 06e3 31       		.byte	0x31
 8066 06e4 9F       		.byte	0x9f
 8067 06e5 24000000 		.4byte	.LVL170
 8068 06e9 42000000 		.4byte	.LVL173
 8069 06ed 0100     		.2byte	0x1
 8070 06ef 54       		.byte	0x54
 8071 06f0 00000000 		.4byte	0
 8072 06f4 00000000 		.4byte	0
 8073              	.LLST42:
 8074 06f8 02000000 		.4byte	.LVL175
 8075 06fc 06000000 		.4byte	.LVL176
 8076 0700 0200     		.2byte	0x2
 8077 0702 30       		.byte	0x30
 8078 0703 9F       		.byte	0x9f
 8079 0704 06000000 		.4byte	.LVL176
 8080 0708 48000000 		.4byte	.LVL183
 8081 070c 0100     		.2byte	0x1
 8082 070e 55       		.byte	0x55
 8083 070f 00000000 		.4byte	0
 8084 0713 00000000 		.4byte	0
 8085              	.LLST43:
 8086 0717 20000000 		.4byte	.LVL178
 8087 071b 24000000 		.4byte	.LVL179
 8088 071f 0200     		.2byte	0x2
 8089 0721 31       		.byte	0x31
 8090 0722 9F       		.byte	0x9f
 8091 0723 24000000 		.4byte	.LVL179
 8092 0727 42000000 		.4byte	.LVL182
 8093 072b 0100     		.2byte	0x1
 8094 072d 54       		.byte	0x54
 8095 072e 00000000 		.4byte	0
 8096 0732 00000000 		.4byte	0
 8097              	.LLST44:
 8098 0736 00000000 		.4byte	.LVL184
 8099 073a 22000000 		.4byte	.LVL187
 8100 073e 0300     		.2byte	0x3
 8101 0740 09       		.byte	0x9
 8102 0741 FF       		.byte	0xff
 8103 0742 9F       		.byte	0x9f
 8104 0743 22000000 		.4byte	.LVL187
 8105 0747 2A000000 		.4byte	.LVL188
 8106 074b 0100     		.2byte	0x1
 8107 074d 53       		.byte	0x53
ARM GAS  C:\Users\isaac\AppData\Local\Temp\cc1fpKCw.s 			page 163


 8108 074e B4000000 		.4byte	.LVL197
 8109 0752 B8000000 		.4byte	.LVL198
 8110 0756 0100     		.2byte	0x1
 8111 0758 53       		.byte	0x53
 8112 0759 00000000 		.4byte	0
 8113 075d 00000000 		.4byte	0
 8114              	.LLST45:
 8115 0761 00000000 		.4byte	.LVL184
 8116 0765 04000000 		.4byte	.LVL185
 8117 0769 0200     		.2byte	0x2
 8118 076b 30       		.byte	0x30
 8119 076c 9F       		.byte	0x9f
 8120 076d 04000000 		.4byte	.LVL185
 8121 0771 22000000 		.4byte	.LVL187
 8122 0775 0100     		.2byte	0x1
 8123 0777 53       		.byte	0x53
 8124 0778 00000000 		.4byte	0
 8125 077c 00000000 		.4byte	0
 8126              	.LLST46:
 8127 0780 30000000 		.4byte	.LVL189
 8128 0784 34000000 		.4byte	.LVL190
 8129 0788 0200     		.2byte	0x2
 8130 078a 30       		.byte	0x30
 8131 078b 9F       		.byte	0x9f
 8132 078c 34000000 		.4byte	.LVL190
 8133 0790 50000000 		.4byte	.LVL192
 8134 0794 0100     		.2byte	0x1
 8135 0796 53       		.byte	0x53
 8136 0797 00000000 		.4byte	0
 8137 079b 00000000 		.4byte	0
 8138              	.LLST47:
 8139 079f 50000000 		.4byte	.LVL192
 8140 07a3 B4000000 		.4byte	.LVL197
 8141 07a7 0100     		.2byte	0x1
 8142 07a9 57       		.byte	0x57
 8143 07aa B8000000 		.4byte	.LVL198
 8144 07ae BC000000 		.4byte	.LVL199
 8145 07b2 0100     		.2byte	0x1
 8146 07b4 57       		.byte	0x57
 8147 07b5 00000000 		.4byte	0
 8148 07b9 00000000 		.4byte	0
 8149              	.LLST48:
 8150 07bd 50000000 		.4byte	.LVL192
 8151 07c1 80000000 		.4byte	.LVL193
 8152 07c5 0100     		.2byte	0x1
 8153 07c7 53       		.byte	0x53
 8154 07c8 80000000 		.4byte	.LVL193
 8155 07cc A0000000 		.4byte	.LVL194
 8156 07d0 0300     		.2byte	0x3
 8157 07d2 74       		.byte	0x74
 8158 07d3 7F       		.sleb128 -1
 8159 07d4 9F       		.byte	0x9f
 8160 07d5 A2000000 		.4byte	.LVL195
 8161 07d9 AC000000 		.4byte	.LVL196
 8162 07dd 0100     		.2byte	0x1
 8163 07df 53       		.byte	0x53
 8164 07e0 00000000 		.4byte	0
ARM GAS  C:\Users\isaac\AppData\Local\Temp\cc1fpKCw.s 			page 164


 8165 07e4 00000000 		.4byte	0
 8166              	.LLST49:
 8167 07e8 02000000 		.4byte	.LVL200
 8168 07ec 06000000 		.4byte	.LVL201
 8169 07f0 0200     		.2byte	0x2
 8170 07f2 30       		.byte	0x30
 8171 07f3 9F       		.byte	0x9f
 8172 07f4 06000000 		.4byte	.LVL201
 8173 07f8 94000000 		.4byte	.LFE83
 8174 07fc 0100     		.2byte	0x1
 8175 07fe 56       		.byte	0x56
 8176 07ff 00000000 		.4byte	0
 8177 0803 00000000 		.4byte	0
 8178              	.LLST50:
 8179 0807 5E000000 		.4byte	.LVL212
 8180 080b 62000000 		.4byte	.LVL213
 8181 080f 0200     		.2byte	0x2
 8182 0811 30       		.byte	0x30
 8183 0812 9F       		.byte	0x9f
 8184 0813 62000000 		.4byte	.LVL213
 8185 0817 94000000 		.4byte	.LFE83
 8186 081b 0100     		.2byte	0x1
 8187 081d 54       		.byte	0x54
 8188 081e 00000000 		.4byte	0
 8189 0822 00000000 		.4byte	0
 8190              	.LLST51:
 8191 0826 02000000 		.4byte	.LVL222
 8192 082a 08000000 		.4byte	.LVL223
 8193 082e 0200     		.2byte	0x2
 8194 0830 30       		.byte	0x30
 8195 0831 9F       		.byte	0x9f
 8196 0832 08000000 		.4byte	.LVL223
 8197 0836 2C000000 		.4byte	.LFE88
 8198 083a 0100     		.2byte	0x1
 8199 083c 51       		.byte	0x51
 8200 083d 00000000 		.4byte	0
 8201 0841 00000000 		.4byte	0
 8202              	.LLST52:
 8203 0845 02000000 		.4byte	.LVL222
 8204 0849 08000000 		.4byte	.LVL223
 8205 084d 0200     		.2byte	0x2
 8206 084f 34       		.byte	0x34
 8207 0850 9F       		.byte	0x9f
 8208 0851 08000000 		.4byte	.LVL223
 8209 0855 1C000000 		.4byte	.LVL226
 8210 0859 0100     		.2byte	0x1
 8211 085b 53       		.byte	0x53
 8212 085c 00000000 		.4byte	0
 8213 0860 00000000 		.4byte	0
 8214              	.LLST53:
 8215 0864 F0000000 		.4byte	.LVL228
 8216 0868 F2000000 		.4byte	.LVL229
 8217 086c 0200     		.2byte	0x2
 8218 086e 30       		.byte	0x30
 8219 086f 9F       		.byte	0x9f
 8220 0870 F2000000 		.4byte	.LVL229
 8221 0874 0B010000 		.4byte	.LVL231-1
ARM GAS  C:\Users\isaac\AppData\Local\Temp\cc1fpKCw.s 			page 165


 8222 0878 0100     		.2byte	0x1
 8223 087a 52       		.byte	0x52
 8224 087b 00000000 		.4byte	0
 8225 087f 00000000 		.4byte	0
 8226              	.LLST54:
 8227 0883 B8010000 		.4byte	.LVL232
 8228 0887 BA010000 		.4byte	.LVL233
 8229 088b 0200     		.2byte	0x2
 8230 088d 30       		.byte	0x30
 8231 088e 9F       		.byte	0x9f
 8232 088f BA010000 		.4byte	.LVL233
 8233 0893 D3010000 		.4byte	.LVL235-1
 8234 0897 0100     		.2byte	0x1
 8235 0899 52       		.byte	0x52
 8236 089a 00000000 		.4byte	0
 8237 089e 00000000 		.4byte	0
 8238              	.LLST55:
 8239 08a2 98000000 		.4byte	.LVL251
 8240 08a6 AE000000 		.4byte	.LVL256
 8241 08aa 0200     		.2byte	0x2
 8242 08ac 30       		.byte	0x30
 8243 08ad 9F       		.byte	0x9f
 8244 08ae AE000000 		.4byte	.LVL256
 8245 08b2 B3000000 		.4byte	.LVL257-1
 8246 08b6 0100     		.2byte	0x1
 8247 08b8 53       		.byte	0x53
 8248 08b9 00000000 		.4byte	0
 8249 08bd 00000000 		.4byte	0
 8250              	.LLST56:
 8251 08c1 98000000 		.4byte	.LVL251
 8252 08c5 9C000000 		.4byte	.LVL252
 8253 08c9 0200     		.2byte	0x2
 8254 08cb 30       		.byte	0x30
 8255 08cc 9F       		.byte	0x9f
 8256 08cd 9C000000 		.4byte	.LVL252
 8257 08d1 AA000000 		.4byte	.LVL254
 8258 08d5 0100     		.2byte	0x1
 8259 08d7 53       		.byte	0x53
 8260 08d8 AC000000 		.4byte	.LVL255
 8261 08dc AE000000 		.4byte	.LVL256
 8262 08e0 0100     		.2byte	0x1
 8263 08e2 53       		.byte	0x53
 8264 08e3 00000000 		.4byte	0
 8265 08e7 00000000 		.4byte	0
 8266              	.LLST57:
 8267 08eb 1E000000 		.4byte	.LVL328
 8268 08ef 23000000 		.4byte	.LVL329-1
 8269 08f3 0100     		.2byte	0x1
 8270 08f5 50       		.byte	0x50
 8271 08f6 26000000 		.4byte	.LVL330
 8272 08fa 2F000000 		.4byte	.LVL331-1
 8273 08fe 0100     		.2byte	0x1
 8274 0900 50       		.byte	0x50
 8275 0901 00000000 		.4byte	0
 8276 0905 00000000 		.4byte	0
 8277              	.LLST58:
 8278 0909 56000000 		.4byte	.LVL333
ARM GAS  C:\Users\isaac\AppData\Local\Temp\cc1fpKCw.s 			page 166


 8279 090d 58000000 		.4byte	.LVL334
 8280 0911 0100     		.2byte	0x1
 8281 0913 50       		.byte	0x50
 8282 0914 58000000 		.4byte	.LVL334
 8283 0918 5B000000 		.4byte	.LVL335-1
 8284 091c 0C00     		.2byte	0xc
 8285 091e 73       		.byte	0x73
 8286 091f 00       		.sleb128 0
 8287 0920 03       		.byte	0x3
 8288 0921 00000000 		.4byte	period_offs
 8289 0925 06       		.byte	0x6
 8290 0926 31       		.byte	0x31
 8291 0927 24       		.byte	0x24
 8292 0928 1B       		.byte	0x1b
 8293 0929 9F       		.byte	0x9f
 8294 092a 00000000 		.4byte	0
 8295 092e 00000000 		.4byte	0
 8296              		.section	.debug_aranges,"",%progbits
 8297 0000 EC000000 		.4byte	0xec
 8298 0004 0200     		.2byte	0x2
 8299 0006 00000000 		.4byte	.Ldebug_info0
 8300 000a 04       		.byte	0x4
 8301 000b 00       		.byte	0
 8302 000c 0000     		.2byte	0
 8303 000e 0000     		.2byte	0
 8304 0010 00000000 		.4byte	.LFB84
 8305 0014 30000000 		.4byte	.LFE84-.LFB84
 8306 0018 00000000 		.4byte	.LFB85
 8307 001c 20000000 		.4byte	.LFE85-.LFB85
 8308 0020 00000000 		.4byte	.LFB87
 8309 0024 20000000 		.4byte	.LFE87-.LFB87
 8310 0028 00000000 		.4byte	.LFB64
 8311 002c 06000000 		.4byte	.LFE64-.LFB64
 8312 0030 00000000 		.4byte	.LFB65
 8313 0034 1A000000 		.4byte	.LFE65-.LFB65
 8314 0038 00000000 		.4byte	.LFB67
 8315 003c 90000000 		.4byte	.LFE67-.LFB67
 8316 0040 00000000 		.4byte	.LFB68
 8317 0044 24000000 		.4byte	.LFE68-.LFB68
 8318 0048 00000000 		.4byte	.LFB66
 8319 004c 8C000000 		.4byte	.LFE66-.LFB66
 8320 0050 00000000 		.4byte	.LFB69
 8321 0054 20000000 		.4byte	.LFE69-.LFB69
 8322 0058 00000000 		.4byte	.LFB70
 8323 005c 78000000 		.4byte	.LFE70-.LFB70
 8324 0060 00000000 		.4byte	.LFB71
 8325 0064 94000000 		.4byte	.LFE71-.LFB71
 8326 0068 00000000 		.4byte	.LFB72
 8327 006c 40000000 		.4byte	.LFE72-.LFB72
 8328 0070 00000000 		.4byte	.LFB73
 8329 0074 2C000000 		.4byte	.LFE73-.LFB73
 8330 0078 00000000 		.4byte	.LFB74
 8331 007c 7C000000 		.4byte	.LFE74-.LFB74
 8332 0080 00000000 		.4byte	.LFB75
 8333 0084 4C000000 		.4byte	.LFE75-.LFB75
 8334 0088 00000000 		.4byte	.LFB76
 8335 008c DC010000 		.4byte	.LFE76-.LFB76
ARM GAS  C:\Users\isaac\AppData\Local\Temp\cc1fpKCw.s 			page 167


 8336 0090 00000000 		.4byte	.LFB79
 8337 0094 3C000000 		.4byte	.LFE79-.LFB79
 8338 0098 00000000 		.4byte	.LFB78
 8339 009c 50000000 		.4byte	.LFE78-.LFB78
 8340 00a0 00000000 		.4byte	.LFB80
 8341 00a4 4C000000 		.4byte	.LFE80-.LFB80
 8342 00a8 00000000 		.4byte	.LFB81
 8343 00ac 4C000000 		.4byte	.LFE81-.LFB81
 8344 00b0 00000000 		.4byte	.LFB82
 8345 00b4 C8000000 		.4byte	.LFE82-.LFB82
 8346 00b8 00000000 		.4byte	.LFB83
 8347 00bc 94000000 		.4byte	.LFE83-.LFB83
 8348 00c0 00000000 		.4byte	.LFB88
 8349 00c4 2C000000 		.4byte	.LFE88-.LFB88
 8350 00c8 00000000 		.4byte	.LFB90
 8351 00cc F4010000 		.4byte	.LFE90-.LFB90
 8352 00d0 00000000 		.4byte	.LFB89
 8353 00d4 24000000 		.4byte	.LFE89-.LFB89
 8354 00d8 00000000 		.4byte	.LFB77
 8355 00dc 00030000 		.4byte	.LFE77-.LFB77
 8356 00e0 00000000 		.4byte	.LFB86
 8357 00e4 74000000 		.4byte	.LFE86-.LFB86
 8358 00e8 00000000 		.4byte	0
 8359 00ec 00000000 		.4byte	0
 8360              		.section	.debug_ranges,"",%progbits
 8361              	.Ldebug_ranges0:
 8362 0000 06000000 		.4byte	.LBB2
 8363 0004 0A000000 		.4byte	.LBE2
 8364 0008 12000000 		.4byte	.LBB5
 8365 000c 7C000000 		.4byte	.LBE5
 8366 0010 00000000 		.4byte	0
 8367 0014 00000000 		.4byte	0
 8368 0018 14000000 		.4byte	.LBB3
 8369 001c 34000000 		.4byte	.LBE3
 8370 0020 38000000 		.4byte	.LBB4
 8371 0024 3C000000 		.4byte	.LBE4
 8372 0028 00000000 		.4byte	0
 8373 002c 00000000 		.4byte	0
 8374 0030 16000000 		.4byte	.LBB8
 8375 0034 32000000 		.4byte	.LBE8
 8376 0038 34000000 		.4byte	.LBB9
 8377 003c 38000000 		.4byte	.LBE9
 8378 0040 00000000 		.4byte	0
 8379 0044 00000000 		.4byte	0
 8380 0048 06000000 		.4byte	.LBB13
 8381 004c 2C000000 		.4byte	.LBE13
 8382 0050 2E000000 		.4byte	.LBB14
 8383 0054 32000000 		.4byte	.LBE14
 8384 0058 00000000 		.4byte	0
 8385 005c 00000000 		.4byte	0
 8386 0060 30000000 		.4byte	.LBB16
 8387 0064 54000000 		.4byte	.LBE16
 8388 0068 56000000 		.4byte	.LBB17
 8389 006c 5A000000 		.4byte	.LBE17
 8390 0070 00000000 		.4byte	0
 8391 0074 00000000 		.4byte	0
 8392 0078 8C000000 		.4byte	.LBB18
ARM GAS  C:\Users\isaac\AppData\Local\Temp\cc1fpKCw.s 			page 168


 8393 007c AE000000 		.4byte	.LBE18
 8394 0080 C2010000 		.4byte	.LBB25
 8395 0084 C4010000 		.4byte	.LBE25
 8396 0088 00000000 		.4byte	0
 8397 008c 00000000 		.4byte	0
 8398 0090 8C010000 		.4byte	.LBB23
 8399 0094 AE010000 		.4byte	.LBE23
 8400 0098 B0010000 		.4byte	.LBB24
 8401 009c B2010000 		.4byte	.LBE24
 8402 00a0 00000000 		.4byte	0
 8403 00a4 00000000 		.4byte	0
 8404 00a8 30000000 		.4byte	.LBB35
 8405 00ac 48000000 		.4byte	.LBE35
 8406 00b0 4C000000 		.4byte	.LBB36
 8407 00b4 50000000 		.4byte	.LBE36
 8408 00b8 00000000 		.4byte	0
 8409 00bc 00000000 		.4byte	0
 8410 00c0 50000000 		.4byte	.LBB37
 8411 00c4 B0000000 		.4byte	.LBE37
 8412 00c8 B2000000 		.4byte	.LBB40
 8413 00cc B4000000 		.4byte	.LBE40
 8414 00d0 00000000 		.4byte	0
 8415 00d4 00000000 		.4byte	0
 8416 00d8 50000000 		.4byte	.LBB38
 8417 00dc 9C000000 		.4byte	.LBE38
 8418 00e0 A2000000 		.4byte	.LBB39
 8419 00e4 AA000000 		.4byte	.LBE39
 8420 00e8 00000000 		.4byte	0
 8421 00ec 00000000 		.4byte	0
 8422 00f0 02000000 		.4byte	.LBB43
 8423 00f4 04000000 		.4byte	.LBE43
 8424 00f8 06000000 		.4byte	.LBB44
 8425 00fc 18000000 		.4byte	.LBE44
 8426 0100 00000000 		.4byte	0
 8427 0104 00000000 		.4byte	0
 8428 0108 98000000 		.4byte	.LBB48
 8429 010c A8000000 		.4byte	.LBE48
 8430 0110 AA000000 		.4byte	.LBB49
 8431 0114 AE000000 		.4byte	.LBE49
 8432 0118 00000000 		.4byte	0
 8433 011c 00000000 		.4byte	0
 8434 0120 00000000 		.4byte	.LFB84
 8435 0124 30000000 		.4byte	.LFE84
 8436 0128 00000000 		.4byte	.LFB85
 8437 012c 20000000 		.4byte	.LFE85
 8438 0130 00000000 		.4byte	.LFB87
 8439 0134 20000000 		.4byte	.LFE87
 8440 0138 00000000 		.4byte	.LFB64
 8441 013c 06000000 		.4byte	.LFE64
 8442 0140 00000000 		.4byte	.LFB65
 8443 0144 1A000000 		.4byte	.LFE65
 8444 0148 00000000 		.4byte	.LFB67
 8445 014c 90000000 		.4byte	.LFE67
 8446 0150 00000000 		.4byte	.LFB68
 8447 0154 24000000 		.4byte	.LFE68
 8448 0158 00000000 		.4byte	.LFB66
 8449 015c 8C000000 		.4byte	.LFE66
ARM GAS  C:\Users\isaac\AppData\Local\Temp\cc1fpKCw.s 			page 169


 8450 0160 00000000 		.4byte	.LFB69
 8451 0164 20000000 		.4byte	.LFE69
 8452 0168 00000000 		.4byte	.LFB70
 8453 016c 78000000 		.4byte	.LFE70
 8454 0170 00000000 		.4byte	.LFB71
 8455 0174 94000000 		.4byte	.LFE71
 8456 0178 00000000 		.4byte	.LFB72
 8457 017c 40000000 		.4byte	.LFE72
 8458 0180 00000000 		.4byte	.LFB73
 8459 0184 2C000000 		.4byte	.LFE73
 8460 0188 00000000 		.4byte	.LFB74
 8461 018c 7C000000 		.4byte	.LFE74
 8462 0190 00000000 		.4byte	.LFB75
 8463 0194 4C000000 		.4byte	.LFE75
 8464 0198 00000000 		.4byte	.LFB76
 8465 019c DC010000 		.4byte	.LFE76
 8466 01a0 00000000 		.4byte	.LFB79
 8467 01a4 3C000000 		.4byte	.LFE79
 8468 01a8 00000000 		.4byte	.LFB78
 8469 01ac 50000000 		.4byte	.LFE78
 8470 01b0 00000000 		.4byte	.LFB80
 8471 01b4 4C000000 		.4byte	.LFE80
 8472 01b8 00000000 		.4byte	.LFB81
 8473 01bc 4C000000 		.4byte	.LFE81
 8474 01c0 00000000 		.4byte	.LFB82
 8475 01c4 C8000000 		.4byte	.LFE82
 8476 01c8 00000000 		.4byte	.LFB83
 8477 01cc 94000000 		.4byte	.LFE83
 8478 01d0 00000000 		.4byte	.LFB88
 8479 01d4 2C000000 		.4byte	.LFE88
 8480 01d8 00000000 		.4byte	.LFB90
 8481 01dc F4010000 		.4byte	.LFE90
 8482 01e0 00000000 		.4byte	.LFB89
 8483 01e4 24000000 		.4byte	.LFE89
 8484 01e8 00000000 		.4byte	.LFB77
 8485 01ec 00030000 		.4byte	.LFE77
 8486 01f0 00000000 		.4byte	.LFB86
 8487 01f4 74000000 		.4byte	.LFE86
 8488 01f8 00000000 		.4byte	0
 8489 01fc 00000000 		.4byte	0
 8490              		.section	.debug_line,"",%progbits
 8491              	.Ldebug_line0:
 8492 0000 57090000 		.section	.debug_str,"MS",%progbits,1
 8492      0200B802 
 8492      00000201 
 8492      FB0E0D00 
 8492      01010101 
 8493              	.LASF101:
 8494 0000 43794465 		.ascii	"CyDelay\000"
 8494      6C617900 
 8495              	.LASF149:
 8496 0008 6D61696E 		.ascii	"main.c\000"
 8496      2E6300
 8497              	.LASF39:
 8498 000f 7365675F 		.ascii	"seg_line\000"
 8498      6C696E65 
 8498      00
ARM GAS  C:\Users\isaac\AppData\Local\Temp\cc1fpKCw.s 			page 170


 8499              	.LASF136:
 8500 0018 54696D65 		.ascii	"Timer_Seed_Start\000"
 8500      725F5365 
 8500      65645F53 
 8500      74617274 
 8500      00
 8501              	.LASF130:
 8502 0029 55415254 		.ascii	"UART_Wakeup\000"
 8502      5F57616B 
 8502      65757000 
 8503              	.LASF113:
 8504 0035 4C43445F 		.ascii	"LCD_PrintU32Number\000"
 8504      5072696E 
 8504      74553332 
 8504      4E756D62 
 8504      657200
 8505              	.LASF107:
 8506 0048 6973725F 		.ascii	"isr_REAL_ClearPending\000"
 8506      5245414C 
 8506      5F436C65 
 8506      61725065 
 8506      6E64696E 
 8507              	.LASF36:
 8508 005e 426F6172 		.ascii	"Board\000"
 8508      6400
 8509              	.LASF133:
 8510 0064 54696D65 		.ascii	"Timer_Real_Stop\000"
 8510      725F5265 
 8510      616C5F53 
 8510      746F7000 
 8511              	.LASF74:
 8512 0074 67726964 		.ascii	"grid_size\000"
 8512      5F73697A 
 8512      6500
 8513              	.LASF97:
 8514 007e 70617573 		.ascii	"pause_status\000"
 8514      655F7374 
 8514      61747573 
 8514      00
 8515              	.LASF8:
 8516 008b 756E7369 		.ascii	"unsigned int\000"
 8516      676E6564 
 8516      20696E74 
 8516      00
 8517              	.LASF105:
 8518 0098 6973725F 		.ascii	"isr_RESUME_ClearPending\000"
 8518      52455355 
 8518      4D455F43 
 8518      6C656172 
 8518      50656E64 
 8519              	.LASF142:
 8520 00b0 6973725F 		.ascii	"isr_TIC_StartEx\000"
 8520      5449435F 
 8520      53746172 
 8520      74457800 
 8521              	.LASF9:
 8522 00c0 5F5F696E 		.ascii	"__int32_t\000"
ARM GAS  C:\Users\isaac\AppData\Local\Temp\cc1fpKCw.s 			page 171


 8522      7433325F 
 8522      7400
 8523              	.LASF122:
 8524 00ca 54696D65 		.ascii	"Timer_Tic_WritePeriod\000"
 8524      725F5469 
 8524      635F5772 
 8524      69746550 
 8524      6572696F 
 8525              	.LASF90:
 8526 00e0 63686563 		.ascii	"check\000"
 8526      6B00
 8527              	.LASF73:
 8528 00e6 736E616B 		.ascii	"snake_size\000"
 8528      655F7369 
 8528      7A6500
 8529              	.LASF129:
 8530 00f1 4379506D 		.ascii	"CyPmRestoreClocks\000"
 8530      52657374 
 8530      6F726543 
 8530      6C6F636B 
 8530      7300
 8531              	.LASF118:
 8532 0103 636F6D5F 		.ascii	"com_ClearPending\000"
 8532      436C6561 
 8532      7250656E 
 8532      64696E67 
 8532      00
 8533              	.LASF40:
 8534 0114 7365675F 		.ascii	"seg_tracker\000"
 8534      74726163 
 8534      6B657200 
 8535              	.LASF75:
 8536 0120 62616974 		.ascii	"bait_size\000"
 8536      5F73697A 
 8536      6500
 8537              	.LASF121:
 8538 012a 54696D65 		.ascii	"Timer_Tic_Start\000"
 8538      725F5469 
 8538      635F5374 
 8538      61727400 
 8539              	.LASF102:
 8540 013a 50617573 		.ascii	"Pause_ClearInterrupt\000"
 8540      655F436C 
 8540      65617249 
 8540      6E746572 
 8540      72757074 
 8541              	.LASF134:
 8542 014f 45455052 		.ascii	"EEPROM_Start\000"
 8542      4F4D5F53 
 8542      74617274 
 8542      00
 8543              	.LASF66:
 8544 015c 55706461 		.ascii	"UpdateStatus\000"
 8544      74655374 
 8544      61747573 
 8544      00
 8545              	.LASF34:
ARM GAS  C:\Users\isaac\AppData\Local\Temp\cc1fpKCw.s 			page 172


 8546 0169 72657375 		.ascii	"result\000"
 8546      6C7400
 8547              	.LASF92:
 8548 0170 636F6D61 		.ascii	"comas\000"
 8548      7300
 8549              	.LASF69:
 8550 0176 7469635F 		.ascii	"tic_handler\000"
 8550      68616E64 
 8550      6C657200 
 8551              	.LASF13:
 8552 0182 666C6F61 		.ascii	"float\000"
 8552      7400
 8553              	.LASF50:
 8554 0188 6469725F 		.ascii	"dir_c\000"
 8554      6300
 8555              	.LASF150:
 8556 018e 433A5C55 		.ascii	"C:\\Users\\isaac\\Documents\\PSoC Creator\\PROYECT_"
 8556      73657273 
 8556      5C697361 
 8556      61635C44 
 8556      6F63756D 
 8557 01bc 55315F53 		.ascii	"U1_SNAKE\\Snake.cydsn\000"
 8557      4E414B45 
 8557      5C536E61 
 8557      6B652E63 
 8557      7964736E 
 8558              	.LASF84:
 8559 01d1 6375725F 		.ascii	"cur_dir\000"
 8559      64697200 
 8560              	.LASF7:
 8561 01d9 6C6F6E67 		.ascii	"long long unsigned int\000"
 8561      206C6F6E 
 8561      6720756E 
 8561      7369676E 
 8561      65642069 
 8562              	.LASF95:
 8563 01f0 6D61785F 		.ascii	"max_comas\000"
 8563      636F6D61 
 8563      7300
 8564              	.LASF123:
 8565 01fa 54696D65 		.ascii	"Timer_Tic_Sleep\000"
 8565      725F5469 
 8565      635F536C 
 8565      65657000 
 8566              	.LASF72:
 8567 020a 6C63645F 		.ascii	"lcd_ram\000"
 8567      72616D00 
 8568              	.LASF81:
 8569 0212 73636F72 		.ascii	"score_ten_t\000"
 8569      655F7465 
 8569      6E5F7400 
 8570              	.LASF29:
 8571 021e 6C6F7765 		.ascii	"lower\000"
 8571      7200
 8572              	.LASF80:
 8573 0224 6D617463 		.ascii	"match_score\000"
 8573      685F7363 
ARM GAS  C:\Users\isaac\AppData\Local\Temp\cc1fpKCw.s 			page 173


 8573      6F726500 
 8574              	.LASF148:
 8575 0230 474E5520 		.ascii	"GNU C11 5.4.1 20160609 (release) [ARM/embedded-5-br"
 8575      43313120 
 8575      352E342E 
 8575      31203230 
 8575      31363036 
 8576 0263 616E6368 		.ascii	"anch revision 237715] -mcpu=cortex-m3 -mthumb -g -O"
 8576      20726576 
 8576      6973696F 
 8576      6E203233 
 8576      37373135 
 8577 0296 67202D66 		.ascii	"g -ffunction-sections -ffat-lto-objects\000"
 8577      66756E63 
 8577      74696F6E 
 8577      2D736563 
 8577      74696F6E 
 8578              	.LASF109:
 8579 02be 4C43445F 		.ascii	"LCD_LoadCustomFonts\000"
 8579      4C6F6164 
 8579      43757374 
 8579      6F6D466F 
 8579      6E747300 
 8580              	.LASF91:
 8581 02d2 70617373 		.ascii	"pass\000"
 8581      00
 8582              	.LASF60:
 8583 02d7 74617267 		.ascii	"target\000"
 8583      657400
 8584              	.LASF99:
 8585 02de 70657269 		.ascii	"period_offs_old\000"
 8585      6F645F6F 
 8585      6666735F 
 8585      6F6C6400 
 8586              	.LASF54:
 8587 02ee 5F426F6F 		.ascii	"_Bool\000"
 8587      6C00
 8588              	.LASF23:
 8589 02f4 72657375 		.ascii	"resume_handler\000"
 8589      6D655F68 
 8589      616E646C 
 8589      657200
 8590              	.LASF62:
 8591 0303 416E696D 		.ascii	"Animation\000"
 8591      6174696F 
 8591      6E00
 8592              	.LASF126:
 8593 030d 55415254 		.ascii	"UART_Sleep\000"
 8593      5F536C65 
 8593      657000
 8594              	.LASF63:
 8595 0318 4E616D65 		.ascii	"Names_Recieved\000"
 8595      735F5265 
 8595      63696576 
 8595      656400
 8596              	.LASF19:
 8597 0327 706C6179 		.ascii	"player\000"
ARM GAS  C:\Users\isaac\AppData\Local\Temp\cc1fpKCw.s 			page 174


 8597      657200
 8598              	.LASF49:
 8599 032e 6368616E 		.ascii	"change_dir\000"
 8599      67655F64 
 8599      697200
 8600              	.LASF83:
 8601 0339 6C617374 		.ascii	"last_dir\000"
 8601      5F646972 
 8601      00
 8602              	.LASF65:
 8603 0342 636F6D5F 		.ascii	"com_handler\000"
 8603      68616E64 
 8603      6C657200 
 8604              	.LASF32:
 8605 034e 506F7354 		.ascii	"PosToByte\000"
 8605      6F427974 
 8605      6500
 8606              	.LASF94:
 8607 0358 636F6D5F 		.ascii	"com_state\000"
 8607      73746174 
 8607      6500
 8608              	.LASF64:
 8609 0362 6E616D65 		.ascii	"name_str\000"
 8609      5F737472 
 8609      00
 8610              	.LASF98:
 8611 036b 74696D65 		.ascii	"time_paused\000"
 8611      5F706175 
 8611      73656400 
 8612              	.LASF15:
 8613 0377 63686172 		.ascii	"char\000"
 8613      00
 8614              	.LASF79:
 8615 037c 736E616B 		.ascii	"snake_tail\000"
 8615      655F7461 
 8615      696C00
 8616              	.LASF58:
 8617 0387 52656164 		.ascii	"ReadScores\000"
 8617      53636F72 
 8617      657300
 8618              	.LASF140:
 8619 0392 6973725F 		.ascii	"isr_RESUME_StartEx\000"
 8619      52455355 
 8619      4D455F53 
 8619      74617274 
 8619      457800
 8620              	.LASF45:
 8621 03a5 436C6561 		.ascii	"Clear_Screen\000"
 8621      725F5363 
 8621      7265656E 
 8621      00
 8622              	.LASF12:
 8623 03b2 75696E74 		.ascii	"uint16\000"
 8623      313600
 8624              	.LASF46:
 8625 03b9 64726177 		.ascii	"draw_score\000"
 8625      5F73636F 
ARM GAS  C:\Users\isaac\AppData\Local\Temp\cc1fpKCw.s 			page 175


 8625      726500
 8626              	.LASF120:
 8627 03c4 55415254 		.ascii	"UART_PutString\000"
 8627      5F507574 
 8627      53747269 
 8627      6E6700
 8628              	.LASF147:
 8629 03d3 6973725F 		.ascii	"isr_TIC_ClearPending\000"
 8629      5449435F 
 8629      436C6561 
 8629      7250656E 
 8629      64696E67 
 8630              	.LASF61:
 8631 03e8 706C6179 		.ascii	"players_temp\000"
 8631      6572735F 
 8631      74656D70 
 8631      00
 8632              	.LASF128:
 8633 03f5 4379506D 		.ascii	"CyPmHibernate\000"
 8633      48696265 
 8633      726E6174 
 8633      6500
 8634              	.LASF108:
 8635 0403 72616E64 		.ascii	"rand\000"
 8635      00
 8636              	.LASF37:
 8637 0408 7375625F 		.ascii	"sub_x\000"
 8637      7800
 8638              	.LASF21:
 8639 040e 73636F72 		.ascii	"score\000"
 8639      6500
 8640              	.LASF6:
 8641 0414 6C6F6E67 		.ascii	"long long int\000"
 8641      206C6F6E 
 8641      6720696E 
 8641      7400
 8642              	.LASF104:
 8643 0422 52657375 		.ascii	"Resume_ClearInterrupt\000"
 8643      6D655F43 
 8643      6C656172 
 8643      496E7465 
 8643      72727570 
 8644              	.LASF116:
 8645 0438 45455052 		.ascii	"EEPROM_ReadByte\000"
 8645      4F4D5F52 
 8645      65616442 
 8645      79746500 
 8646              	.LASF78:
 8647 0448 736E616B 		.ascii	"snake_head\000"
 8647      655F6865 
 8647      616400
 8648              	.LASF144:
 8649 0453 7372616E 		.ascii	"srand\000"
 8649      6400
 8650              	.LASF42:
 8651 0459 53746172 		.ascii	"Start_Snake\000"
 8651      745F536E 
ARM GAS  C:\Users\isaac\AppData\Local\Temp\cc1fpKCw.s 			page 176


 8651      616B6500 
 8652              	.LASF117:
 8653 0465 55415254 		.ascii	"UART_GetChar\000"
 8653      5F476574 
 8653      43686172 
 8653      00
 8654              	.LASF51:
 8655 0472 6D6F7665 		.ascii	"move_snake\000"
 8655      5F736E61 
 8655      6B6500
 8656              	.LASF77:
 8657 047d 62616974 		.ascii	"bait\000"
 8657      00
 8658              	.LASF33:
 8659 0482 7661725F 		.ascii	"var_\000"
 8659      00
 8660              	.LASF41:
 8661 0487 72616D5F 		.ascii	"ram_buff\000"
 8661      62756666 
 8661      00
 8662              	.LASF27:
 8663 0490 506F735F 		.ascii	"Pos_2D\000"
 8663      324400
 8664              	.LASF16:
 8665 0497 6C6F6E67 		.ascii	"long double\000"
 8665      20646F75 
 8665      626C6500 
 8666              	.LASF119:
 8667 04a3 73707269 		.ascii	"sprintf\000"
 8667      6E746600 
 8668              	.LASF38:
 8669 04ab 7375625F 		.ascii	"sub_y\000"
 8669      7900
 8670              	.LASF88:
 8671 04b1 536E616B 		.ascii	"SnakeBoard\000"
 8671      65426F61 
 8671      726400
 8672              	.LASF131:
 8673 04bc 4C43445F 		.ascii	"LCD_Wakeup\000"
 8673      57616B65 
 8673      757000
 8674              	.LASF110:
 8675 04c7 4C43445F 		.ascii	"LCD_Position\000"
 8675      506F7369 
 8675      74696F6E 
 8675      00
 8676              	.LASF56:
 8677 04d4 45657072 		.ascii	"EepromFirstInit\000"
 8677      6F6D4669 
 8677      72737449 
 8677      6E697400 
 8678              	.LASF127:
 8679 04e4 4379506D 		.ascii	"CyPmSaveClocks\000"
 8679      53617665 
 8679      436C6F63 
 8679      6B7300
 8680              	.LASF35:
ARM GAS  C:\Users\isaac\AppData\Local\Temp\cc1fpKCw.s 			page 177


 8681 04f3 53686F77 		.ascii	"ShowBoard\000"
 8681      426F6172 
 8681      6400
 8682              	.LASF2:
 8683 04fd 73686F72 		.ascii	"short int\000"
 8683      7420696E 
 8683      7400
 8684              	.LASF4:
 8685 0507 6C6F6E67 		.ascii	"long int\000"
 8685      20696E74 
 8685      00
 8686              	.LASF112:
 8687 0510 4C43445F 		.ascii	"LCD_PrintString\000"
 8687      5072696E 
 8687      74537472 
 8687      696E6700 
 8688              	.LASF71:
 8689 0520 49544D5F 		.ascii	"ITM_RxBuffer\000"
 8689      52784275 
 8689      66666572 
 8689      00
 8690              	.LASF145:
 8691 052d 54696D65 		.ascii	"Timer_Seed_Stop\000"
 8691      725F5365 
 8691      65645F53 
 8691      746F7000 
 8692              	.LASF52:
 8693 053d 74656D70 		.ascii	"temp\000"
 8693      00
 8694              	.LASF106:
 8695 0542 54696D65 		.ascii	"Timer_Real_ReadStatusRegister\000"
 8695      725F5265 
 8695      616C5F52 
 8695      65616453 
 8695      74617475 
 8696              	.LASF68:
 8697 0560 666C6167 		.ascii	"flag\000"
 8697      00
 8698              	.LASF55:
 8699 0565 506C6163 		.ascii	"PlaceHolders\000"
 8699      65486F6C 
 8699      64657273 
 8699      00
 8700              	.LASF135:
 8701 0572 4C43445F 		.ascii	"LCD_Start\000"
 8701      53746172 
 8701      7400
 8702              	.LASF132:
 8703 057c 54696D65 		.ascii	"Timer_Tic_Wakeup\000"
 8703      725F5469 
 8703      635F5761 
 8703      6B657570 
 8703      00
 8704              	.LASF103:
 8705 058d 6973725F 		.ascii	"isr_PAUSE_ClearPending\000"
 8705      50415553 
 8705      455F436C 
ARM GAS  C:\Users\isaac\AppData\Local\Temp\cc1fpKCw.s 			page 178


 8705      65617250 
 8705      656E6469 
 8706              	.LASF20:
 8707 05a4 6E616D65 		.ascii	"name\000"
 8707      00
 8708              	.LASF137:
 8709 05a9 55415254 		.ascii	"UART_Start\000"
 8709      5F537461 
 8709      727400
 8710              	.LASF53:
 8711 05b4 736E616B 		.ascii	"snake_temp_old\000"
 8711      655F7465 
 8711      6D705F6F 
 8711      6C6400
 8712              	.LASF87:
 8713 05c3 6375725F 		.ascii	"cur_name\000"
 8713      6E616D65 
 8713      00
 8714              	.LASF47:
 8715 05cc 64726177 		.ascii	"draw_snake\000"
 8715      5F736E61 
 8715      6B6500
 8716              	.LASF86:
 8717 05d7 706C6179 		.ascii	"players\000"
 8717      65727300 
 8718              	.LASF17:
 8719 05df 73697A65 		.ascii	"sizetype\000"
 8719      74797065 
 8719      00
 8720              	.LASF5:
 8721 05e8 6C6F6E67 		.ascii	"long unsigned int\000"
 8721      20756E73 
 8721      69676E65 
 8721      6420696E 
 8721      7400
 8722              	.LASF143:
 8723 05fa 54696D65 		.ascii	"Timer_Seed_ReadCounter\000"
 8723      725F5365 
 8723      65645F52 
 8723      65616443 
 8723      6F756E74 
 8724              	.LASF10:
 8725 0611 696E7433 		.ascii	"int32_t\000"
 8725      325F7400 
 8726              	.LASF22:
 8727 0619 70617573 		.ascii	"pause_handler\000"
 8727      655F6861 
 8727      6E646C65 
 8727      7200
 8728              	.LASF124:
 8729 0627 54696D65 		.ascii	"Timer_Real_Start\000"
 8729      725F5265 
 8729      616C5F53 
 8729      74617274 
 8729      00
 8730              	.LASF76:
 8731 0638 736E616B 		.ascii	"snake\000"
ARM GAS  C:\Users\isaac\AppData\Local\Temp\cc1fpKCw.s 			page 179


 8731      6500
 8732              	.LASF96:
 8733 063e 6E616D65 		.ascii	"name_wait\000"
 8733      5F776169 
 8733      7400
 8734              	.LASF1:
 8735 0648 756E7369 		.ascii	"unsigned char\000"
 8735      676E6564 
 8735      20636861 
 8735      7200
 8736              	.LASF82:
 8737 0656 70657269 		.ascii	"period_offs\000"
 8737      6F645F6F 
 8737      66667300 
 8738              	.LASF24:
 8739 0662 7265616C 		.ascii	"real_handler\000"
 8739      5F68616E 
 8739      646C6572 
 8739      00
 8740              	.LASF30:
 8741 066f 75707065 		.ascii	"upper\000"
 8741      7200
 8742              	.LASF43:
 8743 0675 436C6561 		.ascii	"Clear_Baits\000"
 8743      725F4261 
 8743      69747300 
 8744              	.LASF44:
 8745 0681 6164645F 		.ascii	"add_bait\000"
 8745      62616974 
 8745      00
 8746              	.LASF125:
 8747 068a 4C43445F 		.ascii	"LCD_Sleep\000"
 8747      536C6565 
 8747      7000
 8748              	.LASF115:
 8749 0694 45455052 		.ascii	"EEPROM_WriteByte\000"
 8749      4F4D5F57 
 8749      72697465 
 8749      42797465 
 8749      00
 8750              	.LASF100:
 8751 06a5 73746174 		.ascii	"state\000"
 8751      6500
 8752              	.LASF25:
 8753 06ab 706F7378 		.ascii	"posx\000"
 8753      00
 8754              	.LASF26:
 8755 06b0 706F7379 		.ascii	"posy\000"
 8755      00
 8756              	.LASF31:
 8757 06b5 52656E64 		.ascii	"RenderBoard\000"
 8757      6572426F 
 8757      61726400 
 8758              	.LASF139:
 8759 06c1 6973725F 		.ascii	"isr_PAUSE_StartEx\000"
 8759      50415553 
 8759      455F5374 
ARM GAS  C:\Users\isaac\AppData\Local\Temp\cc1fpKCw.s 			page 180


 8759      61727445 
 8759      7800
 8760              	.LASF0:
 8761 06d3 7369676E 		.ascii	"signed char\000"
 8761      65642063 
 8761      68617200 
 8762              	.LASF3:
 8763 06df 73686F72 		.ascii	"short unsigned int\000"
 8763      7420756E 
 8763      7369676E 
 8763      65642069 
 8763      6E7400
 8764              	.LASF138:
 8765 06f2 636F6D5F 		.ascii	"com_StartEx\000"
 8765      53746172 
 8765      74457800 
 8766              	.LASF151:
 8767 06fe 6D61696E 		.ascii	"main\000"
 8767      00
 8768              	.LASF48:
 8769 0703 74686561 		.ascii	"thead\000"
 8769      6400
 8770              	.LASF11:
 8771 0709 75696E74 		.ascii	"uint8\000"
 8771      3800
 8772              	.LASF14:
 8773 070f 646F7562 		.ascii	"double\000"
 8773      6C6500
 8774              	.LASF59:
 8775 0716 55706461 		.ascii	"UpdateFirstPlace\000"
 8775      74654669 
 8775      72737450 
 8775      6C616365 
 8775      00
 8776              	.LASF57:
 8777 0727 57726974 		.ascii	"WriteNewScores\000"
 8777      654E6577 
 8777      53636F72 
 8777      657300
 8778              	.LASF141:
 8779 0736 6973725F 		.ascii	"isr_REAL_StartEx\000"
 8779      5245414C 
 8779      5F537461 
 8779      72744578 
 8779      00
 8780              	.LASF146:
 8781 0747 54696D65 		.ascii	"Timer_Tic_ReadStatusRegister\000"
 8781      725F5469 
 8781      635F5265 
 8781      61645374 
 8781      61747573 
 8782              	.LASF89:
 8783 0764 636F6469 		.ascii	"codigo\000"
 8783      676F00
 8784              	.LASF28:
 8785 076b 52616E64 		.ascii	"RandNum\000"
 8785      4E756D00 
ARM GAS  C:\Users\isaac\AppData\Local\Temp\cc1fpKCw.s 			page 181


 8786              	.LASF70:
 8787 0773 676F6F64 		.ascii	"good_move\000"
 8787      5F6D6F76 
 8787      6500
 8788              	.LASF18:
 8789 077d 736E616B 		.ascii	"snake_xy\000"
 8789      655F7879 
 8789      00
 8790              	.LASF67:
 8791 0786 6D657361 		.ascii	"mesage\000"
 8791      676500
 8792              	.LASF93:
 8793 078d 72656164 		.ascii	"read\000"
 8793      00
 8794              	.LASF85:
 8795 0792 4D617042 		.ascii	"MapBuffer\000"
 8795      75666665 
 8795      7200
 8796              	.LASF114:
 8797 079c 4C43445F 		.ascii	"LCD_WriteControl\000"
 8797      57726974 
 8797      65436F6E 
 8797      74726F6C 
 8797      00
 8798              	.LASF111:
 8799 07ad 4C43445F 		.ascii	"LCD_PutChar\000"
 8799      50757443 
 8799      68617200 
 8800              		.ident	"GCC: (GNU Tools for ARM Embedded Processors) 5.4.1 20160609 (release) [ARM/embedded-5-bran
