ARM GAS  C:\Users\isaac\AppData\Local\Temp\cc1fpKCw.s 			page 1


   1              		.syntax unified
   2              		.cpu cortex-m3
   3              		.fpu softvfp
   4              		.eabi_attribute 20, 1
   5              		.eabi_attribute 21, 1
   6              		.eabi_attribute 23, 3
   7              		.eabi_attribute 24, 1
   8              		.eabi_attribute 25, 1
   9              		.eabi_attribute 26, 1
  10              		.eabi_attribute 30, 1
  11              		.eabi_attribute 34, 1
  12              		.eabi_attribute 18, 4
  13              		.thumb
  14              		.syntax unified
  15              		.file	"main.c"
  16              		.text
  17              	.Ltext0:
  18              		.cfi_sections	.debug_frame
  19              		.section	.text.pause_handler,"ax",%progbits
  20              		.align	2
  21              		.global	pause_handler
  22              		.thumb
  23              		.thumb_func
  24              		.type	pause_handler, %function
  25              	pause_handler:
  26              	.LFB84:
  27              		.file 1 "main.c"
   1:main.c        **** #include "project.h"
   2:main.c        **** #include "stdio.h"
   3:main.c        **** #include "GlobalDef.h"
   4:main.c        **** //#include "PixelEngine.h"
   5:main.c        **** //#include "GlobalFunc.h"
   6:main.c        **** #include "SnakeGame.h"
   7:main.c        **** //Global Variables
   8:main.c        **** 
   9:main.c        **** struct player{
  10:main.c        ****     char name[5];
  11:main.c        ****     int score;
  12:main.c        **** };
  13:main.c        **** 
  14:main.c        **** struct player players[4];
  15:main.c        **** 
  16:main.c        **** char cur_name[5] = "isaac";
  17:main.c        **** 
  18:main.c        **** int SnakeBoard[snake_board_height][snake_board_length] = {
  19:main.c        ****     {0,3,3,3,3,3,3,3,3,3,3,3,3,3,3,3,3,3,3,0},
  20:main.c        ****     {3,0,0,0,0,0,0,0,0,0,0,0,0,0,0,0,0,0,0,3},
  21:main.c        ****     {3,0,0,0,0,0,0,0,0,0,0,0,0,0,0,0,0,0,0,3},
  22:main.c        ****     {3,0,0,0,0,0,0,0,0,0,0,0,0,0,0,0,0,0,0,3},
  23:main.c        ****     {3,0,0,0,0,0,0,0,0,0,0,0,0,0,0,0,0,0,0,3},
  24:main.c        ****     {3,0,0,0,0,0,0,0,0,0,0,0,0,0,0,0,0,0,0,3},
  25:main.c        ****     {3,0,0,0,0,0,0,0,0,0,0,0,0,0,0,0,0,0,0,3},
  26:main.c        ****     {3,0,0,0,0,0,0,0,0,0,0,0,0,0,0,0,0,0,0,3},
  27:main.c        ****     {3,0,0,0,0,0,0,0,0,0,0,0,0,0,0,0,0,0,0,3},
  28:main.c        ****     {3,0,0,0,0,0,0,0,0,0,0,0,0,0,0,0,0,0,0,3},
  29:main.c        ****     {3,0,0,0,0,0,0,0,0,0,0,0,0,0,0,0,0,0,0,3},
  30:main.c        ****     {3,0,0,0,0,0,0,0,0,0,0,0,0,0,0,0,0,0,0,3},
ARM GAS  C:\Users\isaac\AppData\Local\Temp\cc1fpKCw.s 			page 2


  31:main.c        ****     {3,0,0,0,0,0,0,0,0,0,0,0,0,0,0,0,0,0,0,3},
  32:main.c        ****     {3,0,0,0,0,0,0,0,0,0,0,0,0,0,0,0,0,0,0,3},
  33:main.c        ****     {3,0,0,0,0,0,0,0,0,0,0,0,0,0,0,0,0,0,0,3},
  34:main.c        ****     {0,3,3,3,3,3,3,3,3,3,3,3,3,3,3,3,3,3,3,0}
  35:main.c        **** };
  36:main.c        **** 
  37:main.c        **** //-----------Comm Handler-----------------
  38:main.c        **** char codigo[32] = "NNN,0,0,F";
  39:main.c        **** char check[32] = "000000000";
  40:main.c        **** char foo;
  41:main.c        **** int cs = 0;
  42:main.c        **** int pass = 1;
  43:main.c        **** int comas = 0;
  44:main.c        **** int read = 1;
  45:main.c        **** char com_state = 'm';
  46:main.c        **** int max_comas = 0;
  47:main.c        **** //Flags
  48:main.c        **** int name_wait = 0;
  49:main.c        **** int pause_status = 0;
  50:main.c        **** //Counters
  51:main.c        **** int time_paused = 0;
  52:main.c        **** int period_offs_old = 0;
  53:main.c        **** //Function Prototypes
  54:main.c        **** void Animation();
  55:main.c        **** void UpdateStatus();
  56:main.c        **** //EEPROM Functions
  57:main.c        **** void EepromFirstInit();
  58:main.c        **** void PlaceHolders();
  59:main.c        **** void WriteNewScores();
  60:main.c        **** void ReadScores();
  61:main.c        **** bool UpdateFirstPlace();
  62:main.c        **** 
  63:main.c        **** CY_ISR_PROTO(com_handler);
  64:main.c        **** 
  65:main.c        **** CY_ISR_PROTO(pause_handler);
  66:main.c        **** CY_ISR_PROTO(resume_handler);
  67:main.c        **** CY_ISR_PROTO(real_handler);
  68:main.c        **** CY_ISR_PROTO(tic_handler);
  69:main.c        **** char state = 'h';
  70:main.c        **** int main(void)
  71:main.c        **** {
  72:main.c        ****     CyGlobalIntEnable; 
  73:main.c        ****     //Inits of the modules
  74:main.c        ****     EEPROM_Start();
  75:main.c        ****     LCD_Start();
  76:main.c        ****     Timer_Seed_Start();
  77:main.c        ****     UART_Start();
  78:main.c        ****     //ISR
  79:main.c        ****     com_StartEx(com_handler);
  80:main.c        ****     isr_PAUSE_StartEx(pause_handler);
  81:main.c        ****     isr_RESUME_StartEx(resume_handler);
  82:main.c        ****     isr_REAL_StartEx(real_handler);
  83:main.c        ****     isr_TIC_StartEx(tic_handler);
  84:main.c        ****     //Randomizations
  85:main.c        ****     srand(Timer_Seed_ReadCounter());
  86:main.c        ****     Timer_Seed_Stop();
  87:main.c        ****     
ARM GAS  C:\Users\isaac\AppData\Local\Temp\cc1fpKCw.s 			page 3


  88:main.c        ****     
  89:main.c        ****     for(;;)
  90:main.c        ****     {
  91:main.c        ****         switch(state){
  92:main.c        ****             case 'h':
  93:main.c        ****                 //EepromFirstInit();
  94:main.c        ****                 ReadScores();
  95:main.c        ****                 int flag = 0;
  96:main.c        ****                 for(int i = 0; i < 5; i++){
  97:main.c        ****                     if(players[0].name[i] == 0){
  98:main.c        ****                         flag = 1;
  99:main.c        ****                         break;
 100:main.c        ****                     }
 101:main.c        ****                 }
 102:main.c        ****                 if(flag == 1){
 103:main.c        ****                     EepromFirstInit();
 104:main.c        ****                 }
 105:main.c        ****                 state = 's';
 106:main.c        ****                 break;
 107:main.c        ****             case 's':
 108:main.c        ****                 //Start State
 109:main.c        ****                 LCD_ClearDisplay();
 110:main.c        ****                 Start_Snake(SnakeBoard);
 111:main.c        ****                 LCD_Position(0,0);
 112:main.c        ****                 LCD_PrintString("Waiting For");
 113:main.c        ****                 LCD_Position(1,0);
 114:main.c        ****                 LCD_PrintString("Names To Start");
 115:main.c        ****                 
 116:main.c        ****                 //Get in a loop to accept cur player name.
 117:main.c        ****                 while(name_wait == 0){CyDelay(5);}
 118:main.c        ****                 
 119:main.c        ****                 //Start timer to cicle the Snake
 120:main.c        ****                 Animation();
 121:main.c        ****                 Timer_Tic_Start();
 122:main.c        ****                 Timer_Tic_WritePeriod(1000);
 123:main.c        ****                 
 124:main.c        ****                 state = 'g';
 125:main.c        ****                 UpdateStatus();
 126:main.c        ****                 break;
 127:main.c        ****             case 'p':
 128:main.c        ****                 //Pause State
 129:main.c        ****                 Timer_Tic_Sleep();
 130:main.c        ****                 Animation();
 131:main.c        ****                 Timer_Real_Start();
 132:main.c        ****                 time_paused = 0;
 133:main.c        ****                 period_offs_old = 0;
 134:main.c        ****                 while(pause_status == 1){
 135:main.c        ****                     if(time_paused == 15){
 136:main.c        ****                         LCD_Position(0,4);
 137:main.c        ****                         LCD_PrintString("SLEEP");
 138:main.c        ****                         CyDelay(250);
 139:main.c        ****                         LCD_Sleep();
 140:main.c        ****                         UART_Sleep();
 141:main.c        ****                         //Timer_Tic_Sleep();
 142:main.c        ****                         CyPmSaveClocks();
 143:main.c        ****                         CyPmHibernate();
 144:main.c        ****                         CyPmRestoreClocks();
ARM GAS  C:\Users\isaac\AppData\Local\Temp\cc1fpKCw.s 			page 4


 145:main.c        ****                         UART_Wakeup();
 146:main.c        ****                         LCD_Wakeup();
 147:main.c        ****                         time_paused = 0;
 148:main.c        ****                         state = 'g';
 149:main.c        ****                         Timer_Tic_Wakeup();
 150:main.c        ****                         break;
 151:main.c        ****                     }
 152:main.c        ****                     LCD_Position(0,4);
 153:main.c        ****                     LCD_PrintString("PAUSED");
 154:main.c        ****                     CyDelay(150);
 155:main.c        ****                     LCD_ClearDisplay();
 156:main.c        ****                     CyDelay(150);
 157:main.c        ****                 }
 158:main.c        ****                 Timer_Real_Stop();
 159:main.c        ****                 Animation();
 160:main.c        ****                 Timer_Tic_Wakeup();
 161:main.c        ****                 state = 'g';
 162:main.c        ****                 UpdateStatus();
 163:main.c        ****                 break;
 164:main.c        ****             case 'g':
 165:main.c        ****                 //Game is Ocurring so nothing has to happen.
 166:main.c        ****                 break;
 167:main.c        ****              case 'e':
 168:main.c        ****                 //RIP Dialog
 169:main.c        ****                 Animation();
 170:main.c        ****                 LCD_Position(0,3);
 171:main.c        ****                 LCD_PrintString("Game Over");
 172:main.c        ****                 LCD_Position(1,0);
 173:main.c        ****                 LCD_PrintString(cur_name);
 174:main.c        ****                 LCD_Position(1,6);
 175:main.c        ****                 LCD_PrintString("SC:");
 176:main.c        ****                 LCD_Position(1,9);
 177:main.c        ****                 LCD_PrintNumber(match_score);
 178:main.c        ****                 CyDelay(50);
 179:main.c        ****                 state = 'c';
 180:main.c        ****                 UpdateStatus();
 181:main.c        ****                 break;
 182:main.c        ****             case 'm':
 183:main.c        ****                 //Achieven the max score
 184:main.c        ****                 Animation();
 185:main.c        ****                 LCD_Position(0,0);
 186:main.c        ****                 LCD_PrintString("Max Score Achived!");
 187:main.c        ****                 CyDelay(50);
 188:main.c        ****                 state = 'c';
 189:main.c        ****                 UpdateStatus();
 190:main.c        ****                 break;
 191:main.c        ****             case 'c':
 192:main.c        ****                 //Add Max Scoes Wait a bit and reset
 193:main.c        ****                 if(UpdateFirstPlace()){
 194:main.c        ****                     WriteNewScores();
 195:main.c        ****                     ReadScores();
 196:main.c        ****                 }
 197:main.c        ****                 for(int i = 0; i < 3; i++){
 198:main.c        ****                 LCD_ClearDisplay();
 199:main.c        ****                 LCD_Position(0,0);
 200:main.c        ****                 if(i == 0){LCD_PrintString("First Place:");}
 201:main.c        ****                 if(i == 1){LCD_PrintString("Second Place:");}
ARM GAS  C:\Users\isaac\AppData\Local\Temp\cc1fpKCw.s 			page 5


 202:main.c        ****                 if(i == 2){LCD_PrintString("Third Place:");}
 203:main.c        ****                 LCD_Position(1,0);
 204:main.c        ****                 LCD_PrintString(players[i].name);
 205:main.c        ****                 LCD_Position(1,6);
 206:main.c        ****                 LCD_PrintString("SC:");
 207:main.c        ****                 LCD_Position(1,9);
 208:main.c        ****                 LCD_PrintNumber(players[i].score);
 209:main.c        ****                 CyDelay(2000);
 210:main.c        ****                 }
 211:main.c        ****                 state = 's';
 212:main.c        ****                 name_wait = 0;
 213:main.c        ****                 UpdateStatus();
 214:main.c        ****                 break;
 215:main.c        ****         }
 216:main.c        ****     }
 217:main.c        **** }
 218:main.c        **** 
 219:main.c        **** //Eeprom functionality
 220:main.c        **** void EepromFirstInit(){
 221:main.c        ****     PlaceHolders();
 222:main.c        ****     //First Write to EEPROM
 223:main.c        ****     for(int i = 0; i < 3; i++){
 224:main.c        ****         EEPROM_WriteByte(players[i].score, 0 + i*6);
 225:main.c        ****         for(int j = 1; j < 6; j++){
 226:main.c        ****             EEPROM_WriteByte(players[i].name[j - 1], j + i*6);
 227:main.c        ****         }
 228:main.c        ****     }
 229:main.c        **** }
 230:main.c        **** void PlaceHolders(){
 231:main.c        ****         for(int i = 0; i < 3; i++){
 232:main.c        ****         players[i].score = 0;
 233:main.c        ****         for(int j = 1; j < 6; j++){
 234:main.c        ****             players[i].name[j - 1] = '#';
 235:main.c        ****         }
 236:main.c        ****     }
 237:main.c        **** }
 238:main.c        **** void WriteNewScores(){
 239:main.c        ****     for(int i = 0; i < 3; i++){
 240:main.c        ****         EEPROM_WriteByte(players[i].score, 0 + i*6);
 241:main.c        ****         for(int j = 1; j < 6; j++){
 242:main.c        ****             EEPROM_WriteByte(players[i].name[j - 1], j + i*6);
 243:main.c        ****         }
 244:main.c        ****     }
 245:main.c        **** }
 246:main.c        **** void ReadScores(){
 247:main.c        ****     for(int i = 0; i < 3; i++){
 248:main.c        ****         players[i].score = EEPROM_ReadByte(0 + i*6);
 249:main.c        ****         for(int j = 1; j < 6; j++){
 250:main.c        ****             players[i].name[j - 1] = EEPROM_ReadByte(j + i*6);
 251:main.c        ****         }
 252:main.c        ****     }
 253:main.c        **** }
 254:main.c        **** bool UpdateFirstPlace(){
 255:main.c        ****     int target = -1;
 256:main.c        ****     struct player players_temp;
 257:main.c        ****     
 258:main.c        ****     for(int i = 0; i < 3; i++){
ARM GAS  C:\Users\isaac\AppData\Local\Temp\cc1fpKCw.s 			page 6


 259:main.c        ****         if(match_score > players[i].score){
 260:main.c        ****             target = i;
 261:main.c        ****             break;
 262:main.c        ****         }
 263:main.c        ****     }
 264:main.c        ****     
 265:main.c        ****     if (target != -1){
 266:main.c        ****         players[3].score = match_score;
 267:main.c        ****         for(int i = 0; i < 5; i++){
 268:main.c        ****         players[3].name[i] = cur_name[i];
 269:main.c        ****         }
 270:main.c        ****         //Bubble sorting
 271:main.c        ****         for (int c = 0 ; c < 4 - 1; c++) {
 272:main.c        ****             for (int d = 0 ; d < 4 - c - 1; d++){
 273:main.c        ****              if (players[d].score < players[d+1].score){
 274:main.c        ****                 players_temp = players[d];
 275:main.c        ****                 players[d]   = players[d+1];
 276:main.c        ****                 players[d+1] = players_temp;
 277:main.c        ****                 }
 278:main.c        ****             }
 279:main.c        ****         }
 280:main.c        ****         return true;
 281:main.c        ****     }
 282:main.c        ****     return false;
 283:main.c        **** }
 284:main.c        **** //Animation for transitions.
 285:main.c        **** void Animation(){
 286:main.c        ****     for(int i = 0; i < 8; i++){
 287:main.c        ****         LCD_Position(0,8 + i);
 288:main.c        ****         LCD_PutChar('#');
 289:main.c        ****         LCD_Position(0,7 - i);
 290:main.c        ****         LCD_PutChar('#');
 291:main.c        ****         LCD_Position(1,8 + i);
 292:main.c        ****         LCD_PutChar('#');
 293:main.c        ****         LCD_Position(1,7 - i);
 294:main.c        ****         LCD_PutChar('#');
 295:main.c        ****         CyDelay(100);
 296:main.c        ****     }
 297:main.c        ****     LCD_ClearDisplay();
 298:main.c        ****     for(int i = 0; i < 16; i++){
 299:main.c        ****         LCD_Position(0,i);
 300:main.c        ****         LCD_PutChar('%');
 301:main.c        ****         LCD_Position(1,i);
 302:main.c        ****         LCD_PutChar('%');
 303:main.c        ****     }
 304:main.c        ****     CyDelay(100);
 305:main.c        ****     LCD_ClearDisplay();
 306:main.c        **** }
 307:main.c        **** 
 308:main.c        **** //Interruption rutines
 309:main.c        **** CY_ISR(pause_handler){
  28              		.loc 1 309 0
  29              		.cfi_startproc
  30              		@ args = 0, pretend = 0, frame = 0
  31              		@ frame_needed = 0, uses_anonymous_args = 0
  32 0000 08B5     		push	{r3, lr}
  33              		.cfi_def_cfa_offset 8
ARM GAS  C:\Users\isaac\AppData\Local\Temp\cc1fpKCw.s 			page 7


  34              		.cfi_offset 3, -8
  35              		.cfi_offset 14, -4
 310:main.c        ****     CyDelay(50);
  36              		.loc 1 310 0
  37 0002 3220     		movs	r0, #50
  38 0004 FFF7FEFF 		bl	CyDelay
  39              	.LVL0:
 311:main.c        ****     if(state == 'g'){
  40              		.loc 1 311 0
  41 0008 074B     		ldr	r3, .L4
  42 000a 1B78     		ldrb	r3, [r3]	@ zero_extendqisi2
  43 000c 672B     		cmp	r3, #103
  44 000e 05D1     		bne	.L2
 312:main.c        ****     state = 'p';
  45              		.loc 1 312 0
  46 0010 7022     		movs	r2, #112
  47 0012 054B     		ldr	r3, .L4
  48 0014 1A70     		strb	r2, [r3]
 313:main.c        ****     pause_status = 1;
  49              		.loc 1 313 0
  50 0016 0122     		movs	r2, #1
  51 0018 044B     		ldr	r3, .L4+4
  52 001a 1A60     		str	r2, [r3]
  53              	.L2:
 314:main.c        ****     }
 315:main.c        ****     Pause_ClearInterrupt();
  54              		.loc 1 315 0
  55 001c FFF7FEFF 		bl	Pause_ClearInterrupt
  56              	.LVL1:
 316:main.c        ****     isr_PAUSE_ClearPending();
  57              		.loc 1 316 0
  58 0020 FFF7FEFF 		bl	isr_PAUSE_ClearPending
  59              	.LVL2:
  60 0024 08BD     		pop	{r3, pc}
  61              	.L5:
  62 0026 00BF     		.align	2
  63              	.L4:
  64 0028 00000000 		.word	.LANCHOR0
  65 002c 00000000 		.word	.LANCHOR1
  66              		.cfi_endproc
  67              	.LFE84:
  68              		.size	pause_handler, .-pause_handler
  69              		.section	.text.resume_handler,"ax",%progbits
  70              		.align	2
  71              		.global	resume_handler
  72              		.thumb
  73              		.thumb_func
  74              		.type	resume_handler, %function
  75              	resume_handler:
  76              	.LFB85:
 317:main.c        **** }
 318:main.c        **** 
 319:main.c        **** CY_ISR(resume_handler){
  77              		.loc 1 319 0
  78              		.cfi_startproc
  79              		@ args = 0, pretend = 0, frame = 0
  80              		@ frame_needed = 0, uses_anonymous_args = 0
ARM GAS  C:\Users\isaac\AppData\Local\Temp\cc1fpKCw.s 			page 8


  81 0000 08B5     		push	{r3, lr}
  82              		.cfi_def_cfa_offset 8
  83              		.cfi_offset 3, -8
  84              		.cfi_offset 14, -4
 320:main.c        ****     if(pause_status == 1){
  85              		.loc 1 320 0
  86 0002 064B     		ldr	r3, .L9
  87 0004 1B68     		ldr	r3, [r3]
  88 0006 012B     		cmp	r3, #1
  89 0008 02D1     		bne	.L7
 321:main.c        ****         pause_status = 0;
  90              		.loc 1 321 0
  91 000a 0022     		movs	r2, #0
  92 000c 034B     		ldr	r3, .L9
  93 000e 1A60     		str	r2, [r3]
  94              	.L7:
 322:main.c        ****     }
 323:main.c        ****     Resume_ClearInterrupt();
  95              		.loc 1 323 0
  96 0010 FFF7FEFF 		bl	Resume_ClearInterrupt
  97              	.LVL3:
 324:main.c        ****     isr_RESUME_ClearPending();
  98              		.loc 1 324 0
  99 0014 FFF7FEFF 		bl	isr_RESUME_ClearPending
 100              	.LVL4:
 101 0018 08BD     		pop	{r3, pc}
 102              	.L10:
 103 001a 00BF     		.align	2
 104              	.L9:
 105 001c 00000000 		.word	.LANCHOR1
 106              		.cfi_endproc
 107              	.LFE85:
 108              		.size	resume_handler, .-resume_handler
 109              		.section	.text.real_handler,"ax",%progbits
 110              		.align	2
 111              		.global	real_handler
 112              		.thumb
 113              		.thumb_func
 114              		.type	real_handler, %function
 115              	real_handler:
 116              	.LFB87:
 325:main.c        **** }
 326:main.c        **** CY_ISR(tic_handler){
 327:main.c        ****     switch(state){
 328:main.c        ****         case 'g':
 329:main.c        ****         if(RandNum(0,100) < 10){
 330:main.c        ****                         add_bait();
 331:main.c        ****                     }
 332:main.c        ****                     bool good_move = move_snake();
 333:main.c        ****                     if (!good_move){
 334:main.c        ****                         draw_snake();    
 335:main.c        ****                     }
 336:main.c        ****                     else {
 337:main.c        ****                         state = 'e';
 338:main.c        ****                         UpdateStatus();
 339:main.c        ****                     }
 340:main.c        ****                     if(match_score == max_score){
ARM GAS  C:\Users\isaac\AppData\Local\Temp\cc1fpKCw.s 			page 9


 341:main.c        ****                         state = 'm';
 342:main.c        ****                         UpdateStatus();
 343:main.c        ****                     }
 344:main.c        ****             break;
 345:main.c        ****     }
 346:main.c        ****     if(period_offs_old != period_offs){
 347:main.c        ****     int res = 1000/(2*period_offs);
 348:main.c        ****     //int res = 1000 - 100*period_offs;
 349:main.c        ****     Timer_Tic_WritePeriod(res);
 350:main.c        ****     }
 351:main.c        ****     period_offs_old = period_offs;
 352:main.c        ****     Timer_Tic_ReadStatusRegister();
 353:main.c        ****     isr_TIC_ClearPending();
 354:main.c        **** }
 355:main.c        **** CY_ISR(real_handler){
 117              		.loc 1 355 0
 118              		.cfi_startproc
 119              		@ args = 0, pretend = 0, frame = 0
 120              		@ frame_needed = 0, uses_anonymous_args = 0
 121 0000 08B5     		push	{r3, lr}
 122              		.cfi_def_cfa_offset 8
 123              		.cfi_offset 3, -8
 124              		.cfi_offset 14, -4
 356:main.c        ****     if(time_paused < 15){
 125              		.loc 1 356 0
 126 0002 064B     		ldr	r3, .L14
 127 0004 5B68     		ldr	r3, [r3, #4]
 128 0006 0E2B     		cmp	r3, #14
 129 0008 02DC     		bgt	.L12
 357:main.c        ****     time_paused++;
 130              		.loc 1 357 0
 131 000a 0133     		adds	r3, r3, #1
 132 000c 034A     		ldr	r2, .L14
 133 000e 5360     		str	r3, [r2, #4]
 134              	.L12:
 358:main.c        ****     }
 359:main.c        ****     Timer_Real_ReadStatusRegister();
 135              		.loc 1 359 0
 136 0010 FFF7FEFF 		bl	Timer_Real_ReadStatusRegister
 137              	.LVL5:
 360:main.c        ****     isr_REAL_ClearPending();
 138              		.loc 1 360 0
 139 0014 FFF7FEFF 		bl	isr_REAL_ClearPending
 140              	.LVL6:
 141 0018 08BD     		pop	{r3, pc}
 142              	.L15:
 143 001a 00BF     		.align	2
 144              	.L14:
 145 001c 00000000 		.word	.LANCHOR1
 146              		.cfi_endproc
 147              	.LFE87:
 148              		.size	real_handler, .-real_handler
 149              		.section	.text.Pos_2D,"ax",%progbits
 150              		.align	2
 151              		.global	Pos_2D
 152              		.thumb
 153              		.thumb_func
ARM GAS  C:\Users\isaac\AppData\Local\Temp\cc1fpKCw.s 			page 10


 154              		.type	Pos_2D, %function
 155              	Pos_2D:
 156              	.LFB64:
 157              		.file 2 "GlobalFunc.h"
   1:GlobalFunc.h  **** //Global Functions
   2:GlobalFunc.h  **** #include <stdio.h>
   3:GlobalFunc.h  **** #include <string.h>
   4:GlobalFunc.h  **** #include <stdlib.h>
   5:GlobalFunc.h  **** #include <stdbool.h>
   6:GlobalFunc.h  **** //Basic Conversion
   7:GlobalFunc.h  **** int Pos_2D(int posx, int posy){
 158              		.loc 2 7 0
 159              		.cfi_startproc
 160              		@ args = 0, pretend = 0, frame = 0
 161              		@ frame_needed = 0, uses_anonymous_args = 0
 162              		@ link register save eliminated.
 163              	.LVL7:
   8:GlobalFunc.h  ****     int c = 16*posy + posx; 
   9:GlobalFunc.h  ****     return c;
  10:GlobalFunc.h  **** }
 164              		.loc 2 10 0
 165 0000 00EB0110 		add	r0, r0, r1, lsl #4
 166              	.LVL8:
 167 0004 7047     		bx	lr
 168              		.cfi_endproc
 169              	.LFE64:
 170              		.size	Pos_2D, .-Pos_2D
 171 0006 00BF     		.section	.text.RandNum,"ax",%progbits
 172              		.align	2
 173              		.global	RandNum
 174              		.thumb
 175              		.thumb_func
 176              		.type	RandNum, %function
 177              	RandNum:
 178              	.LFB65:
  11:GlobalFunc.h  **** 
  12:GlobalFunc.h  **** int RandNum(int lower,int upper){
 179              		.loc 2 12 0
 180              		.cfi_startproc
 181              		@ args = 0, pretend = 0, frame = 0
 182              		@ frame_needed = 0, uses_anonymous_args = 0
 183              	.LVL9:
 184 0000 38B5     		push	{r3, r4, r5, lr}
 185              		.cfi_def_cfa_offset 16
 186              		.cfi_offset 3, -16
 187              		.cfi_offset 4, -12
 188              		.cfi_offset 5, -8
 189              		.cfi_offset 14, -4
 190 0002 0546     		mov	r5, r0
 191 0004 0C46     		mov	r4, r1
  13:GlobalFunc.h  ****     int num = (rand() % (upper - lower + 1)) + lower; 
 192              		.loc 2 13 0
 193 0006 FFF7FEFF 		bl	rand
 194              	.LVL10:
 195 000a 641B     		subs	r4, r4, r5
 196              	.LVL11:
 197 000c 631C     		adds	r3, r4, #1
ARM GAS  C:\Users\isaac\AppData\Local\Temp\cc1fpKCw.s 			page 11


 198 000e 90FBF3F2 		sdiv	r2, r0, r3
 199 0012 03FB1200 		mls	r0, r3, r2, r0
 200              	.LVL12:
  14:GlobalFunc.h  ****     return num;
  15:GlobalFunc.h  **** }...
 201              		.loc 2 15 0
 202 0016 2844     		add	r0, r0, r5
 203              	.LVL13:
 204 0018 38BD     		pop	{r3, r4, r5, pc}
 205              		.cfi_endproc
 206              	.LFE65:
 207              		.size	RandNum, .-RandNum
 208 001a 00BF     		.section	.text.RenderBoard,"ax",%progbits
 209              		.align	2
 210              		.global	RenderBoard
 211              		.thumb
 212              		.thumb_func
 213              		.type	RenderBoard, %function
 214              	RenderBoard:
 215              	.LFB67:
 216              		.file 3 "PixelEngine.h"
   1:PixelEngine.h **** //The following header contains functions to support a Pixel Engine for the Hitachi LCD 16x2 Module
   2:PixelEngine.h **** //Written By: Isaac Kuri.
   3:PixelEngine.h **** #include "GlobalDef.h"
   4:PixelEngine.h **** #include "project.h"
   5:PixelEngine.h **** 
   6:PixelEngine.h **** uint8 lcd_ram[lcd_ram_size];
   7:PixelEngine.h **** 
   8:PixelEngine.h **** void RenderBoard(int posx);
   9:PixelEngine.h **** uint8 PosToByte(int var_);
  10:PixelEngine.h **** 
  11:PixelEngine.h **** void ShowBoard(int Board[snake_board_height][snake_board_length]){
  12:PixelEngine.h ****     //Transforms a given board to a uint8 64bytes format.
  13:PixelEngine.h ****     int sub_x = 0;
  14:PixelEngine.h ****     int sub_y = 0;
  15:PixelEngine.h ****     int seg_line = 0;
  16:PixelEngine.h ****     int seg_tracker = 0;
  17:PixelEngine.h ****     uint8 ram_buff = 0;
  18:PixelEngine.h ****     
  19:PixelEngine.h ****     for(int i = 0; i < lcd_ram_size; i++){
  20:PixelEngine.h ****         for(int x = 0; x < segment_length; x++){
  21:PixelEngine.h ****             if(Board[sub_y][sub_x + x] >= 1){
  22:PixelEngine.h ****             ram_buff += PosToByte(x);
  23:PixelEngine.h ****             }
  24:PixelEngine.h ****         }
  25:PixelEngine.h ****         lcd_ram[i] = ram_buff;
  26:PixelEngine.h ****         ram_buff = 0;
  27:PixelEngine.h ****         if(seg_line < segment_height - 1){
  28:PixelEngine.h ****             seg_line++;
  29:PixelEngine.h ****             sub_y++;
  30:PixelEngine.h ****         }
  31:PixelEngine.h ****         else{
  32:PixelEngine.h ****             seg_line = 0;
  33:PixelEngine.h ****             seg_tracker++;
  34:PixelEngine.h ****             sub_x += segment_length;
  35:PixelEngine.h ****             if(seg_tracker == 4){
  36:PixelEngine.h ****                 sub_x =0;
ARM GAS  C:\Users\isaac\AppData\Local\Temp\cc1fpKCw.s 			page 12


  37:PixelEngine.h ****             }
  38:PixelEngine.h ****             if(seg_tracker > 3){
  39:PixelEngine.h ****                 sub_y = segment_height;
  40:PixelEngine.h ****             }
  41:PixelEngine.h ****             else {
  42:PixelEngine.h ****                 sub_y = 0;
  43:PixelEngine.h ****             }
  44:PixelEngine.h ****         }
  45:PixelEngine.h ****     }
  46:PixelEngine.h ****     RenderBoard(0);
  47:PixelEngine.h **** }
  48:PixelEngine.h **** 
  49:PixelEngine.h **** void RenderBoard(int posx){
 217              		.loc 3 49 0
 218              		.cfi_startproc
 219              		@ args = 0, pretend = 0, frame = 0
 220              		@ frame_needed = 0, uses_anonymous_args = 0
 221              	.LVL14:
 222 0000 F8B5     		push	{r3, r4, r5, r6, r7, lr}
 223              		.cfi_def_cfa_offset 24
 224              		.cfi_offset 3, -24
 225              		.cfi_offset 4, -20
 226              		.cfi_offset 5, -16
 227              		.cfi_offset 6, -12
 228              		.cfi_offset 7, -8
 229              		.cfi_offset 14, -4
 230 0002 0446     		mov	r4, r0
  50:PixelEngine.h ****     //load LCD RAM and Display
  51:PixelEngine.h ****     //LCD_ClearDisplay();
  52:PixelEngine.h ****     LCD_LoadCustomFonts(lcd_ram);
 231              		.loc 3 52 0
 232 0004 2148     		ldr	r0, .L21
 233              	.LVL15:
 234 0006 FFF7FEFF 		bl	LCD_LoadCustomFonts
 235              	.LVL16:
  53:PixelEngine.h **** 
  54:PixelEngine.h ****     LCD_Position(0, posx);
 236              		.loc 3 54 0
 237 000a E4B2     		uxtb	r4, r4
 238              	.LVL17:
 239 000c 2146     		mov	r1, r4
 240 000e 0020     		movs	r0, #0
 241 0010 FFF7FEFF 		bl	LCD_Position
 242              	.LVL18:
  55:PixelEngine.h ****     LCD_PutChar(LCD_CUSTOM_0);
 243              		.loc 3 55 0
 244 0014 0020     		movs	r0, #0
 245 0016 FFF7FEFF 		bl	LCD_PutChar
 246              	.LVL19:
  56:PixelEngine.h ****     LCD_Position(0, posx + 1);
 247              		.loc 3 56 0
 248 001a 671C     		adds	r7, r4, #1
 249 001c FFB2     		uxtb	r7, r7
 250 001e 3946     		mov	r1, r7
 251 0020 0020     		movs	r0, #0
 252 0022 FFF7FEFF 		bl	LCD_Position
 253              	.LVL20:
ARM GAS  C:\Users\isaac\AppData\Local\Temp\cc1fpKCw.s 			page 13


  57:PixelEngine.h ****     LCD_PutChar(LCD_CUSTOM_1);
 254              		.loc 3 57 0
 255 0026 0120     		movs	r0, #1
 256 0028 FFF7FEFF 		bl	LCD_PutChar
 257              	.LVL21:
  58:PixelEngine.h ****     LCD_Position(0, posx + 2);
 258              		.loc 3 58 0
 259 002c A61C     		adds	r6, r4, #2
 260 002e F6B2     		uxtb	r6, r6
 261 0030 3146     		mov	r1, r6
 262 0032 0020     		movs	r0, #0
 263 0034 FFF7FEFF 		bl	LCD_Position
 264              	.LVL22:
  59:PixelEngine.h ****     LCD_PutChar(LCD_CUSTOM_2);
 265              		.loc 3 59 0
 266 0038 0220     		movs	r0, #2
 267 003a FFF7FEFF 		bl	LCD_PutChar
 268              	.LVL23:
  60:PixelEngine.h ****     LCD_Position(0, posx + 3);
 269              		.loc 3 60 0
 270 003e E51C     		adds	r5, r4, #3
 271 0040 EDB2     		uxtb	r5, r5
 272 0042 2946     		mov	r1, r5
 273 0044 0020     		movs	r0, #0
 274 0046 FFF7FEFF 		bl	LCD_Position
 275              	.LVL24:
  61:PixelEngine.h ****     LCD_PutChar(LCD_CUSTOM_3);
 276              		.loc 3 61 0
 277 004a 0320     		movs	r0, #3
 278 004c FFF7FEFF 		bl	LCD_PutChar
 279              	.LVL25:
  62:PixelEngine.h ****     LCD_Position(1, posx);
 280              		.loc 3 62 0
 281 0050 2146     		mov	r1, r4
 282 0052 0120     		movs	r0, #1
 283 0054 FFF7FEFF 		bl	LCD_Position
 284              	.LVL26:
  63:PixelEngine.h ****     LCD_PutChar(LCD_CUSTOM_4);
 285              		.loc 3 63 0
 286 0058 0420     		movs	r0, #4
 287 005a FFF7FEFF 		bl	LCD_PutChar
 288              	.LVL27:
  64:PixelEngine.h ****     LCD_Position(1, posx + 1);
 289              		.loc 3 64 0
 290 005e 3946     		mov	r1, r7
 291 0060 0120     		movs	r0, #1
 292 0062 FFF7FEFF 		bl	LCD_Position
 293              	.LVL28:
  65:PixelEngine.h ****     LCD_PutChar(LCD_CUSTOM_5);
 294              		.loc 3 65 0
 295 0066 0520     		movs	r0, #5
 296 0068 FFF7FEFF 		bl	LCD_PutChar
 297              	.LVL29:
  66:PixelEngine.h ****     LCD_Position(1, posx + 2);
 298              		.loc 3 66 0
 299 006c 3146     		mov	r1, r6
 300 006e 0120     		movs	r0, #1
ARM GAS  C:\Users\isaac\AppData\Local\Temp\cc1fpKCw.s 			page 14


 301 0070 FFF7FEFF 		bl	LCD_Position
 302              	.LVL30:
  67:PixelEngine.h ****     LCD_PutChar(LCD_CUSTOM_6);
 303              		.loc 3 67 0
 304 0074 0620     		movs	r0, #6
 305 0076 FFF7FEFF 		bl	LCD_PutChar
 306              	.LVL31:
  68:PixelEngine.h ****     LCD_Position(1, posx + 3);
 307              		.loc 3 68 0
 308 007a 2946     		mov	r1, r5
 309 007c 0120     		movs	r0, #1
 310 007e FFF7FEFF 		bl	LCD_Position
 311              	.LVL32:
  69:PixelEngine.h ****     LCD_PutChar(LCD_CUSTOM_7);
 312              		.loc 3 69 0
 313 0082 0720     		movs	r0, #7
 314 0084 FFF7FEFF 		bl	LCD_PutChar
 315              	.LVL33:
 316 0088 F8BD     		pop	{r3, r4, r5, r6, r7, pc}
 317              	.L22:
 318 008a 00BF     		.align	2
 319              	.L21:
 320 008c 00000000 		.word	lcd_ram
 321              		.cfi_endproc
 322              	.LFE67:
 323              		.size	RenderBoard, .-RenderBoard
 324              		.section	.text.PosToByte,"ax",%progbits
 325              		.align	2
 326              		.global	PosToByte
 327              		.thumb
 328              		.thumb_func
 329              		.type	PosToByte, %function
 330              	PosToByte:
 331              	.LFB68:
  70:PixelEngine.h **** }
  71:PixelEngine.h **** 
  72:PixelEngine.h **** uint8 PosToByte(int var_){
 332              		.loc 3 72 0
 333              		.cfi_startproc
 334              		@ args = 0, pretend = 0, frame = 0
 335              		@ frame_needed = 0, uses_anonymous_args = 0
 336              		@ link register save eliminated.
 337              	.LVL34:
  73:PixelEngine.h ****     //Does the position correction to bytes.
  74:PixelEngine.h ****     uint8 result = 0b0;
  75:PixelEngine.h ****     if(var_ == 0){
 338              		.loc 3 75 0
 339 0000 0346     		mov	r3, r0
 340 0002 08B1     		cbz	r0, .L29
  74:PixelEngine.h ****     if(var_ == 0){
 341              		.loc 3 74 0
 342 0004 0020     		movs	r0, #0
 343              	.LVL35:
 344 0006 00E0     		b	.L24
 345              	.LVL36:
 346              	.L29:
  76:PixelEngine.h ****         result = 0b10000;
ARM GAS  C:\Users\isaac\AppData\Local\Temp\cc1fpKCw.s 			page 15


 347              		.loc 3 76 0
 348 0008 1020     		movs	r0, #16
 349              	.LVL37:
 350              	.L24:
  77:PixelEngine.h ****     }
  78:PixelEngine.h ****     if(var_ == 1){
 351              		.loc 3 78 0
 352 000a 012B     		cmp	r3, #1
 353 000c 00D1     		bne	.L25
  79:PixelEngine.h ****         result = 0b1000;
 354              		.loc 3 79 0
 355 000e 0820     		movs	r0, #8
 356              	.LVL38:
 357              	.L25:
  80:PixelEngine.h ****     }
  81:PixelEngine.h ****     if(var_ == 2){
 358              		.loc 3 81 0
 359 0010 022B     		cmp	r3, #2
 360 0012 00D1     		bne	.L26
  82:PixelEngine.h ****         result = 0b100;
 361              		.loc 3 82 0
 362 0014 0420     		movs	r0, #4
 363              	.LVL39:
 364              	.L26:
  83:PixelEngine.h ****     }
  84:PixelEngine.h ****     if(var_ == 3){
 365              		.loc 3 84 0
 366 0016 032B     		cmp	r3, #3
 367 0018 00D1     		bne	.L27
  85:PixelEngine.h ****         result = 0b10;
 368              		.loc 3 85 0
 369 001a 0220     		movs	r0, #2
 370              	.LVL40:
 371              	.L27:
  86:PixelEngine.h ****     }
  87:PixelEngine.h ****     if(var_ == 4){
 372              		.loc 3 87 0
 373 001c 042B     		cmp	r3, #4
 374 001e 00D1     		bne	.L28
  88:PixelEngine.h ****         result = 0b1;
 375              		.loc 3 88 0
 376 0020 0120     		movs	r0, #1
 377              	.LVL41:
 378              	.L28:
  89:PixelEngine.h ****     }
  90:PixelEngine.h ****     return result;
  91:PixelEngine.h **** }...
 379              		.loc 3 91 0
 380 0022 7047     		bx	lr
 381              		.cfi_endproc
 382              	.LFE68:
 383              		.size	PosToByte, .-PosToByte
 384              		.section	.text.ShowBoard,"ax",%progbits
 385              		.align	2
 386              		.global	ShowBoard
 387              		.thumb
 388              		.thumb_func
ARM GAS  C:\Users\isaac\AppData\Local\Temp\cc1fpKCw.s 			page 16


 389              		.type	ShowBoard, %function
 390              	ShowBoard:
 391              	.LFB66:
  11:PixelEngine.h **** void ShowBoard(int Board[snake_board_height][snake_board_length]){
 392              		.loc 3 11 0
 393              		.cfi_startproc
 394              		@ args = 0, pretend = 0, frame = 0
 395              		@ frame_needed = 0, uses_anonymous_args = 0
 396              	.LVL42:
 397 0000 2DE9F84F 		push	{r3, r4, r5, r6, r7, r8, r9, r10, fp, lr}
 398              		.cfi_def_cfa_offset 40
 399              		.cfi_offset 3, -40
 400              		.cfi_offset 4, -36
 401              		.cfi_offset 5, -32
 402              		.cfi_offset 6, -28
 403              		.cfi_offset 7, -24
 404              		.cfi_offset 8, -20
 405              		.cfi_offset 9, -16
 406              		.cfi_offset 10, -12
 407              		.cfi_offset 11, -8
 408              		.cfi_offset 14, -4
 409 0004 8046     		mov	r8, r0
 410              	.LVL43:
 411              	.LBB2:
  19:PixelEngine.h ****     for(int i = 0; i < lcd_ram_size; i++){
 412              		.loc 3 19 0
 413 0006 4FF00009 		mov	r9, #0
 414              	.LBE2:
  16:PixelEngine.h ****     int seg_tracker = 0;
 415              		.loc 3 16 0
 416 000a CB46     		mov	fp, r9
  15:PixelEngine.h ****     int seg_line = 0;
 417              		.loc 3 15 0
 418 000c CA46     		mov	r10, r9
  14:PixelEngine.h ****     int sub_y = 0;
 419              		.loc 3 14 0
 420 000e 4E46     		mov	r6, r9
  13:PixelEngine.h ****     int sub_x = 0;
 421              		.loc 3 13 0
 422 0010 4F46     		mov	r7, r9
 423              	.LBB5:
  19:PixelEngine.h ****     for(int i = 0; i < lcd_ram_size; i++){
 424              		.loc 3 19 0
 425 0012 30E0     		b	.L35
 426              	.LVL44:
 427              	.L37:
 428              	.LBB3:
  21:PixelEngine.h ****             if(Board[sub_y][sub_x + x] >= 1){
 429              		.loc 3 21 0
 430 0014 06EB8602 		add	r2, r6, r6, lsl #2
 431 0018 1301     		lsls	r3, r2, #4
 432 001a 4344     		add	r3, r3, r8
 433 001c 3A19     		adds	r2, r7, r4
 434 001e 53F82230 		ldr	r3, [r3, r2, lsl #2]
 435 0022 002B     		cmp	r3, #0
 436 0024 04DD     		ble	.L36
  22:PixelEngine.h ****             ram_buff += PosToByte(x);
ARM GAS  C:\Users\isaac\AppData\Local\Temp\cc1fpKCw.s 			page 17


 437              		.loc 3 22 0
 438 0026 2046     		mov	r0, r4
 439 0028 FFF7FEFF 		bl	PosToByte
 440              	.LVL45:
 441 002c 2844     		add	r0, r0, r5
 442 002e C5B2     		uxtb	r5, r0
 443              	.LVL46:
 444              	.L36:
  20:PixelEngine.h ****         for(int x = 0; x < segment_length; x++){
 445              		.loc 3 20 0 discriminator 2
 446 0030 0134     		adds	r4, r4, #1
 447              	.LVL47:
 448 0032 01E0     		b	.L41
 449              	.LVL48:
 450              	.L44:
 451              	.LBE3:
 452 0034 0024     		movs	r4, #0
 453 0036 2546     		mov	r5, r4
 454              	.LVL49:
 455              	.L41:
 456              	.LBB4:
  20:PixelEngine.h ****         for(int x = 0; x < segment_length; x++){
 457              		.loc 3 20 0 is_stmt 0 discriminator 1
 458 0038 042C     		cmp	r4, #4
 459 003a EBDD     		ble	.L37
 460              	.LBE4:
  25:PixelEngine.h ****         lcd_ram[i] = ram_buff;
 461              		.loc 3 25 0 is_stmt 1
 462 003c 124B     		ldr	r3, .L46
 463 003e 03F80950 		strb	r5, [r3, r9]
 464              	.LVL50:
  27:PixelEngine.h ****         if(seg_line < segment_height - 1){
 465              		.loc 3 27 0
 466 0042 BAF1060F 		cmp	r10, #6
 467 0046 03DC     		bgt	.L38
  28:PixelEngine.h ****             seg_line++;
 468              		.loc 3 28 0
 469 0048 0AF1010A 		add	r10, r10, #1
 470              	.LVL51:
  29:PixelEngine.h ****             sub_y++;
 471              		.loc 3 29 0
 472 004c 0136     		adds	r6, r6, #1
 473              	.LVL52:
 474 004e 10E0     		b	.L39
 475              	.L38:
 476              	.LVL53:
  33:PixelEngine.h ****             seg_tracker++;
 477              		.loc 3 33 0
 478 0050 0BF1010B 		add	fp, fp, #1
 479              	.LVL54:
  34:PixelEngine.h ****             sub_x += segment_length;
 480              		.loc 3 34 0
 481 0054 0537     		adds	r7, r7, #5
 482              	.LVL55:
  35:PixelEngine.h ****             if(seg_tracker == 4){
 483              		.loc 3 35 0
 484 0056 BBF1040F 		cmp	fp, #4
ARM GAS  C:\Users\isaac\AppData\Local\Temp\cc1fpKCw.s 			page 18


 485 005a 00D1     		bne	.L40
  36:PixelEngine.h ****                 sub_x =0;
 486              		.loc 3 36 0
 487 005c 0027     		movs	r7, #0
 488              	.LVL56:
 489              	.L40:
  38:PixelEngine.h ****             if(seg_tracker > 3){
 490              		.loc 3 38 0
 491 005e BBF1030F 		cmp	fp, #3
 492 0062 03DD     		ble	.L43
  32:PixelEngine.h ****             seg_line = 0;
 493              		.loc 3 32 0
 494 0064 4FF0000A 		mov	r10, #0
  39:PixelEngine.h ****                 sub_y = segment_height;
 495              		.loc 3 39 0
 496 0068 0826     		movs	r6, #8
 497              	.LVL57:
 498 006a 02E0     		b	.L39
 499              	.LVL58:
 500              	.L43:
  32:PixelEngine.h ****             seg_line = 0;
 501              		.loc 3 32 0
 502 006c 4FF0000A 		mov	r10, #0
  42:PixelEngine.h ****                 sub_y = 0;
 503              		.loc 3 42 0
 504 0070 5646     		mov	r6, r10
 505              	.LVL59:
 506              	.L39:
  19:PixelEngine.h ****     for(int i = 0; i < lcd_ram_size; i++){
 507              		.loc 3 19 0 discriminator 2
 508 0072 09F10109 		add	r9, r9, #1
 509              	.LVL60:
 510              	.L35:
  19:PixelEngine.h ****     for(int i = 0; i < lcd_ram_size; i++){
 511              		.loc 3 19 0 is_stmt 0 discriminator 1
 512 0076 B9F13F0F 		cmp	r9, #63
 513 007a DBDD     		ble	.L44
 514              	.LBE5:
  46:PixelEngine.h ****     RenderBoard(0);
 515              		.loc 3 46 0 is_stmt 1
 516 007c 0020     		movs	r0, #0
 517 007e FFF7FEFF 		bl	RenderBoard
 518              	.LVL61:
 519 0082 BDE8F88F 		pop	{r3, r4, r5, r6, r7, r8, r9, r10, fp, pc}
 520              	.LVL62:
 521              	.L47:
 522 0086 00BF     		.align	2
 523              	.L46:
 524 0088 00000000 		.word	lcd_ram
 525              		.cfi_endproc
 526              	.LFE66:
 527              		.size	ShowBoard, .-ShowBoard
 528              		.section	.text.Clear_Baits,"ax",%progbits
 529              		.align	2
 530              		.global	Clear_Baits
 531              		.thumb
 532              		.thumb_func
ARM GAS  C:\Users\isaac\AppData\Local\Temp\cc1fpKCw.s 			page 19


 533              		.type	Clear_Baits, %function
 534              	Clear_Baits:
 535              	.LFB69:
 536              		.file 4 "SnakeGame.h"
   1:SnakeGame.h   **** #include <stdio.h>
   2:SnakeGame.h   **** #include <string.h>
   3:SnakeGame.h   **** #include <stdlib.h>
   4:SnakeGame.h   **** #include <stdbool.h>
   5:SnakeGame.h   **** #include "GlobalDef.h"
   6:SnakeGame.h   **** #include "GlobalFunc.h"
   7:SnakeGame.h   **** #include "PixelEngine.h"
   8:SnakeGame.h   **** 
   9:SnakeGame.h   **** 
  10:SnakeGame.h   **** //Coordinate Vector for the Snake
  11:SnakeGame.h   **** struct snake_xy {
  12:SnakeGame.h   **** 	int x, y;
  13:SnakeGame.h   **** };
  14:SnakeGame.h   **** 
  15:SnakeGame.h   **** //Data Structure of the Snake
  16:SnakeGame.h   **** const int snake_size = snake_board_area;
  17:SnakeGame.h   **** const int grid_size = snake_board_area;
  18:SnakeGame.h   **** //Max Amount of Baits
  19:SnakeGame.h   **** const int bait_size = bait_size_u;
  20:SnakeGame.h   **** 
  21:SnakeGame.h   **** struct snake_xy snake[snake_board_area];
  22:SnakeGame.h   **** struct snake_xy bait[bait_size_u];
  23:SnakeGame.h   **** 
  24:SnakeGame.h   **** int snake_head = 0;
  25:SnakeGame.h   **** int snake_tail = 0;
  26:SnakeGame.h   **** int match_score = 0;
  27:SnakeGame.h   **** 
  28:SnakeGame.h   **** int score_ten_t = 0;
  29:SnakeGame.h   **** int period_offs = 0;
  30:SnakeGame.h   **** 
  31:SnakeGame.h   **** char last_dir = 'D';
  32:SnakeGame.h   **** char cur_dir = 'D';
  33:SnakeGame.h   **** 
  34:SnakeGame.h   **** 
  35:SnakeGame.h   **** int MapBuffer[snake_board_height][snake_board_length];
  36:SnakeGame.h   **** 
  37:SnakeGame.h   **** //Init all baits as null
  38:SnakeGame.h   **** void Clear_Baits(){
 537              		.loc 4 38 0
 538              		.cfi_startproc
 539              		@ args = 0, pretend = 0, frame = 0
 540              		@ frame_needed = 0, uses_anonymous_args = 0
 541              		@ link register save eliminated.
 542              	.LVL63:
 543              	.LBB6:
  39:SnakeGame.h   ****     for(int i = 0; i < bait_size; i++){
 544              		.loc 4 39 0
 545 0000 0023     		movs	r3, #0
 546 0002 08E0     		b	.L49
 547              	.LVL64:
 548              	.L50:
  40:SnakeGame.h   ****         bait[i].x = -1;
 549              		.loc 4 40 0 discriminator 3
ARM GAS  C:\Users\isaac\AppData\Local\Temp\cc1fpKCw.s 			page 20


 550 0004 054A     		ldr	r2, .L51
 551 0006 4FF0FF31 		mov	r1, #-1
 552 000a 42F83310 		str	r1, [r2, r3, lsl #3]
  41:SnakeGame.h   ****         bait[i].y = -1;
 553              		.loc 4 41 0 discriminator 3
 554 000e 02EBC302 		add	r2, r2, r3, lsl #3
 555 0012 5160     		str	r1, [r2, #4]
  39:SnakeGame.h   ****     for(int i = 0; i < bait_size; i++){
 556              		.loc 4 39 0 discriminator 3
 557 0014 0133     		adds	r3, r3, #1
 558              	.LVL65:
 559              	.L49:
  39:SnakeGame.h   ****     for(int i = 0; i < bait_size; i++){
 560              		.loc 4 39 0 is_stmt 0 discriminator 1
 561 0016 042B     		cmp	r3, #4
 562 0018 F4DD     		ble	.L50
 563              	.LBE6:
  42:SnakeGame.h   ****     }
  43:SnakeGame.h   **** }
 564              		.loc 4 43 0 is_stmt 1
 565 001a 7047     		bx	lr
 566              	.L52:
 567              		.align	2
 568              	.L51:
 569 001c 00000000 		.word	bait
 570              		.cfi_endproc
 571              	.LFE69:
 572              		.size	Clear_Baits, .-Clear_Baits
 573              		.section	.text.Start_Snake,"ax",%progbits
 574              		.align	2
 575              		.global	Start_Snake
 576              		.thumb
 577              		.thumb_func
 578              		.type	Start_Snake, %function
 579              	Start_Snake:
 580              	.LFB70:
  44:SnakeGame.h   **** 
  45:SnakeGame.h   **** void Start_Snake(int Board[snake_board_height][snake_board_length]) {
 581              		.loc 4 45 0
 582              		.cfi_startproc
 583              		@ args = 0, pretend = 0, frame = 0
 584              		@ frame_needed = 0, uses_anonymous_args = 0
 585              	.LVL66:
 586 0000 38B5     		push	{r3, r4, r5, lr}
 587              		.cfi_def_cfa_offset 16
 588              		.cfi_offset 3, -16
 589              		.cfi_offset 4, -12
 590              		.cfi_offset 5, -8
 591              		.cfi_offset 14, -4
 592 0002 0446     		mov	r4, r0
  46:SnakeGame.h   ****     match_score = 0;
 593              		.loc 4 46 0
 594 0004 184B     		ldr	r3, .L59
 595 0006 0025     		movs	r5, #0
 596 0008 9D60     		str	r5, [r3, #8]
  47:SnakeGame.h   ****     score_ten_t = 0;
 597              		.loc 4 47 0
ARM GAS  C:\Users\isaac\AppData\Local\Temp\cc1fpKCw.s 			page 21


 598 000a DD60     		str	r5, [r3, #12]
  48:SnakeGame.h   ****     period_offs = 0;
 599              		.loc 4 48 0
 600 000c 1D61     		str	r5, [r3, #16]
  49:SnakeGame.h   ****     Clear_Baits();
 601              		.loc 4 49 0
 602 000e FFF7FEFF 		bl	Clear_Baits
 603              	.LVL67:
 604              	.LBB7:
  50:SnakeGame.h   ****     //Passing a Map for the Snake
  51:SnakeGame.h   ****     for(int y = 0;y < snake_board_height; y++){
 605              		.loc 4 51 0
 606 0012 2846     		mov	r0, r5
 607 0014 11E0     		b	.L54
 608              	.LVL68:
 609              	.L55:
 610              	.LBB8:
  52:SnakeGame.h   ****         for(int x = 0; x < snake_board_length; x++){
  53:SnakeGame.h   ****             MapBuffer[y][x] = Board[y][x];
 611              		.loc 4 53 0 discriminator 3
 612 0016 8300     		lsls	r3, r0, #2
 613 0018 1D18     		adds	r5, r3, r0
 614 001a 2901     		lsls	r1, r5, #4
 615 001c 2144     		add	r1, r1, r4
 616 001e 51F82250 		ldr	r5, [r1, r2, lsl #2]
 617 0022 0344     		add	r3, r3, r0
 618 0024 9900     		lsls	r1, r3, #2
 619 0026 1144     		add	r1, r1, r2
 620 0028 104B     		ldr	r3, .L59+4
 621 002a 43F82150 		str	r5, [r3, r1, lsl #2]
  52:SnakeGame.h   ****         for(int x = 0; x < snake_board_length; x++){
 622              		.loc 4 52 0 discriminator 3
 623 002e 0132     		adds	r2, r2, #1
 624              	.LVL69:
 625 0030 00E0     		b	.L56
 626              	.LVL70:
 627              	.L57:
 628              	.LBE8:
 629 0032 0022     		movs	r2, #0
 630              	.L56:
 631              	.LVL71:
 632              	.LBB9:
  52:SnakeGame.h   ****         for(int x = 0; x < snake_board_length; x++){
 633              		.loc 4 52 0 is_stmt 0 discriminator 1
 634 0034 132A     		cmp	r2, #19
 635 0036 EEDD     		ble	.L55
 636              	.LBE9:
  51:SnakeGame.h   ****         for(int x = 0; x < snake_board_length; x++){
 637              		.loc 4 51 0 is_stmt 1 discriminator 2
 638 0038 0130     		adds	r0, r0, #1
 639              	.LVL72:
 640              	.L54:
  51:SnakeGame.h   ****         for(int x = 0; x < snake_board_length; x++){
 641              		.loc 4 51 0 is_stmt 0 discriminator 1
 642 003a 0F28     		cmp	r0, #15
 643 003c F9DD     		ble	.L57
 644              	.LBE7:
ARM GAS  C:\Users\isaac\AppData\Local\Temp\cc1fpKCw.s 			page 22


  54:SnakeGame.h   ****         }
  55:SnakeGame.h   ****     }
  56:SnakeGame.h   ****     //Initial positions
  57:SnakeGame.h   **** 	snake[0].x = 10; snake[0].y = 7;
 645              		.loc 4 57 0 is_stmt 1
 646 003e 0C4B     		ldr	r3, .L59+8
 647 0040 0A22     		movs	r2, #10
 648 0042 1A60     		str	r2, [r3]
 649 0044 0721     		movs	r1, #7
 650 0046 5960     		str	r1, [r3, #4]
  58:SnakeGame.h   **** 	snake[1].x = 10; snake[1].y = 6;
 651              		.loc 4 58 0
 652 0048 9A60     		str	r2, [r3, #8]
 653 004a 0621     		movs	r1, #6
 654 004c D960     		str	r1, [r3, #12]
  59:SnakeGame.h   **** 	snake[2].x = 10; snake[2].y = 5;
 655              		.loc 4 59 0
 656 004e 1A61     		str	r2, [r3, #16]
 657 0050 0522     		movs	r2, #5
 658 0052 5A61     		str	r2, [r3, #20]
  60:SnakeGame.h   ****     //Index for the snake, must equal the max index len and the initial len.
  61:SnakeGame.h   **** 	snake_head = 0;
 659              		.loc 4 61 0
 660 0054 044B     		ldr	r3, .L59
 661 0056 0022     		movs	r2, #0
 662 0058 5A61     		str	r2, [r3, #20]
  62:SnakeGame.h   **** 	snake_tail = 2;
 663              		.loc 4 62 0
 664 005a 0222     		movs	r2, #2
 665 005c 9A61     		str	r2, [r3, #24]
  63:SnakeGame.h   ****     //Starting direction of the snake.
  64:SnakeGame.h   **** 	cur_dir = 'D';
 666              		.loc 4 64 0
 667 005e 4422     		movs	r2, #68
 668 0060 044B     		ldr	r3, .L59+12
 669 0062 5A70     		strb	r2, [r3, #1]
 670 0064 38BD     		pop	{r3, r4, r5, pc}
 671              	.LVL73:
 672              	.L60:
 673 0066 00BF     		.align	2
 674              	.L59:
 675 0068 00000000 		.word	.LANCHOR1
 676 006c 00000000 		.word	MapBuffer
 677 0070 00000000 		.word	snake
 678 0074 00000000 		.word	.LANCHOR0
 679              		.cfi_endproc
 680              	.LFE70:
 681              		.size	Start_Snake, .-Start_Snake
 682              		.section	.text.add_bait,"ax",%progbits
 683              		.align	2
 684              		.global	add_bait
 685              		.thumb
 686              		.thumb_func
 687              		.type	add_bait, %function
 688              	add_bait:
 689              	.LFB71:
  65:SnakeGame.h   **** }
ARM GAS  C:\Users\isaac\AppData\Local\Temp\cc1fpKCw.s 			page 23


  66:SnakeGame.h   **** 
  67:SnakeGame.h   **** void add_bait() {
 690              		.loc 4 67 0
 691              		.cfi_startproc
 692              		@ args = 0, pretend = 0, frame = 0
 693              		@ frame_needed = 0, uses_anonymous_args = 0
 694 0000 70B5     		push	{r4, r5, r6, lr}
 695              		.cfi_def_cfa_offset 16
 696              		.cfi_offset 4, -16
 697              		.cfi_offset 5, -12
 698              		.cfi_offset 6, -8
 699              		.cfi_offset 14, -4
 700              	.LVL74:
 701              	.LBB10:
  68:SnakeGame.h   **** 	for (int i = 0; i < bait_size; i++) {
 702              		.loc 4 68 0
 703 0002 0025     		movs	r5, #0
 704 0004 3CE0     		b	.L62
 705              	.LVL75:
 706              	.L68:
  69:SnakeGame.h   ****         //A -1 indicates an empty slot
  70:SnakeGame.h   **** 		if (bait[i].x == -1) {
 707              		.loc 4 70 0
 708 0006 204B     		ldr	r3, .L70
 709 0008 53F83530 		ldr	r3, [r3, r5, lsl #3]
 710 000c B3F1FF3F 		cmp	r3, #-1
 711 0010 35D1     		bne	.L63
  71:SnakeGame.h   **** 			bait[i].x = RandNum(1,snake_board_length - 1);
 712              		.loc 4 71 0
 713 0012 1321     		movs	r1, #19
 714 0014 0120     		movs	r0, #1
 715 0016 FFF7FEFF 		bl	RandNum
 716              	.LVL76:
 717 001a 1B4C     		ldr	r4, .L70
 718 001c 44F83500 		str	r0, [r4, r5, lsl #3]
  72:SnakeGame.h   **** 			bait[i].y = RandNum(1,snake_board_height - 1);
 719              		.loc 4 72 0
 720 0020 0F21     		movs	r1, #15
 721 0022 0120     		movs	r0, #1
 722 0024 FFF7FEFF 		bl	RandNum
 723              	.LVL77:
 724 0028 04EBC504 		add	r4, r4, r5, lsl #3
 725 002c 6060     		str	r0, [r4, #4]
 726              	.LVL78:
 727              	.LBB11:
  73:SnakeGame.h   ****             //Check if bait spawned in the snake, so try again, might fail but its unlikely
  74:SnakeGame.h   ****             for (int j = 0; j < snake_tail; j++) {
 728              		.loc 4 74 0
 729 002e 0024     		movs	r4, #0
 730 0030 20E0     		b	.L64
 731              	.LVL79:
 732              	.L66:
  75:SnakeGame.h   **** 		    if ((snake[j].x == bait[i].x) && (snake[j].y == bait[i].y)) {
 733              		.loc 4 75 0
 734 0032 164B     		ldr	r3, .L70+4
 735 0034 53F83420 		ldr	r2, [r3, r4, lsl #3]
 736 0038 134B     		ldr	r3, .L70
ARM GAS  C:\Users\isaac\AppData\Local\Temp\cc1fpKCw.s 			page 24


 737 003a 53F83530 		ldr	r3, [r3, r5, lsl #3]
 738 003e 9A42     		cmp	r2, r3
 739 0040 17D1     		bne	.L65
 740              		.loc 4 75 0 is_stmt 0 discriminator 1
 741 0042 124B     		ldr	r3, .L70+4
 742 0044 03EBC403 		add	r3, r3, r4, lsl #3
 743 0048 5A68     		ldr	r2, [r3, #4]
 744 004a 0F4B     		ldr	r3, .L70
 745 004c 03EBC503 		add	r3, r3, r5, lsl #3
 746 0050 5B68     		ldr	r3, [r3, #4]
 747 0052 9A42     		cmp	r2, r3
 748 0054 0DD1     		bne	.L65
  76:SnakeGame.h   **** 			        bait[i].x = RandNum(1,snake_board_length - 1);
 749              		.loc 4 76 0 is_stmt 1
 750 0056 1321     		movs	r1, #19
 751 0058 0120     		movs	r0, #1
 752 005a FFF7FEFF 		bl	RandNum
 753              	.LVL80:
 754 005e 0A4E     		ldr	r6, .L70
 755 0060 46F83500 		str	r0, [r6, r5, lsl #3]
  77:SnakeGame.h   **** 			        bait[i].y = RandNum(1,snake_board_height - 1);
 756              		.loc 4 77 0
 757 0064 0F21     		movs	r1, #15
 758 0066 0120     		movs	r0, #1
 759 0068 FFF7FEFF 		bl	RandNum
 760              	.LVL81:
 761 006c 06EBC506 		add	r6, r6, r5, lsl #3
 762 0070 7060     		str	r0, [r6, #4]
 763              	.L65:
  74:SnakeGame.h   **** 		    if ((snake[j].x == bait[i].x) && (snake[j].y == bait[i].y)) {
 764              		.loc 4 74 0 discriminator 2
 765 0072 0134     		adds	r4, r4, #1
 766              	.LVL82:
 767              	.L64:
  74:SnakeGame.h   **** 		    if ((snake[j].x == bait[i].x) && (snake[j].y == bait[i].y)) {
 768              		.loc 4 74 0 is_stmt 0 discriminator 1
 769 0074 064B     		ldr	r3, .L70+8
 770 0076 9B69     		ldr	r3, [r3, #24]
 771 0078 9C42     		cmp	r4, r3
 772 007a DADB     		blt	.L66
 773 007c 70BD     		pop	{r4, r5, r6, pc}
 774              	.LVL83:
 775              	.L63:
 776              	.LBE11:
  68:SnakeGame.h   ****         //A -1 indicates an empty slot
 777              		.loc 4 68 0 is_stmt 1 discriminator 2
 778 007e 0135     		adds	r5, r5, #1
 779              	.LVL84:
 780              	.L62:
  68:SnakeGame.h   ****         //A -1 indicates an empty slot
 781              		.loc 4 68 0 is_stmt 0 discriminator 1
 782 0080 042D     		cmp	r5, #4
 783 0082 C0DD     		ble	.L68
 784 0084 70BD     		pop	{r4, r5, r6, pc}
 785              	.LVL85:
 786              	.L71:
 787 0086 00BF     		.align	2
ARM GAS  C:\Users\isaac\AppData\Local\Temp\cc1fpKCw.s 			page 25


 788              	.L70:
 789 0088 00000000 		.word	bait
 790 008c 00000000 		.word	snake
 791 0090 00000000 		.word	.LANCHOR1
 792              	.LBE10:
 793              		.cfi_endproc
 794              	.LFE71:
 795              		.size	add_bait, .-add_bait
 796              		.section	.text.Clear_Screen,"ax",%progbits
 797              		.align	2
 798              		.global	Clear_Screen
 799              		.thumb
 800              		.thumb_func
 801              		.type	Clear_Screen, %function
 802              	Clear_Screen:
 803              	.LFB72:
  78:SnakeGame.h   **** 		        }
  79:SnakeGame.h   **** 	        }
  80:SnakeGame.h   **** 			break;
  81:SnakeGame.h   **** 		}
  82:SnakeGame.h   **** 	}
  83:SnakeGame.h   **** }
  84:SnakeGame.h   **** 
  85:SnakeGame.h   **** void Clear_Screen(){
 804              		.loc 4 85 0 is_stmt 1
 805              		.cfi_startproc
 806              		@ args = 0, pretend = 0, frame = 0
 807              		@ frame_needed = 0, uses_anonymous_args = 0
 808              		@ link register save eliminated.
 809 0000 10B4     		push	{r4}
 810              		.cfi_def_cfa_offset 4
 811              		.cfi_offset 4, -4
 812              	.LVL86:
 813              	.LBB12:
  86:SnakeGame.h   ****     //Clear EveryLast Frame that Isn't a wall;
  87:SnakeGame.h   ****     for(int y = 0; y < snake_board_height; y++){
 814              		.loc 4 87 0
 815 0002 0021     		movs	r1, #0
 816 0004 16E0     		b	.L73
 817              	.LVL87:
 818              	.L75:
 819              	.LBB13:
  88:SnakeGame.h   ****         for(int x = 0; x < snake_board_length;x++){
  89:SnakeGame.h   ****             if(MapBuffer[y][x] != 3){
 820              		.loc 4 89 0
 821 0006 01EB8100 		add	r0, r1, r1, lsl #2
 822 000a 8300     		lsls	r3, r0, #2
 823 000c 1344     		add	r3, r3, r2
 824 000e 0B48     		ldr	r0, .L79
 825 0010 50F82330 		ldr	r3, [r0, r3, lsl #2]
 826 0014 032B     		cmp	r3, #3
 827 0016 07D0     		beq	.L74
  90:SnakeGame.h   ****                 MapBuffer[y][x] = 0;
 828              		.loc 4 90 0
 829 0018 01EB8100 		add	r0, r1, r1, lsl #2
 830 001c 8300     		lsls	r3, r0, #2
 831 001e 1344     		add	r3, r3, r2
ARM GAS  C:\Users\isaac\AppData\Local\Temp\cc1fpKCw.s 			page 26


 832 0020 0024     		movs	r4, #0
 833 0022 0648     		ldr	r0, .L79
 834 0024 40F82340 		str	r4, [r0, r3, lsl #2]
 835              	.L74:
  88:SnakeGame.h   ****         for(int x = 0; x < snake_board_length;x++){
 836              		.loc 4 88 0 discriminator 2
 837 0028 0132     		adds	r2, r2, #1
 838              	.LVL88:
 839 002a 00E0     		b	.L76
 840              	.LVL89:
 841              	.L77:
 842              	.LBE13:
 843 002c 0022     		movs	r2, #0
 844              	.L76:
 845              	.LVL90:
 846              	.LBB14:
  88:SnakeGame.h   ****         for(int x = 0; x < snake_board_length;x++){
 847              		.loc 4 88 0 is_stmt 0 discriminator 1
 848 002e 132A     		cmp	r2, #19
 849 0030 E9DD     		ble	.L75
 850              	.LBE14:
  87:SnakeGame.h   ****         for(int x = 0; x < snake_board_length;x++){
 851              		.loc 4 87 0 is_stmt 1 discriminator 2
 852 0032 0131     		adds	r1, r1, #1
 853              	.LVL91:
 854              	.L73:
  87:SnakeGame.h   ****         for(int x = 0; x < snake_board_length;x++){
 855              		.loc 4 87 0 is_stmt 0 discriminator 1
 856 0034 0F29     		cmp	r1, #15
 857 0036 F9DD     		ble	.L77
 858              	.LBE12:
  91:SnakeGame.h   ****             }
  92:SnakeGame.h   ****         }
  93:SnakeGame.h   ****     }
  94:SnakeGame.h   **** }
 859              		.loc 4 94 0 is_stmt 1
 860 0038 10BC     		pop	{r4}
 861              		.cfi_restore 4
 862              		.cfi_def_cfa_offset 0
 863 003a 7047     		bx	lr
 864              	.L80:
 865              		.align	2
 866              	.L79:
 867 003c 00000000 		.word	MapBuffer
 868              		.cfi_endproc
 869              	.LFE72:
 870              		.size	Clear_Screen, .-Clear_Screen
 871              		.section	.text.draw_score,"ax",%progbits
 872              		.align	2
 873              		.global	draw_score
 874              		.thumb
 875              		.thumb_func
 876              		.type	draw_score, %function
 877              	draw_score:
 878              	.LFB73:
  95:SnakeGame.h   **** void draw_score() {
 879              		.loc 4 95 0
ARM GAS  C:\Users\isaac\AppData\Local\Temp\cc1fpKCw.s 			page 27


 880              		.cfi_startproc
 881              		@ args = 0, pretend = 0, frame = 0
 882              		@ frame_needed = 0, uses_anonymous_args = 0
 883 0000 08B5     		push	{r3, lr}
 884              		.cfi_def_cfa_offset 8
 885              		.cfi_offset 3, -8
 886              		.cfi_offset 14, -4
  96:SnakeGame.h   ****     LCD_Position(0,5);
 887              		.loc 4 96 0
 888 0002 0521     		movs	r1, #5
 889 0004 0020     		movs	r0, #0
 890 0006 FFF7FEFF 		bl	LCD_Position
 891              	.LVL92:
  97:SnakeGame.h   ****     LCD_PrintString("SCORE");
 892              		.loc 4 97 0
 893 000a 0648     		ldr	r0, .L83
 894 000c FFF7FEFF 		bl	LCD_PrintString
 895              	.LVL93:
  98:SnakeGame.h   ****     LCD_Position(1,5);
 896              		.loc 4 98 0
 897 0010 0521     		movs	r1, #5
 898 0012 0120     		movs	r0, #1
 899 0014 FFF7FEFF 		bl	LCD_Position
 900              	.LVL94:
  99:SnakeGame.h   ****     LCD_PrintNumber(match_score);
 901              		.loc 4 99 0
 902 0018 034B     		ldr	r3, .L83+4
 903 001a 1889     		ldrh	r0, [r3, #8]
 904 001c FFF7FEFF 		bl	LCD_PrintU32Number
 905              	.LVL95:
 906 0020 08BD     		pop	{r3, pc}
 907              	.L84:
 908 0022 00BF     		.align	2
 909              	.L83:
 910 0024 00000000 		.word	.LC0
 911 0028 00000000 		.word	.LANCHOR1
 912              		.cfi_endproc
 913              	.LFE73:
 914              		.size	draw_score, .-draw_score
 915              		.section	.text.draw_snake,"ax",%progbits
 916              		.align	2
 917              		.global	draw_snake
 918              		.thumb
 919              		.thumb_func
 920              		.type	draw_snake, %function
 921              	draw_snake:
 922              	.LFB74:
 100:SnakeGame.h   **** }
 101:SnakeGame.h   **** void draw_snake() {
 923              		.loc 4 101 0
 924              		.cfi_startproc
 925              		@ args = 0, pretend = 0, frame = 0
 926              		@ frame_needed = 0, uses_anonymous_args = 0
 927 0000 08B5     		push	{r3, lr}
 928              		.cfi_def_cfa_offset 8
 929              		.cfi_offset 3, -8
 930              		.cfi_offset 14, -4
ARM GAS  C:\Users\isaac\AppData\Local\Temp\cc1fpKCw.s 			page 28


 102:SnakeGame.h   ****     Clear_Screen();
 931              		.loc 4 102 0
 932 0002 FFF7FEFF 		bl	Clear_Screen
 933              	.LVL96:
 103:SnakeGame.h   ****     //Basically a render function for the snake.
 104:SnakeGame.h   **** 	int thead = 0; //Short for The Head.
 934              		.loc 4 104 0
 935 0006 0022     		movs	r2, #0
 936              	.LVL97:
 937              	.L87:
 938              	.LBB15:
 105:SnakeGame.h   ****     
 106:SnakeGame.h   **** 	for (;;) {
 107:SnakeGame.h   **** 		int x = snake[thead].x;
 939              		.loc 4 107 0
 940 0008 184B     		ldr	r3, .L92
 941 000a 53F83210 		ldr	r1, [r3, r2, lsl #3]
 942              	.LVL98:
 108:SnakeGame.h   **** 		int y = snake[thead].y;
 943              		.loc 4 108 0
 944 000e 03EBC203 		add	r3, r3, r2, lsl #3
 945 0012 5B68     		ldr	r3, [r3, #4]
 946              	.LVL99:
 109:SnakeGame.h   ****        
 110:SnakeGame.h   **** 	    MapBuffer[y][x] = 1;
 947              		.loc 4 110 0
 948 0014 03EB8303 		add	r3, r3, r3, lsl #2
 949              	.LVL100:
 950 0018 9800     		lsls	r0, r3, #2
 951 001a 4318     		adds	r3, r0, r1
 952 001c 0120     		movs	r0, #1
 953 001e 1449     		ldr	r1, .L92+4
 954              	.LVL101:
 955 0020 41F82300 		str	r0, [r1, r3, lsl #2]
 111:SnakeGame.h   **** 
 112:SnakeGame.h   **** 		if (thead == snake_tail) {break;}
 956              		.loc 4 112 0
 957 0024 134B     		ldr	r3, .L92+8
 958 0026 9B69     		ldr	r3, [r3, #24]
 959 0028 9A42     		cmp	r2, r3
 960 002a 13D0     		beq	.L90
 113:SnakeGame.h   **** 		thead++;
 961              		.loc 4 113 0
 962 002c 0244     		add	r2, r2, r0
 963              	.LVL102:
 964              	.LBE15:
 114:SnakeGame.h   **** 	}
 965              		.loc 4 114 0
 966 002e EBE7     		b	.L87
 967              	.LVL103:
 968              	.L89:
 969              	.LBB16:
 115:SnakeGame.h   ****     //Drawing Baits
 116:SnakeGame.h   **** 	for (int i = 0; i < bait_size; i++) {
 117:SnakeGame.h   **** 		if (bait[i].x >= 0) {
 970              		.loc 4 117 0
 971 0030 114A     		ldr	r2, .L92+12
ARM GAS  C:\Users\isaac\AppData\Local\Temp\cc1fpKCw.s 			page 29


 972 0032 52F83310 		ldr	r1, [r2, r3, lsl #3]
 973 0036 0029     		cmp	r1, #0
 974 0038 0ADB     		blt	.L88
 118:SnakeGame.h   **** 			MapBuffer[bait[i].y][bait[i].x] = 1;
 975              		.loc 4 118 0
 976 003a 02EBC302 		add	r2, r2, r3, lsl #3
 977 003e 5268     		ldr	r2, [r2, #4]
 978 0040 02EB8202 		add	r2, r2, r2, lsl #2
 979 0044 9000     		lsls	r0, r2, #2
 980 0046 0144     		add	r1, r1, r0
 981 0048 0120     		movs	r0, #1
 982 004a 094A     		ldr	r2, .L92+4
 983 004c 42F82100 		str	r0, [r2, r1, lsl #2]
 984              	.L88:
 116:SnakeGame.h   **** 		if (bait[i].x >= 0) {
 985              		.loc 4 116 0 discriminator 2
 986 0050 0133     		adds	r3, r3, #1
 987              	.LVL104:
 988 0052 00E0     		b	.L86
 989              	.LVL105:
 990              	.L90:
 991              	.LBE16:
 992 0054 0023     		movs	r3, #0
 993              	.LVL106:
 994              	.L86:
 995              	.LBB17:
 116:SnakeGame.h   **** 		if (bait[i].x >= 0) {
 996              		.loc 4 116 0 is_stmt 0 discriminator 1
 997 0056 042B     		cmp	r3, #4
 998 0058 EADD     		ble	.L89
 999              	.LBE17:
 119:SnakeGame.h   **** 		}
 120:SnakeGame.h   **** 	}
 121:SnakeGame.h   ****     //Display Array
 122:SnakeGame.h   ****     LCD_ClearDisplay();
 1000              		.loc 4 122 0 is_stmt 1
 1001 005a 0120     		movs	r0, #1
 1002 005c FFF7FEFF 		bl	LCD_WriteControl
 1003              	.LVL107:
 123:SnakeGame.h   ****     draw_score();
 1004              		.loc 4 123 0
 1005 0060 FFF7FEFF 		bl	draw_score
 1006              	.LVL108:
 124:SnakeGame.h   ****     ShowBoard(MapBuffer);
 1007              		.loc 4 124 0
 1008 0064 0248     		ldr	r0, .L92+4
 1009 0066 FFF7FEFF 		bl	ShowBoard
 1010              	.LVL109:
 1011 006a 08BD     		pop	{r3, pc}
 1012              	.L93:
 1013              		.align	2
 1014              	.L92:
 1015 006c 00000000 		.word	snake
 1016 0070 00000000 		.word	MapBuffer
 1017 0074 00000000 		.word	.LANCHOR1
 1018 0078 00000000 		.word	bait
 1019              		.cfi_endproc
ARM GAS  C:\Users\isaac\AppData\Local\Temp\cc1fpKCw.s 			page 30


 1020              	.LFE74:
 1021              		.size	draw_snake, .-draw_snake
 1022              		.section	.text.change_dir,"ax",%progbits
 1023              		.align	2
 1024              		.global	change_dir
 1025              		.thumb
 1026              		.thumb_func
 1027              		.type	change_dir, %function
 1028              	change_dir:
 1029              	.LFB75:
 125:SnakeGame.h   **** }
 126:SnakeGame.h   **** void change_dir(char dir_c){
 1030              		.loc 4 126 0
 1031              		.cfi_startproc
 1032              		@ args = 0, pretend = 0, frame = 0
 1033              		@ frame_needed = 0, uses_anonymous_args = 0
 1034              		@ link register save eliminated.
 1035              	.LVL110:
 127:SnakeGame.h   ****     
 128:SnakeGame.h   ****     if((dir_c == 'U') &&(last_dir != 'D')){
 1036              		.loc 4 128 0
 1037 0000 5528     		cmp	r0, #85
 1038 0002 05D1     		bne	.L95
 1039              		.loc 4 128 0 is_stmt 0 discriminator 1
 1040 0004 104B     		ldr	r3, .L99
 1041 0006 9B78     		ldrb	r3, [r3, #2]	@ zero_extendqisi2
 1042 0008 442B     		cmp	r3, #68
 1043 000a 01D0     		beq	.L95
 129:SnakeGame.h   ****         cur_dir = dir_c;
 1044              		.loc 4 129 0 is_stmt 1
 1045 000c 0E4B     		ldr	r3, .L99
 1046 000e 5870     		strb	r0, [r3, #1]
 1047              	.L95:
 130:SnakeGame.h   ****     }
 131:SnakeGame.h   ****     if((dir_c == 'D') &&(last_dir != 'U')){
 1048              		.loc 4 131 0
 1049 0010 4428     		cmp	r0, #68
 1050 0012 05D1     		bne	.L96
 1051              		.loc 4 131 0 is_stmt 0 discriminator 1
 1052 0014 0C4B     		ldr	r3, .L99
 1053 0016 9B78     		ldrb	r3, [r3, #2]	@ zero_extendqisi2
 1054 0018 552B     		cmp	r3, #85
 1055 001a 01D0     		beq	.L96
 132:SnakeGame.h   ****         cur_dir = dir_c;
 1056              		.loc 4 132 0 is_stmt 1
 1057 001c 0A4B     		ldr	r3, .L99
 1058 001e 5870     		strb	r0, [r3, #1]
 1059              	.L96:
 133:SnakeGame.h   ****     }
 134:SnakeGame.h   ****     if((dir_c == 'L') &&(last_dir != 'R')){
 1060              		.loc 4 134 0
 1061 0020 4C28     		cmp	r0, #76
 1062 0022 05D1     		bne	.L97
 1063              		.loc 4 134 0 is_stmt 0 discriminator 1
 1064 0024 084B     		ldr	r3, .L99
 1065 0026 9B78     		ldrb	r3, [r3, #2]	@ zero_extendqisi2
 1066 0028 522B     		cmp	r3, #82
ARM GAS  C:\Users\isaac\AppData\Local\Temp\cc1fpKCw.s 			page 31


 1067 002a 01D0     		beq	.L97
 135:SnakeGame.h   ****         cur_dir = dir_c;
 1068              		.loc 4 135 0 is_stmt 1
 1069 002c 064B     		ldr	r3, .L99
 1070 002e 5870     		strb	r0, [r3, #1]
 1071              	.L97:
 136:SnakeGame.h   ****     }
 137:SnakeGame.h   ****     if((dir_c == 'R') &&(last_dir != 'L')){
 1072              		.loc 4 137 0
 1073 0030 5228     		cmp	r0, #82
 1074 0032 05D1     		bne	.L98
 1075              		.loc 4 137 0 is_stmt 0 discriminator 1
 1076 0034 044B     		ldr	r3, .L99
 1077 0036 9B78     		ldrb	r3, [r3, #2]	@ zero_extendqisi2
 1078 0038 4C2B     		cmp	r3, #76
 1079 003a 01D0     		beq	.L98
 138:SnakeGame.h   ****         cur_dir = dir_c;
 1080              		.loc 4 138 0 is_stmt 1
 1081 003c 024B     		ldr	r3, .L99
 1082 003e 5870     		strb	r0, [r3, #1]
 1083              	.L98:
 139:SnakeGame.h   ****     }
 140:SnakeGame.h   ****     last_dir = dir_c;
 1084              		.loc 4 140 0
 1085 0040 014B     		ldr	r3, .L99
 1086 0042 9870     		strb	r0, [r3, #2]
 1087 0044 7047     		bx	lr
 1088              	.L100:
 1089 0046 00BF     		.align	2
 1090              	.L99:
 1091 0048 00000000 		.word	.LANCHOR0
 1092              		.cfi_endproc
 1093              	.LFE75:
 1094              		.size	change_dir, .-change_dir
 1095              		.section	.text.move_snake,"ax",%progbits
 1096              		.align	2
 1097              		.global	move_snake
 1098              		.thumb
 1099              		.thumb_func
 1100              		.type	move_snake, %function
 1101              	move_snake:
 1102              	.LFB76:
 141:SnakeGame.h   **** }
 142:SnakeGame.h   **** //Returns true when a loosing condition happens
 143:SnakeGame.h   **** bool move_snake() {
 1103              		.loc 4 143 0
 1104              		.cfi_startproc
 1105              		@ args = 0, pretend = 0, frame = 16
 1106              		@ frame_needed = 1, uses_anonymous_args = 0
 1107 0000 F0B5     		push	{r4, r5, r6, r7, lr}
 1108              		.cfi_def_cfa_offset 20
 1109              		.cfi_offset 4, -20
 1110              		.cfi_offset 5, -16
 1111              		.cfi_offset 6, -12
 1112              		.cfi_offset 7, -8
 1113              		.cfi_offset 14, -4
 1114 0002 85B0     		sub	sp, sp, #20
ARM GAS  C:\Users\isaac\AppData\Local\Temp\cc1fpKCw.s 			page 32


 1115              		.cfi_def_cfa_offset 40
 1116 0004 00AF     		add	r7, sp, #0
 1117              		.cfi_def_cfa_register 7
 144:SnakeGame.h   **** 	struct snake_xy cur = snake[snake_head];
 1118              		.loc 4 144 0
 1119 0006 714C     		ldr	r4, .L130
 1120 0008 6169     		ldr	r1, [r4, #20]
 1121 000a 07F10803 		add	r3, r7, #8
 1122 000e 704A     		ldr	r2, .L130+4
 1123 0010 02EBC102 		add	r2, r2, r1, lsl #3
 1124 0014 92E80300 		ldmia	r2, {r0, r1}
 1125 0018 83E80300 		stmia	r3, {r0, r1}
 145:SnakeGame.h   **** 	struct snake_xy temp = cur;
 1126              		.loc 4 145 0
 1127 001c 87E80300 		stmia	r7, {r0, r1}
 146:SnakeGame.h   ****     struct snake_xy snake_temp_old[snake_tail + 1];
 1128              		.loc 4 146 0
 1129 0020 A169     		ldr	r1, [r4, #24]
 1130 0022 4B1C     		adds	r3, r1, #1
 1131              	.LVL111:
 1132 0024 DB00     		lsls	r3, r3, #3
 1133 0026 0833     		adds	r3, r3, #8
 1134 0028 ADEB030D 		sub	sp, sp, r3
 1135 002c 6846     		mov	r0, sp
 1136              	.LVL112:
 147:SnakeGame.h   ****     //Determining the direction
 148:SnakeGame.h   **** 	switch (cur_dir) {
 1137              		.loc 4 148 0
 1138 002e 694B     		ldr	r3, .L130+8
 1139 0030 5B78     		ldrb	r3, [r3, #1]	@ zero_extendqisi2
 1140 0032 443B     		subs	r3, r3, #68
 1141 0034 112B     		cmp	r3, #17
 1142 0036 19D8     		bhi	.L102
 1143 0038 DFE803F0 		tbb	[pc, r3]
 1144              	.L104:
 1145 003c 0D       		.byte	(.L103-.L104)/2
 1146 003d 18       		.byte	(.L102-.L104)/2
 1147 003e 18       		.byte	(.L102-.L104)/2
 1148 003f 18       		.byte	(.L102-.L104)/2
 1149 0040 18       		.byte	(.L102-.L104)/2
 1150 0041 18       		.byte	(.L102-.L104)/2
 1151 0042 18       		.byte	(.L102-.L104)/2
 1152 0043 18       		.byte	(.L102-.L104)/2
 1153 0044 11       		.byte	(.L105-.L104)/2
 1154 0045 18       		.byte	(.L102-.L104)/2
 1155 0046 18       		.byte	(.L102-.L104)/2
 1156 0047 18       		.byte	(.L102-.L104)/2
 1157 0048 18       		.byte	(.L102-.L104)/2
 1158 0049 18       		.byte	(.L102-.L104)/2
 1159 004a 15       		.byte	(.L106-.L104)/2
 1160 004b 18       		.byte	(.L102-.L104)/2
 1161 004c 18       		.byte	(.L102-.L104)/2
 1162 004d 09       		.byte	(.L107-.L104)/2
 1163              		.p2align 1
 1164              	.L107:
 149:SnakeGame.h   **** 	case 'U':
 150:SnakeGame.h   **** 		temp.y--;
ARM GAS  C:\Users\isaac\AppData\Local\Temp\cc1fpKCw.s 			page 33


 1165              		.loc 4 150 0
 1166 004e 7B68     		ldr	r3, [r7, #4]
 1167 0050 013B     		subs	r3, r3, #1
 1168 0052 7B60     		str	r3, [r7, #4]
 151:SnakeGame.h   **** 		break;
 1169              		.loc 4 151 0
 1170 0054 0AE0     		b	.L102
 1171              	.L103:
 152:SnakeGame.h   **** 	case 'D':
 153:SnakeGame.h   **** 		temp.y++;
 1172              		.loc 4 153 0
 1173 0056 7B68     		ldr	r3, [r7, #4]
 1174 0058 0133     		adds	r3, r3, #1
 1175 005a 7B60     		str	r3, [r7, #4]
 154:SnakeGame.h   **** 		break;
 1176              		.loc 4 154 0
 1177 005c 06E0     		b	.L102
 1178              	.L105:
 155:SnakeGame.h   **** 	case 'L':
 156:SnakeGame.h   **** 		temp.x--;
 1179              		.loc 4 156 0
 1180 005e 3B68     		ldr	r3, [r7]
 1181 0060 013B     		subs	r3, r3, #1
 1182 0062 3B60     		str	r3, [r7]
 157:SnakeGame.h   **** 		break;
 1183              		.loc 4 157 0
 1184 0064 02E0     		b	.L102
 1185              	.L106:
 158:SnakeGame.h   **** 	case 'R':
 159:SnakeGame.h   **** 		temp.x++;
 1186              		.loc 4 159 0
 1187 0066 3B68     		ldr	r3, [r7]
 1188 0068 0133     		adds	r3, r3, #1
 1189 006a 3B60     		str	r3, [r7]
 1190              	.L102:
 160:SnakeGame.h   **** 		break;
 161:SnakeGame.h   **** 	}
 162:SnakeGame.h   ****     //Filtering
 163:SnakeGame.h   ****     if(snake_board_length - 1 <= temp.x){
 1191              		.loc 4 163 0
 1192 006c 3D68     		ldr	r5, [r7]
 1193 006e 122D     		cmp	r5, #18
 1194 0070 00F39F80 		bgt	.L124
 164:SnakeGame.h   ****         temp.x = 1;
 165:SnakeGame.h   ****         return true;
 166:SnakeGame.h   ****     }
 167:SnakeGame.h   ****     else if(temp.x < 1){
 1195              		.loc 4 167 0
 1196 0074 002D     		cmp	r5, #0
 1197 0076 40F39E80 		ble	.L125
 168:SnakeGame.h   ****         temp.x = snake_board_length - 1;
 169:SnakeGame.h   ****         return true;
 170:SnakeGame.h   ****     }
 171:SnakeGame.h   ****     
 172:SnakeGame.h   ****     if(snake_board_height - 1 <= temp.y){
 1198              		.loc 4 172 0
 1199 007a 7E68     		ldr	r6, [r7, #4]
ARM GAS  C:\Users\isaac\AppData\Local\Temp\cc1fpKCw.s 			page 34


 1200 007c 0E2E     		cmp	r6, #14
 1201 007e 00F39C80 		bgt	.L126
 173:SnakeGame.h   ****         temp.y = 1;
 174:SnakeGame.h   ****         return true;
 175:SnakeGame.h   ****     }
 176:SnakeGame.h   ****     else if(temp.y < 1){
 1202              		.loc 4 176 0
 1203 0082 002E     		cmp	r6, #0
 1204 0084 40F39B80 		ble	.L127
 1205 0088 0123     		movs	r3, #1
 1206 008a 0CE0     		b	.L109
 1207              	.LVL113:
 1208              	.L111:
 1209              	.LBB18:
 177:SnakeGame.h   ****         temp.y = snake_board_height - 1;
 178:SnakeGame.h   ****         return true;
 179:SnakeGame.h   ****     }
 180:SnakeGame.h   **** 	
 181:SnakeGame.h   ****     //Check Killing Self
 182:SnakeGame.h   ****     for (int i = 1; i < snake_tail; i++) {
 183:SnakeGame.h   **** 		if ((snake[i].x == temp.x) && (snake[i].y == temp.y)) {
 1210              		.loc 4 183 0
 1211 008c 504A     		ldr	r2, .L130+4
 1212 008e 52F83320 		ldr	r2, [r2, r3, lsl #3]
 1213 0092 9542     		cmp	r5, r2
 1214 0094 06D1     		bne	.L110
 1215              		.loc 4 183 0 is_stmt 0 discriminator 1
 1216 0096 4E4A     		ldr	r2, .L130+4
 1217 0098 02EBC302 		add	r2, r2, r3, lsl #3
 1218 009c 5268     		ldr	r2, [r2, #4]
 1219 009e 9642     		cmp	r6, r2
 1220 00a0 00F08F80 		beq	.L128
 1221              	.L110:
 182:SnakeGame.h   **** 		if ((snake[i].x == temp.x) && (snake[i].y == temp.y)) {
 1222              		.loc 4 182 0 is_stmt 1 discriminator 2
 1223 00a4 0133     		adds	r3, r3, #1
 1224              	.LVL114:
 1225              	.L109:
 182:SnakeGame.h   **** 		if ((snake[i].x == temp.x) && (snake[i].y == temp.y)) {
 1226              		.loc 4 182 0 is_stmt 0 discriminator 1
 1227 00a6 8B42     		cmp	r3, r1
 1228 00a8 F0DB     		blt	.L111
 1229 00aa 0023     		movs	r3, #0
 1230              	.LVL115:
 1231 00ac 52E0     		b	.L112
 1232              	.LVL116:
 1233              	.L119:
 1234              	.LBE18:
 1235              	.LBB19:
 184:SnakeGame.h   **** 			return true;
 185:SnakeGame.h   **** 		}
 186:SnakeGame.h   **** 	}
 187:SnakeGame.h   ****     //Check for Bait Eating
 188:SnakeGame.h   **** 	for (int i = 0; i < bait_size; i++) {
 189:SnakeGame.h   **** 		if ((bait[i].x == temp.x) && (bait[i].y == temp.y)) {
 1236              		.loc 4 189 0 is_stmt 1
 1237 00ae 4A4A     		ldr	r2, .L130+12
ARM GAS  C:\Users\isaac\AppData\Local\Temp\cc1fpKCw.s 			page 35


 1238 00b0 52F83320 		ldr	r2, [r2, r3, lsl #3]
 1239 00b4 9542     		cmp	r5, r2
 1240 00b6 4CD1     		bne	.L113
 1241              		.loc 4 189 0 is_stmt 0 discriminator 1
 1242 00b8 474A     		ldr	r2, .L130+12
 1243 00ba 02EBC302 		add	r2, r2, r3, lsl #3
 1244 00be 5268     		ldr	r2, [r2, #4]
 1245 00c0 9642     		cmp	r6, r2
 1246 00c2 46D1     		bne	.L113
 190:SnakeGame.h   ****             //Add Score
 191:SnakeGame.h   ****             match_score++;
 1247              		.loc 4 191 0 is_stmt 1
 1248 00c4 4149     		ldr	r1, .L130
 1249              	.LVL117:
 1250 00c6 8A68     		ldr	r2, [r1, #8]
 1251 00c8 0132     		adds	r2, r2, #1
 1252 00ca 8A60     		str	r2, [r1, #8]
 192:SnakeGame.h   ****             score_ten_t++;
 1253              		.loc 4 192 0
 1254 00cc CA68     		ldr	r2, [r1, #12]
 1255 00ce 0132     		adds	r2, r2, #1
 1256 00d0 CA60     		str	r2, [r1, #12]
 193:SnakeGame.h   ****             if(score_ten_t == score_to_speed){
 1257              		.loc 4 193 0
 1258 00d2 052A     		cmp	r2, #5
 1259 00d4 05D1     		bne	.L114
 194:SnakeGame.h   ****                 score_ten_t = 0;
 1260              		.loc 4 194 0
 1261 00d6 0A46     		mov	r2, r1
 1262 00d8 0021     		movs	r1, #0
 1263 00da D160     		str	r1, [r2, #12]
 195:SnakeGame.h   ****                 period_offs++;
 1264              		.loc 4 195 0
 1265 00dc 1169     		ldr	r1, [r2, #16]
 1266 00de 0131     		adds	r1, r1, #1
 1267 00e0 1161     		str	r1, [r2, #16]
 1268              	.L114:
 196:SnakeGame.h   ****             }
 197:SnakeGame.h   **** 			//Remove the bait.
 198:SnakeGame.h   **** 			bait[i].x = -1;
 1269              		.loc 4 198 0
 1270 00e2 3D4A     		ldr	r2, .L130+12
 1271 00e4 4FF0FF31 		mov	r1, #-1
 1272 00e8 42F83310 		str	r1, [r2, r3, lsl #3]
 199:SnakeGame.h   **** 			bait[i].y = -1;
 1273              		.loc 4 199 0
 1274 00ec 02EBC303 		add	r3, r2, r3, lsl #3
 1275              	.LVL118:
 1276 00f0 5960     		str	r1, [r3, #4]
 1277              	.LVL119:
 1278              	.LBB20:
 200:SnakeGame.h   ****             
 201:SnakeGame.h   ****             //Movement Algorithm for bait eating
 202:SnakeGame.h   ****             for(int i = 0; i < snake_tail + 1; i++){
 1279              		.loc 4 202 0
 1280 00f2 0023     		movs	r3, #0
 1281 00f4 0AE0     		b	.L115
ARM GAS  C:\Users\isaac\AppData\Local\Temp\cc1fpKCw.s 			page 36


 1282              	.LVL120:
 1283              	.L116:
 203:SnakeGame.h   ****                 snake_temp_old[i].x = snake[i].x;
 1284              		.loc 4 203 0 discriminator 3
 1285 00f6 3649     		ldr	r1, .L130+4
 1286 00f8 51F83320 		ldr	r2, [r1, r3, lsl #3]
 1287 00fc 40F83320 		str	r2, [r0, r3, lsl #3]
 204:SnakeGame.h   ****                 snake_temp_old[i].y = snake[i].y;
 1288              		.loc 4 204 0 discriminator 3
 1289 0100 DA00     		lsls	r2, r3, #3
 1290 0102 1144     		add	r1, r1, r2
 1291 0104 4968     		ldr	r1, [r1, #4]
 1292 0106 0244     		add	r2, r2, r0
 1293 0108 5160     		str	r1, [r2, #4]
 202:SnakeGame.h   ****                 snake_temp_old[i].x = snake[i].x;
 1294              		.loc 4 202 0 discriminator 3
 1295 010a 0133     		adds	r3, r3, #1
 1296              	.LVL121:
 1297              	.L115:
 202:SnakeGame.h   ****                 snake_temp_old[i].x = snake[i].x;
 1298              		.loc 4 202 0 is_stmt 0 discriminator 1
 1299 010c 2F4A     		ldr	r2, .L130
 1300 010e 9469     		ldr	r4, [r2, #24]
 1301 0110 04F1010E 		add	lr, r4, #1
 1302 0114 7345     		cmp	r3, lr
 1303 0116 EEDB     		blt	.L116
 1304              	.LBE20:
 205:SnakeGame.h   ****                 }
 206:SnakeGame.h   ****             
 207:SnakeGame.h   ****             snake[snake_head].x = temp.x;
 1305              		.loc 4 207 0 is_stmt 1
 1306 0118 5269     		ldr	r2, [r2, #20]
 1307 011a 2D4B     		ldr	r3, .L130+4
 1308              	.LVL122:
 1309 011c 43F83250 		str	r5, [r3, r2, lsl #3]
 208:SnakeGame.h   ****             snake[snake_head].y = temp.y;
 1310              		.loc 4 208 0
 1311 0120 03EBC203 		add	r3, r3, r2, lsl #3
 1312 0124 5E60     		str	r6, [r3, #4]
 1313              	.LVL123:
 1314              	.LBB21:
 209:SnakeGame.h   ****             for(int i = 0; i <= snake_tail; i++){
 1315              		.loc 4 209 0
 1316 0126 0023     		movs	r3, #0
 1317 0128 0CE0     		b	.L117
 1318              	.LVL124:
 1319              	.L118:
 210:SnakeGame.h   ****                 snake[i + 1].x = snake_temp_old[i].x;
 1320              		.loc 4 210 0 discriminator 3
 1321 012a 591C     		adds	r1, r3, #1
 1322 012c 50F83350 		ldr	r5, [r0, r3, lsl #3]
 1323 0130 274A     		ldr	r2, .L130+4
 1324 0132 42F83150 		str	r5, [r2, r1, lsl #3]
 211:SnakeGame.h   ****                 snake[i + 1].y = snake_temp_old[i].y;
 1325              		.loc 4 211 0 discriminator 3
 1326 0136 00EBC303 		add	r3, r0, r3, lsl #3
 1327              	.LVL125:
ARM GAS  C:\Users\isaac\AppData\Local\Temp\cc1fpKCw.s 			page 37


 1328 013a 5B68     		ldr	r3, [r3, #4]
 1329 013c 02EBC102 		add	r2, r2, r1, lsl #3
 1330 0140 5360     		str	r3, [r2, #4]
 1331              	.LVL126:
 209:SnakeGame.h   ****             for(int i = 0; i <= snake_tail; i++){
 1332              		.loc 4 209 0 discriminator 3
 1333 0142 0B46     		mov	r3, r1
 1334              	.LVL127:
 1335              	.L117:
 209:SnakeGame.h   ****             for(int i = 0; i <= snake_tail; i++){
 1336              		.loc 4 209 0 is_stmt 0 discriminator 1
 1337 0144 A342     		cmp	r3, r4
 1338 0146 F0DD     		ble	.L118
 1339              	.LBE21:
 212:SnakeGame.h   ****                 }
 213:SnakeGame.h   ****             snake_tail++;
 1340              		.loc 4 213 0 is_stmt 1
 1341 0148 204B     		ldr	r3, .L130
 1342              	.LVL128:
 1343 014a C3F818E0 		str	lr, [r3, #24]
 214:SnakeGame.h   ****             return false;
 1344              		.loc 4 214 0
 1345 014e 0020     		movs	r0, #0
 1346              	.LVL129:
 1347 0150 38E0     		b	.L108
 1348              	.LVL130:
 1349              	.L113:
 188:SnakeGame.h   **** 		if ((bait[i].x == temp.x) && (bait[i].y == temp.y)) {
 1350              		.loc 4 188 0 discriminator 2
 1351 0152 0133     		adds	r3, r3, #1
 1352              	.LVL131:
 1353              	.L112:
 188:SnakeGame.h   **** 		if ((bait[i].x == temp.x) && (bait[i].y == temp.y)) {
 1354              		.loc 4 188 0 is_stmt 0 discriminator 1
 1355 0154 042B     		cmp	r3, #4
 1356 0156 AADD     		ble	.L119
 1357 0158 0023     		movs	r3, #0
 1358              	.LVL132:
 1359 015a 0AE0     		b	.L120
 1360              	.LVL133:
 1361              	.L121:
 1362              	.LBE19:
 1363              	.LBB22:
 215:SnakeGame.h   **** 		    }
 216:SnakeGame.h   **** 	}
 217:SnakeGame.h   ****     
 218:SnakeGame.h   ****     //Movement Algorithm
 219:SnakeGame.h   ****     for(int i = 0; i < snake_tail + 1; i++){
 220:SnakeGame.h   ****         snake_temp_old[i].x = snake[i].x;
 1364              		.loc 4 220 0 is_stmt 1 discriminator 3
 1365 015c 1C49     		ldr	r1, .L130+4
 1366 015e 51F83320 		ldr	r2, [r1, r3, lsl #3]
 1367 0162 40F83320 		str	r2, [r0, r3, lsl #3]
 221:SnakeGame.h   ****         snake_temp_old[i].y = snake[i].y;
 1368              		.loc 4 221 0 discriminator 3
 1369 0166 DA00     		lsls	r2, r3, #3
 1370 0168 1144     		add	r1, r1, r2
ARM GAS  C:\Users\isaac\AppData\Local\Temp\cc1fpKCw.s 			page 38


 1371 016a 4968     		ldr	r1, [r1, #4]
 1372 016c 0244     		add	r2, r2, r0
 1373 016e 5160     		str	r1, [r2, #4]
 219:SnakeGame.h   ****         snake_temp_old[i].x = snake[i].x;
 1374              		.loc 4 219 0 discriminator 3
 1375 0170 0133     		adds	r3, r3, #1
 1376              	.LVL134:
 1377              	.L120:
 219:SnakeGame.h   ****         snake_temp_old[i].x = snake[i].x;
 1378              		.loc 4 219 0 is_stmt 0 discriminator 1
 1379 0172 164A     		ldr	r2, .L130
 1380 0174 9469     		ldr	r4, [r2, #24]
 1381 0176 621C     		adds	r2, r4, #1
 1382 0178 9342     		cmp	r3, r2
 1383 017a EFDB     		blt	.L121
 1384              	.LBE22:
 222:SnakeGame.h   ****     }
 223:SnakeGame.h   ****     snake[snake_head].x = temp.x;
 1385              		.loc 4 223 0 is_stmt 1
 1386 017c 134B     		ldr	r3, .L130
 1387              	.LVL135:
 1388 017e 5A69     		ldr	r2, [r3, #20]
 1389 0180 134B     		ldr	r3, .L130+4
 1390 0182 43F83250 		str	r5, [r3, r2, lsl #3]
 224:SnakeGame.h   ****     snake[snake_head].y = temp.y;
 1391              		.loc 4 224 0
 1392 0186 03EBC203 		add	r3, r3, r2, lsl #3
 1393 018a 5E60     		str	r6, [r3, #4]
 1394              	.LVL136:
 1395              	.LBB23:
 225:SnakeGame.h   ****     for(int i = 0; i < snake_tail; i++){
 1396              		.loc 4 225 0
 1397 018c 0023     		movs	r3, #0
 1398 018e 0CE0     		b	.L122
 1399              	.LVL137:
 1400              	.L123:
 226:SnakeGame.h   ****         snake[i + 1].x = snake_temp_old[i].x;
 1401              		.loc 4 226 0 discriminator 3
 1402 0190 591C     		adds	r1, r3, #1
 1403 0192 50F83350 		ldr	r5, [r0, r3, lsl #3]
 1404 0196 0E4A     		ldr	r2, .L130+4
 1405 0198 42F83150 		str	r5, [r2, r1, lsl #3]
 227:SnakeGame.h   ****         snake[i + 1].y = snake_temp_old[i].y;
 1406              		.loc 4 227 0 discriminator 3
 1407 019c 00EBC303 		add	r3, r0, r3, lsl #3
 1408              	.LVL138:
 1409 01a0 5B68     		ldr	r3, [r3, #4]
 1410 01a2 02EBC102 		add	r2, r2, r1, lsl #3
 1411 01a6 5360     		str	r3, [r2, #4]
 1412              	.LVL139:
 225:SnakeGame.h   ****     for(int i = 0; i < snake_tail; i++){
 1413              		.loc 4 225 0 discriminator 3
 1414 01a8 0B46     		mov	r3, r1
 1415              	.LVL140:
 1416              	.L122:
 225:SnakeGame.h   ****     for(int i = 0; i < snake_tail; i++){
 1417              		.loc 4 225 0 is_stmt 0 discriminator 1
ARM GAS  C:\Users\isaac\AppData\Local\Temp\cc1fpKCw.s 			page 39


 1418 01aa A342     		cmp	r3, r4
 1419 01ac F0DB     		blt	.L123
 1420              	.LBE23:
 228:SnakeGame.h   ****     }
 229:SnakeGame.h   **** 	return false;
 1421              		.loc 4 229 0 is_stmt 1
 1422 01ae 0020     		movs	r0, #0
 1423              	.LVL141:
 1424              	.LBB24:
 1425 01b0 08E0     		b	.L108
 1426              	.LVL142:
 1427              	.L124:
 1428              	.LBE24:
 165:SnakeGame.h   ****     }
 1429              		.loc 4 165 0
 1430 01b2 0120     		movs	r0, #1
 1431              	.LVL143:
 1432 01b4 06E0     		b	.L108
 1433              	.LVL144:
 1434              	.L125:
 169:SnakeGame.h   ****     }
 1435              		.loc 4 169 0
 1436 01b6 0120     		movs	r0, #1
 1437              	.LVL145:
 1438 01b8 04E0     		b	.L108
 1439              	.LVL146:
 1440              	.L126:
 174:SnakeGame.h   ****     }
 1441              		.loc 4 174 0
 1442 01ba 0120     		movs	r0, #1
 1443              	.LVL147:
 1444 01bc 02E0     		b	.L108
 1445              	.LVL148:
 1446              	.L127:
 178:SnakeGame.h   ****     }
 1447              		.loc 4 178 0
 1448 01be 0120     		movs	r0, #1
 1449              	.LVL149:
 1450 01c0 00E0     		b	.L108
 1451              	.LVL150:
 1452              	.L128:
 1453              	.LBB25:
 184:SnakeGame.h   **** 		}
 1454              		.loc 4 184 0
 1455 01c2 0120     		movs	r0, #1
 1456              	.LVL151:
 1457              	.L108:
 1458              	.LBE25:
 230:SnakeGame.h   **** }...
 1459              		.loc 4 230 0
 1460 01c4 1437     		adds	r7, r7, #20
 1461              		.cfi_def_cfa_offset 20
 1462 01c6 BD46     		mov	sp, r7
 1463              		.cfi_def_cfa_register 13
 1464              	.LVL152:
 1465              		@ sp needed
 1466 01c8 F0BD     		pop	{r4, r5, r6, r7, pc}
ARM GAS  C:\Users\isaac\AppData\Local\Temp\cc1fpKCw.s 			page 40


 1467              	.L131:
 1468 01ca 00BF     		.align	2
 1469              	.L130:
 1470 01cc 00000000 		.word	.LANCHOR1
 1471 01d0 00000000 		.word	snake
 1472 01d4 00000000 		.word	.LANCHOR0
 1473 01d8 00000000 		.word	bait
 1474              		.cfi_endproc
 1475              	.LFE76:
 1476              		.size	move_snake, .-move_snake
 1477              		.section	.text.PlaceHolders,"ax",%progbits
 1478              		.align	2
 1479              		.global	PlaceHolders
 1480              		.thumb
 1481              		.thumb_func
 1482              		.type	PlaceHolders, %function
 1483              	PlaceHolders:
 1484              	.LFB79:
 230:main.c        ****         for(int i = 0; i < 3; i++){
 1485              		.loc 1 230 0
 1486              		.cfi_startproc
 1487              		@ args = 0, pretend = 0, frame = 0
 1488              		@ frame_needed = 0, uses_anonymous_args = 0
 1489              		@ link register save eliminated.
 1490 0000 10B4     		push	{r4}
 1491              		.cfi_def_cfa_offset 4
 1492              		.cfi_offset 4, -4
 1493              	.LVL153:
 1494              	.LBB26:
 231:main.c        ****         players[i].score = 0;
 1495              		.loc 1 231 0
 1496 0002 0021     		movs	r1, #0
 1497 0004 14E0     		b	.L133
 1498              	.LVL154:
 1499              	.L136:
 232:main.c        ****         for(int j = 1; j < 6; j++){
 1500              		.loc 1 232 0
 1501 0006 01EB4102 		add	r2, r1, r1, lsl #1
 1502 000a 9300     		lsls	r3, r2, #2
 1503 000c 0A4A     		ldr	r2, .L138
 1504 000e 1344     		add	r3, r3, r2
 1505 0010 0022     		movs	r2, #0
 1506 0012 9A60     		str	r2, [r3, #8]
 1507              	.LVL155:
 1508              	.LBB27:
 233:main.c        ****             players[i].name[j - 1] = '#';
 1509              		.loc 1 233 0
 1510 0014 0122     		movs	r2, #1
 1511 0016 08E0     		b	.L134
 1512              	.LVL156:
 1513              	.L135:
 234:main.c        ****         }
 1514              		.loc 1 234 0 discriminator 3
 1515 0018 541E     		subs	r4, r2, #1
 1516 001a 01EB4100 		add	r0, r1, r1, lsl #1
 1517 001e 8300     		lsls	r3, r0, #2
 1518 0020 0548     		ldr	r0, .L138
ARM GAS  C:\Users\isaac\AppData\Local\Temp\cc1fpKCw.s 			page 41


 1519 0022 0344     		add	r3, r3, r0
 1520 0024 2320     		movs	r0, #35
 1521 0026 1855     		strb	r0, [r3, r4]
 233:main.c        ****             players[i].name[j - 1] = '#';
 1522              		.loc 1 233 0 discriminator 3
 1523 0028 0132     		adds	r2, r2, #1
 1524              	.LVL157:
 1525              	.L134:
 233:main.c        ****             players[i].name[j - 1] = '#';
 1526              		.loc 1 233 0 is_stmt 0 discriminator 1
 1527 002a 052A     		cmp	r2, #5
 1528 002c F4DD     		ble	.L135
 1529              	.LBE27:
 231:main.c        ****         players[i].score = 0;
 1530              		.loc 1 231 0 is_stmt 1 discriminator 2
 1531 002e 0131     		adds	r1, r1, #1
 1532              	.LVL158:
 1533              	.L133:
 231:main.c        ****         players[i].score = 0;
 1534              		.loc 1 231 0 is_stmt 0 discriminator 1
 1535 0030 0229     		cmp	r1, #2
 1536 0032 E8DD     		ble	.L136
 1537              	.LBE26:
 237:main.c        **** void WriteNewScores(){
 1538              		.loc 1 237 0 is_stmt 1
 1539 0034 10BC     		pop	{r4}
 1540              		.cfi_restore 4
 1541              		.cfi_def_cfa_offset 0
 1542 0036 7047     		bx	lr
 1543              	.L139:
 1544              		.align	2
 1545              	.L138:
 1546 0038 00000000 		.word	players
 1547              		.cfi_endproc
 1548              	.LFE79:
 1549              		.size	PlaceHolders, .-PlaceHolders
 1550              		.section	.text.EepromFirstInit,"ax",%progbits
 1551              		.align	2
 1552              		.global	EepromFirstInit
 1553              		.thumb
 1554              		.thumb_func
 1555              		.type	EepromFirstInit, %function
 1556              	EepromFirstInit:
 1557              	.LFB78:
 220:main.c        ****     PlaceHolders();
 1558              		.loc 1 220 0
 1559              		.cfi_startproc
 1560              		@ args = 0, pretend = 0, frame = 0
 1561              		@ frame_needed = 0, uses_anonymous_args = 0
 1562 0000 70B5     		push	{r4, r5, r6, lr}
 1563              		.cfi_def_cfa_offset 16
 1564              		.cfi_offset 4, -16
 1565              		.cfi_offset 5, -12
 1566              		.cfi_offset 6, -8
 1567              		.cfi_offset 14, -4
 221:main.c        ****     //First Write to EEPROM
 1568              		.loc 1 221 0
ARM GAS  C:\Users\isaac\AppData\Local\Temp\cc1fpKCw.s 			page 42


 1569 0002 FFF7FEFF 		bl	PlaceHolders
 1570              	.LVL159:
 1571              	.LBB28:
 223:main.c        ****         EEPROM_WriteByte(players[i].score, 0 + i*6);
 1572              		.loc 1 223 0
 1573 0006 0025     		movs	r5, #0
 1574 0008 1DE0     		b	.L141
 1575              	.LVL160:
 1576              	.L144:
 224:main.c        ****         for(int j = 1; j < 6; j++){
 1577              		.loc 1 224 0
 1578 000a 05EB4502 		add	r2, r5, r5, lsl #1
 1579 000e 9300     		lsls	r3, r2, #2
 1580 0010 0E4A     		ldr	r2, .L146
 1581 0012 1344     		add	r3, r3, r2
 1582 0014 05EB4502 		add	r2, r5, r5, lsl #1
 1583 0018 5600     		lsls	r6, r2, #1
 1584 001a B6B2     		uxth	r6, r6
 1585 001c 3146     		mov	r1, r6
 1586 001e 187A     		ldrb	r0, [r3, #8]	@ zero_extendqisi2
 1587 0020 FFF7FEFF 		bl	EEPROM_WriteByte
 1588              	.LVL161:
 1589              	.LBB29:
 225:main.c        ****             EEPROM_WriteByte(players[i].name[j - 1], j + i*6);
 1590              		.loc 1 225 0
 1591 0024 0124     		movs	r4, #1
 1592 0026 0BE0     		b	.L142
 1593              	.LVL162:
 1594              	.L143:
 226:main.c        ****         }
 1595              		.loc 1 226 0 discriminator 3
 1596 0028 601E     		subs	r0, r4, #1
 1597 002a 05EB4502 		add	r2, r5, r5, lsl #1
 1598 002e 9300     		lsls	r3, r2, #2
 1599 0030 064A     		ldr	r2, .L146
 1600 0032 1344     		add	r3, r3, r2
 1601 0034 3119     		adds	r1, r6, r4
 1602 0036 89B2     		uxth	r1, r1
 1603 0038 185C     		ldrb	r0, [r3, r0]	@ zero_extendqisi2
 1604 003a FFF7FEFF 		bl	EEPROM_WriteByte
 1605              	.LVL163:
 225:main.c        ****             EEPROM_WriteByte(players[i].name[j - 1], j + i*6);
 1606              		.loc 1 225 0 discriminator 3
 1607 003e 0134     		adds	r4, r4, #1
 1608              	.LVL164:
 1609              	.L142:
 225:main.c        ****             EEPROM_WriteByte(players[i].name[j - 1], j + i*6);
 1610              		.loc 1 225 0 is_stmt 0 discriminator 1
 1611 0040 052C     		cmp	r4, #5
 1612 0042 F1DD     		ble	.L143
 1613              	.LBE29:
 223:main.c        ****         EEPROM_WriteByte(players[i].score, 0 + i*6);
 1614              		.loc 1 223 0 is_stmt 1 discriminator 2
 1615 0044 0135     		adds	r5, r5, #1
 1616              	.LVL165:
 1617              	.L141:
 223:main.c        ****         EEPROM_WriteByte(players[i].score, 0 + i*6);
ARM GAS  C:\Users\isaac\AppData\Local\Temp\cc1fpKCw.s 			page 43


 1618              		.loc 1 223 0 is_stmt 0 discriminator 1
 1619 0046 022D     		cmp	r5, #2
 1620 0048 DFDD     		ble	.L144
 1621              	.LBE28:
 229:main.c        **** void PlaceHolders(){
 1622              		.loc 1 229 0 is_stmt 1
 1623 004a 70BD     		pop	{r4, r5, r6, pc}
 1624              	.LVL166:
 1625              	.L147:
 1626              		.align	2
 1627              	.L146:
 1628 004c 00000000 		.word	players
 1629              		.cfi_endproc
 1630              	.LFE78:
 1631              		.size	EepromFirstInit, .-EepromFirstInit
 1632              		.section	.text.WriteNewScores,"ax",%progbits
 1633              		.align	2
 1634              		.global	WriteNewScores
 1635              		.thumb
 1636              		.thumb_func
 1637              		.type	WriteNewScores, %function
 1638              	WriteNewScores:
 1639              	.LFB80:
 238:main.c        ****     for(int i = 0; i < 3; i++){
 1640              		.loc 1 238 0
 1641              		.cfi_startproc
 1642              		@ args = 0, pretend = 0, frame = 0
 1643              		@ frame_needed = 0, uses_anonymous_args = 0
 1644 0000 70B5     		push	{r4, r5, r6, lr}
 1645              		.cfi_def_cfa_offset 16
 1646              		.cfi_offset 4, -16
 1647              		.cfi_offset 5, -12
 1648              		.cfi_offset 6, -8
 1649              		.cfi_offset 14, -4
 1650              	.LVL167:
 1651              	.LBB30:
 239:main.c        ****         EEPROM_WriteByte(players[i].score, 0 + i*6);
 1652              		.loc 1 239 0
 1653 0002 0025     		movs	r5, #0
 1654 0004 1DE0     		b	.L149
 1655              	.LVL168:
 1656              	.L152:
 240:main.c        ****         for(int j = 1; j < 6; j++){
 1657              		.loc 1 240 0
 1658 0006 05EB4502 		add	r2, r5, r5, lsl #1
 1659 000a 9300     		lsls	r3, r2, #2
 1660 000c 0E4A     		ldr	r2, .L154
 1661 000e 1344     		add	r3, r3, r2
 1662 0010 05EB4502 		add	r2, r5, r5, lsl #1
 1663 0014 5600     		lsls	r6, r2, #1
 1664 0016 B6B2     		uxth	r6, r6
 1665 0018 3146     		mov	r1, r6
 1666 001a 187A     		ldrb	r0, [r3, #8]	@ zero_extendqisi2
 1667 001c FFF7FEFF 		bl	EEPROM_WriteByte
 1668              	.LVL169:
 1669              	.LBB31:
 241:main.c        ****             EEPROM_WriteByte(players[i].name[j - 1], j + i*6);
ARM GAS  C:\Users\isaac\AppData\Local\Temp\cc1fpKCw.s 			page 44


 1670              		.loc 1 241 0
 1671 0020 0124     		movs	r4, #1
 1672 0022 0BE0     		b	.L150
 1673              	.LVL170:
 1674              	.L151:
 242:main.c        ****         }
 1675              		.loc 1 242 0 discriminator 3
 1676 0024 601E     		subs	r0, r4, #1
 1677 0026 05EB4502 		add	r2, r5, r5, lsl #1
 1678 002a 9300     		lsls	r3, r2, #2
 1679 002c 064A     		ldr	r2, .L154
 1680 002e 1344     		add	r3, r3, r2
 1681 0030 3119     		adds	r1, r6, r4
 1682 0032 89B2     		uxth	r1, r1
 1683 0034 185C     		ldrb	r0, [r3, r0]	@ zero_extendqisi2
 1684 0036 FFF7FEFF 		bl	EEPROM_WriteByte
 1685              	.LVL171:
 241:main.c        ****             EEPROM_WriteByte(players[i].name[j - 1], j + i*6);
 1686              		.loc 1 241 0 discriminator 3
 1687 003a 0134     		adds	r4, r4, #1
 1688              	.LVL172:
 1689              	.L150:
 241:main.c        ****             EEPROM_WriteByte(players[i].name[j - 1], j + i*6);
 1690              		.loc 1 241 0 is_stmt 0 discriminator 1
 1691 003c 052C     		cmp	r4, #5
 1692 003e F1DD     		ble	.L151
 1693              	.LBE31:
 239:main.c        ****         EEPROM_WriteByte(players[i].score, 0 + i*6);
 1694              		.loc 1 239 0 is_stmt 1 discriminator 2
 1695 0040 0135     		adds	r5, r5, #1
 1696              	.LVL173:
 1697              	.L149:
 239:main.c        ****         EEPROM_WriteByte(players[i].score, 0 + i*6);
 1698              		.loc 1 239 0 is_stmt 0 discriminator 1
 1699 0042 022D     		cmp	r5, #2
 1700 0044 DFDD     		ble	.L152
 1701              	.LBE30:
 245:main.c        **** void ReadScores(){
 1702              		.loc 1 245 0 is_stmt 1
 1703 0046 70BD     		pop	{r4, r5, r6, pc}
 1704              	.LVL174:
 1705              	.L155:
 1706              		.align	2
 1707              	.L154:
 1708 0048 00000000 		.word	players
 1709              		.cfi_endproc
 1710              	.LFE80:
 1711              		.size	WriteNewScores, .-WriteNewScores
 1712              		.section	.text.ReadScores,"ax",%progbits
 1713              		.align	2
 1714              		.global	ReadScores
 1715              		.thumb
 1716              		.thumb_func
 1717              		.type	ReadScores, %function
 1718              	ReadScores:
 1719              	.LFB81:
 246:main.c        ****     for(int i = 0; i < 3; i++){
ARM GAS  C:\Users\isaac\AppData\Local\Temp\cc1fpKCw.s 			page 45


 1720              		.loc 1 246 0
 1721              		.cfi_startproc
 1722              		@ args = 0, pretend = 0, frame = 0
 1723              		@ frame_needed = 0, uses_anonymous_args = 0
 1724 0000 F8B5     		push	{r3, r4, r5, r6, r7, lr}
 1725              		.cfi_def_cfa_offset 24
 1726              		.cfi_offset 3, -24
 1727              		.cfi_offset 4, -20
 1728              		.cfi_offset 5, -16
 1729              		.cfi_offset 6, -12
 1730              		.cfi_offset 7, -8
 1731              		.cfi_offset 14, -4
 1732              	.LVL175:
 1733              	.LBB32:
 247:main.c        ****         players[i].score = EEPROM_ReadByte(0 + i*6);
 1734              		.loc 1 247 0
 1735 0002 0025     		movs	r5, #0
 1736 0004 1DE0     		b	.L157
 1737              	.LVL176:
 1738              	.L160:
 248:main.c        ****         for(int j = 1; j < 6; j++){
 1739              		.loc 1 248 0
 1740 0006 05EB4503 		add	r3, r5, r5, lsl #1
 1741 000a 5F00     		lsls	r7, r3, #1
 1742 000c BFB2     		uxth	r7, r7
 1743 000e 3846     		mov	r0, r7
 1744 0010 FFF7FEFF 		bl	EEPROM_ReadByte
 1745              	.LVL177:
 1746 0014 05EB4502 		add	r2, r5, r5, lsl #1
 1747 0018 9300     		lsls	r3, r2, #2
 1748 001a 0B4A     		ldr	r2, .L162
 1749 001c 1344     		add	r3, r3, r2
 1750 001e 9860     		str	r0, [r3, #8]
 1751              	.LVL178:
 1752              	.LBB33:
 249:main.c        ****             players[i].name[j - 1] = EEPROM_ReadByte(j + i*6);
 1753              		.loc 1 249 0
 1754 0020 0124     		movs	r4, #1
 1755 0022 0BE0     		b	.L158
 1756              	.LVL179:
 1757              	.L159:
 250:main.c        ****         }
 1758              		.loc 1 250 0 discriminator 3
 1759 0024 661E     		subs	r6, r4, #1
 1760 0026 3819     		adds	r0, r7, r4
 1761 0028 80B2     		uxth	r0, r0
 1762 002a FFF7FEFF 		bl	EEPROM_ReadByte
 1763              	.LVL180:
 1764 002e 05EB4502 		add	r2, r5, r5, lsl #1
 1765 0032 9300     		lsls	r3, r2, #2
 1766 0034 044A     		ldr	r2, .L162
 1767 0036 1344     		add	r3, r3, r2
 1768 0038 9855     		strb	r0, [r3, r6]
 249:main.c        ****             players[i].name[j - 1] = EEPROM_ReadByte(j + i*6);
 1769              		.loc 1 249 0 discriminator 3
 1770 003a 0134     		adds	r4, r4, #1
 1771              	.LVL181:
ARM GAS  C:\Users\isaac\AppData\Local\Temp\cc1fpKCw.s 			page 46


 1772              	.L158:
 249:main.c        ****             players[i].name[j - 1] = EEPROM_ReadByte(j + i*6);
 1773              		.loc 1 249 0 is_stmt 0 discriminator 1
 1774 003c 052C     		cmp	r4, #5
 1775 003e F1DD     		ble	.L159
 1776              	.LBE33:
 247:main.c        ****         players[i].score = EEPROM_ReadByte(0 + i*6);
 1777              		.loc 1 247 0 is_stmt 1 discriminator 2
 1778 0040 0135     		adds	r5, r5, #1
 1779              	.LVL182:
 1780              	.L157:
 247:main.c        ****         players[i].score = EEPROM_ReadByte(0 + i*6);
 1781              		.loc 1 247 0 is_stmt 0 discriminator 1
 1782 0042 022D     		cmp	r5, #2
 1783 0044 DFDD     		ble	.L160
 1784              	.LBE32:
 253:main.c        **** bool UpdateFirstPlace(){
 1785              		.loc 1 253 0 is_stmt 1
 1786 0046 F8BD     		pop	{r3, r4, r5, r6, r7, pc}
 1787              	.LVL183:
 1788              	.L163:
 1789              		.align	2
 1790              	.L162:
 1791 0048 00000000 		.word	players
 1792              		.cfi_endproc
 1793              	.LFE81:
 1794              		.size	ReadScores, .-ReadScores
 1795              		.section	.text.UpdateFirstPlace,"ax",%progbits
 1796              		.align	2
 1797              		.global	UpdateFirstPlace
 1798              		.thumb
 1799              		.thumb_func
 1800              		.type	UpdateFirstPlace, %function
 1801              	UpdateFirstPlace:
 1802              	.LFB82:
 254:main.c        ****     int target = -1;
 1803              		.loc 1 254 0
 1804              		.cfi_startproc
 1805              		@ args = 0, pretend = 0, frame = 16
 1806              		@ frame_needed = 0, uses_anonymous_args = 0
 1807              	.LVL184:
 1808              	.LBB34:
 258:main.c        ****         if(match_score > players[i].score){
 1809              		.loc 1 258 0
 1810 0000 0023     		movs	r3, #0
 1811 0002 0AE0     		b	.L165
 1812              	.LVL185:
 1813              	.L167:
 259:main.c        ****             target = i;
 1814              		.loc 1 259 0
 1815 0004 03EB4301 		add	r1, r3, r3, lsl #1
 1816 0008 8A00     		lsls	r2, r1, #2
 1817 000a 2C49     		ldr	r1, .L179
 1818 000c 0A44     		add	r2, r2, r1
 1819 000e 9168     		ldr	r1, [r2, #8]
 1820 0010 2B4A     		ldr	r2, .L179+4
 1821 0012 9268     		ldr	r2, [r2, #8]
ARM GAS  C:\Users\isaac\AppData\Local\Temp\cc1fpKCw.s 			page 47


 1822 0014 9142     		cmp	r1, r2
 1823 0016 04DB     		blt	.L166
 258:main.c        ****         if(match_score > players[i].score){
 1824              		.loc 1 258 0 discriminator 2
 1825 0018 0133     		adds	r3, r3, #1
 1826              	.LVL186:
 1827              	.L165:
 258:main.c        ****         if(match_score > players[i].score){
 1828              		.loc 1 258 0 is_stmt 0 discriminator 1
 1829 001a 022B     		cmp	r3, #2
 1830 001c F2DD     		ble	.L167
 1831              	.LBE34:
 255:main.c        ****     struct player players_temp;
 1832              		.loc 1 255 0 is_stmt 1
 1833 001e 4FF0FF33 		mov	r3, #-1
 1834              	.LVL187:
 1835              	.L166:
 265:main.c        ****         players[3].score = match_score;
 1836              		.loc 1 265 0
 1837 0022 B3F1FF3F 		cmp	r3, #-1
 1838 0026 45D0     		beq	.L175
 266:main.c        ****         for(int i = 0; i < 5; i++){
 1839              		.loc 1 266 0
 1840 0028 254B     		ldr	r3, .L179+4
 1841              	.LVL188:
 1842 002a 9A68     		ldr	r2, [r3, #8]
 1843 002c 234B     		ldr	r3, .L179
 1844 002e DA62     		str	r2, [r3, #44]
 1845              	.LVL189:
 1846              	.LBB35:
 267:main.c        ****         players[3].name[i] = cur_name[i];
 1847              		.loc 1 267 0
 1848 0030 0023     		movs	r3, #0
 1849 0032 07E0     		b	.L169
 1850              	.LVL190:
 1851              	.L170:
 268:main.c        ****         }
 1852              		.loc 1 268 0 discriminator 3
 1853 0034 234A     		ldr	r2, .L179+8
 1854 0036 1A44     		add	r2, r2, r3
 1855 0038 1179     		ldrb	r1, [r2, #4]	@ zero_extendqisi2
 1856 003a 204A     		ldr	r2, .L179
 1857 003c 1A44     		add	r2, r2, r3
 1858 003e 82F82410 		strb	r1, [r2, #36]
 267:main.c        ****         players[3].name[i] = cur_name[i];
 1859              		.loc 1 267 0 discriminator 3
 1860 0042 0133     		adds	r3, r3, #1
 1861              	.LVL191:
 1862              	.L169:
 267:main.c        ****         players[3].name[i] = cur_name[i];
 1863              		.loc 1 267 0 is_stmt 0 discriminator 1
 1864 0044 042B     		cmp	r3, #4
 1865 0046 F5DD     		ble	.L170
 1866              	.LBE35:
 254:main.c        ****     int target = -1;
 1867              		.loc 1 254 0 is_stmt 1
 1868 0048 F0B5     		push	{r4, r5, r6, r7, lr}
ARM GAS  C:\Users\isaac\AppData\Local\Temp\cc1fpKCw.s 			page 48


 1869              		.cfi_def_cfa_offset 20
 1870              		.cfi_offset 4, -20
 1871              		.cfi_offset 5, -16
 1872              		.cfi_offset 6, -12
 1873              		.cfi_offset 7, -8
 1874              		.cfi_offset 14, -4
 1875 004a 85B0     		sub	sp, sp, #20
 1876              		.cfi_def_cfa_offset 40
 1877              	.LBB36:
 1878 004c 0027     		movs	r7, #0
 1879 004e 2DE0     		b	.L171
 1880              	.LVL192:
 1881              	.L173:
 1882              	.LBE36:
 1883              	.LBB37:
 1884              	.LBB38:
 273:main.c        ****                 players_temp = players[d];
 1885              		.loc 1 273 0
 1886 0050 1A48     		ldr	r0, .L179
 1887 0052 03EB4302 		add	r2, r3, r3, lsl #1
 1888 0056 9100     		lsls	r1, r2, #2
 1889 0058 0144     		add	r1, r1, r0
 1890 005a 8D68     		ldr	r5, [r1, #8]
 1891 005c 5C1C     		adds	r4, r3, #1
 1892 005e 04EB4401 		add	r1, r4, r4, lsl #1
 1893 0062 8A00     		lsls	r2, r1, #2
 1894 0064 0244     		add	r2, r2, r0
 1895 0066 9268     		ldr	r2, [r2, #8]
 1896 0068 9542     		cmp	r5, r2
 1897 006a 17DA     		bge	.L172
 274:main.c        ****                 players[d]   = players[d+1];
 1898              		.loc 1 274 0
 1899 006c 8646     		mov	lr, r0
 1900 006e 5E00     		lsls	r6, r3, #1
 1901 0070 F118     		adds	r1, r6, r3
 1902 0072 8A00     		lsls	r2, r1, #2
 1903 0074 0244     		add	r2, r2, r0
 1904 0076 01AD     		add	r5, sp, #4
 1905 0078 07CA     		ldmia	r2, {r0, r1, r2}
 1906 007a 85E80700 		stmia	r5, {r0, r1, r2}
 275:main.c        ****                 players[d+1] = players_temp;
 1907              		.loc 1 275 0
 1908 007e 3344     		add	r3, r3, r6
 1909              	.LVL193:
 1910 0080 9E00     		lsls	r6, r3, #2
 1911 0082 7644     		add	r6, r6, lr
 1912 0084 6200     		lsls	r2, r4, #1
 1913 0086 2244     		add	r2, r2, r4
 1914 0088 9300     		lsls	r3, r2, #2
 1915 008a 7344     		add	r3, r3, lr
 1916 008c 93E80700 		ldmia	r3, {r0, r1, r2}
 1917 0090 86E80700 		stmia	r6, {r0, r1, r2}
 276:main.c        ****                 }
 1918              		.loc 1 276 0
 1919 0094 95E80700 		ldmia	r5, {r0, r1, r2}
 1920 0098 83E80700 		stmia	r3, {r0, r1, r2}
 1921              	.L172:
ARM GAS  C:\Users\isaac\AppData\Local\Temp\cc1fpKCw.s 			page 49


 1922              	.LBE38:
 1923 009c 2346     		mov	r3, r4
 1924 009e 00E0     		b	.L174
 1925              	.LVL194:
 1926              	.L176:
 1927 00a0 0023     		movs	r3, #0
 1928              	.L174:
 1929              	.LVL195:
 1930              	.LBB39:
 272:main.c        ****              if (players[d].score < players[d+1].score){
 1931              		.loc 1 272 0 discriminator 1
 1932 00a2 C7F10302 		rsb	r2, r7, #3
 1933 00a6 9342     		cmp	r3, r2
 1934 00a8 D2DB     		blt	.L173
 1935              	.LBE39:
 271:main.c        ****             for (int d = 0 ; d < 4 - c - 1; d++){
 1936              		.loc 1 271 0 discriminator 2
 1937 00aa 0137     		adds	r7, r7, #1
 1938              	.LVL196:
 1939              	.L171:
 271:main.c        ****             for (int d = 0 ; d < 4 - c - 1; d++){
 1940              		.loc 1 271 0 is_stmt 0 discriminator 1
 1941 00ac 022F     		cmp	r7, #2
 1942 00ae F7DD     		ble	.L176
 1943              	.LBE37:
 280:main.c        ****     }
 1944              		.loc 1 280 0 is_stmt 1
 1945 00b0 0120     		movs	r0, #1
 1946              	.LBB40:
 1947 00b2 01E0     		b	.L168
 1948              	.LVL197:
 1949              	.L175:
 1950              		.cfi_def_cfa_offset 0
 1951              		.cfi_restore 4
 1952              		.cfi_restore 5
 1953              		.cfi_restore 6
 1954              		.cfi_restore 7
 1955              		.cfi_restore 14
 1956              	.LBE40:
 282:main.c        **** }
 1957              		.loc 1 282 0
 1958 00b4 0020     		movs	r0, #0
 1959 00b6 7047     		bx	lr
 1960              	.LVL198:
 1961              	.L168:
 1962              		.cfi_def_cfa_offset 40
 1963              		.cfi_offset 4, -20
 1964              		.cfi_offset 5, -16
 1965              		.cfi_offset 6, -12
 1966              		.cfi_offset 7, -8
 1967              		.cfi_offset 14, -4
 283:main.c        **** //Animation for transitions.
 1968              		.loc 1 283 0
 1969 00b8 05B0     		add	sp, sp, #20
 1970              		.cfi_def_cfa_offset 20
 1971              		@ sp needed
 1972 00ba F0BD     		pop	{r4, r5, r6, r7, pc}
ARM GAS  C:\Users\isaac\AppData\Local\Temp\cc1fpKCw.s 			page 50


 1973              	.LVL199:
 1974              	.L180:
 1975              		.align	2
 1976              	.L179:
 1977 00bc 00000000 		.word	players
 1978 00c0 00000000 		.word	.LANCHOR1
 1979 00c4 00000000 		.word	.LANCHOR0
 1980              		.cfi_endproc
 1981              	.LFE82:
 1982              		.size	UpdateFirstPlace, .-UpdateFirstPlace
 1983              		.section	.text.Animation,"ax",%progbits
 1984              		.align	2
 1985              		.global	Animation
 1986              		.thumb
 1987              		.thumb_func
 1988              		.type	Animation, %function
 1989              	Animation:
 1990              	.LFB83:
 285:main.c        ****     for(int i = 0; i < 8; i++){
 1991              		.loc 1 285 0
 1992              		.cfi_startproc
 1993              		@ args = 0, pretend = 0, frame = 0
 1994              		@ frame_needed = 0, uses_anonymous_args = 0
 1995 0000 70B5     		push	{r4, r5, r6, lr}
 1996              		.cfi_def_cfa_offset 16
 1997              		.cfi_offset 4, -16
 1998              		.cfi_offset 5, -12
 1999              		.cfi_offset 6, -8
 2000              		.cfi_offset 14, -4
 2001              	.LVL200:
 2002              	.LBB41:
 286:main.c        ****         LCD_Position(0,8 + i);
 2003              		.loc 1 286 0
 2004 0002 0026     		movs	r6, #0
 2005 0004 26E0     		b	.L182
 2006              	.LVL201:
 2007              	.L183:
 287:main.c        ****         LCD_PutChar('#');
 2008              		.loc 1 287 0 discriminator 3
 2009 0006 F4B2     		uxtb	r4, r6
 2010 0008 04F10805 		add	r5, r4, #8
 2011 000c EDB2     		uxtb	r5, r5
 2012 000e 2946     		mov	r1, r5
 2013 0010 0020     		movs	r0, #0
 2014 0012 FFF7FEFF 		bl	LCD_Position
 2015              	.LVL202:
 288:main.c        ****         LCD_Position(0,7 - i);
 2016              		.loc 1 288 0 discriminator 3
 2017 0016 2320     		movs	r0, #35
 2018 0018 FFF7FEFF 		bl	LCD_PutChar
 2019              	.LVL203:
 289:main.c        ****         LCD_PutChar('#');
 2020              		.loc 1 289 0 discriminator 3
 2021 001c C4F10704 		rsb	r4, r4, #7
 2022 0020 E4B2     		uxtb	r4, r4
 2023 0022 2146     		mov	r1, r4
 2024 0024 0020     		movs	r0, #0
ARM GAS  C:\Users\isaac\AppData\Local\Temp\cc1fpKCw.s 			page 51


 2025 0026 FFF7FEFF 		bl	LCD_Position
 2026              	.LVL204:
 290:main.c        ****         LCD_Position(1,8 + i);
 2027              		.loc 1 290 0 discriminator 3
 2028 002a 2320     		movs	r0, #35
 2029 002c FFF7FEFF 		bl	LCD_PutChar
 2030              	.LVL205:
 291:main.c        ****         LCD_PutChar('#');
 2031              		.loc 1 291 0 discriminator 3
 2032 0030 2946     		mov	r1, r5
 2033 0032 0120     		movs	r0, #1
 2034 0034 FFF7FEFF 		bl	LCD_Position
 2035              	.LVL206:
 292:main.c        ****         LCD_Position(1,7 - i);
 2036              		.loc 1 292 0 discriminator 3
 2037 0038 2320     		movs	r0, #35
 2038 003a FFF7FEFF 		bl	LCD_PutChar
 2039              	.LVL207:
 293:main.c        ****         LCD_PutChar('#');
 2040              		.loc 1 293 0 discriminator 3
 2041 003e 2146     		mov	r1, r4
 2042 0040 0120     		movs	r0, #1
 2043 0042 FFF7FEFF 		bl	LCD_Position
 2044              	.LVL208:
 294:main.c        ****         CyDelay(100);
 2045              		.loc 1 294 0 discriminator 3
 2046 0046 2320     		movs	r0, #35
 2047 0048 FFF7FEFF 		bl	LCD_PutChar
 2048              	.LVL209:
 295:main.c        ****     }
 2049              		.loc 1 295 0 discriminator 3
 2050 004c 6420     		movs	r0, #100
 2051 004e FFF7FEFF 		bl	CyDelay
 2052              	.LVL210:
 286:main.c        ****         LCD_Position(0,8 + i);
 2053              		.loc 1 286 0 discriminator 3
 2054 0052 0136     		adds	r6, r6, #1
 2055              	.LVL211:
 2056              	.L182:
 286:main.c        ****         LCD_Position(0,8 + i);
 2057              		.loc 1 286 0 is_stmt 0 discriminator 1
 2058 0054 072E     		cmp	r6, #7
 2059 0056 D6DD     		ble	.L183
 2060              	.LBE41:
 297:main.c        ****     for(int i = 0; i < 16; i++){
 2061              		.loc 1 297 0 is_stmt 1
 2062 0058 0120     		movs	r0, #1
 2063 005a FFF7FEFF 		bl	LCD_WriteControl
 2064              	.LVL212:
 2065              	.LBB42:
 298:main.c        ****         LCD_Position(0,i);
 2066              		.loc 1 298 0
 2067 005e 0024     		movs	r4, #0
 2068 0060 0FE0     		b	.L184
 2069              	.LVL213:
 2070              	.L185:
 299:main.c        ****         LCD_PutChar('%');
ARM GAS  C:\Users\isaac\AppData\Local\Temp\cc1fpKCw.s 			page 52


 2071              		.loc 1 299 0 discriminator 3
 2072 0062 E5B2     		uxtb	r5, r4
 2073 0064 2946     		mov	r1, r5
 2074 0066 0020     		movs	r0, #0
 2075 0068 FFF7FEFF 		bl	LCD_Position
 2076              	.LVL214:
 300:main.c        ****         LCD_Position(1,i);
 2077              		.loc 1 300 0 discriminator 3
 2078 006c 2520     		movs	r0, #37
 2079 006e FFF7FEFF 		bl	LCD_PutChar
 2080              	.LVL215:
 301:main.c        ****         LCD_PutChar('%');
 2081              		.loc 1 301 0 discriminator 3
 2082 0072 2946     		mov	r1, r5
 2083 0074 0120     		movs	r0, #1
 2084 0076 FFF7FEFF 		bl	LCD_Position
 2085              	.LVL216:
 302:main.c        ****     }
 2086              		.loc 1 302 0 discriminator 3
 2087 007a 2520     		movs	r0, #37
 2088 007c FFF7FEFF 		bl	LCD_PutChar
 2089              	.LVL217:
 298:main.c        ****         LCD_Position(0,i);
 2090              		.loc 1 298 0 discriminator 3
 2091 0080 0134     		adds	r4, r4, #1
 2092              	.LVL218:
 2093              	.L184:
 298:main.c        ****         LCD_Position(0,i);
 2094              		.loc 1 298 0 is_stmt 0 discriminator 1
 2095 0082 0F2C     		cmp	r4, #15
 2096 0084 EDDD     		ble	.L185
 2097              	.LBE42:
 304:main.c        ****     LCD_ClearDisplay();
 2098              		.loc 1 304 0 is_stmt 1
 2099 0086 6420     		movs	r0, #100
 2100 0088 FFF7FEFF 		bl	CyDelay
 2101              	.LVL219:
 305:main.c        **** }
 2102              		.loc 1 305 0
 2103 008c 0120     		movs	r0, #1
 2104 008e FFF7FEFF 		bl	LCD_WriteControl
 2105              	.LVL220:
 2106 0092 70BD     		pop	{r4, r5, r6, pc}
 2107              		.cfi_endproc
 2108              	.LFE83:
 2109              		.size	Animation, .-Animation
 2110              		.section	.text.Names_Recieved,"ax",%progbits
 2111              		.align	2
 2112              		.global	Names_Recieved
 2113              		.thumb
 2114              		.thumb_func
 2115              		.type	Names_Recieved, %function
 2116              	Names_Recieved:
 2117              	.LFB88:
 361:main.c        **** }
 362:main.c        **** 
 363:main.c        **** 
ARM GAS  C:\Users\isaac\AppData\Local\Temp\cc1fpKCw.s 			page 53


 364:main.c        **** //Recibir Nombre
 365:main.c        **** void Names_Recieved(char name_str[32]){
 2118              		.loc 1 365 0
 2119              		.cfi_startproc
 2120              		@ args = 0, pretend = 0, frame = 0
 2121              		@ frame_needed = 0, uses_anonymous_args = 0
 2122              		@ link register save eliminated.
 2123              	.LVL221:
 2124 0000 10B4     		push	{r4}
 2125              		.cfi_def_cfa_offset 4
 2126              		.cfi_offset 4, -4
 2127              	.LVL222:
 2128              	.LBB43:
 366:main.c        ****     int j = 0;
 367:main.c        ****     for(int i = 4; i < 9; i++){
 2129              		.loc 1 367 0
 2130 0002 0423     		movs	r3, #4
 2131              	.LBE43:
 366:main.c        ****     int j = 0;
 2132              		.loc 1 366 0
 2133 0004 0021     		movs	r1, #0
 2134              	.LBB44:
 2135              		.loc 1 367 0
 2136 0006 05E0     		b	.L188
 2137              	.LVL223:
 2138              	.L189:
 368:main.c        ****         cur_name[j] = name_str[i];
 2139              		.loc 1 368 0 discriminator 3
 2140 0008 C45C     		ldrb	r4, [r0, r3]	@ zero_extendqisi2
 2141 000a 064A     		ldr	r2, .L191
 2142 000c 0A44     		add	r2, r2, r1
 2143 000e 1471     		strb	r4, [r2, #4]
 369:main.c        ****         j++;
 2144              		.loc 1 369 0 discriminator 3
 2145 0010 0131     		adds	r1, r1, #1
 2146              	.LVL224:
 367:main.c        ****         cur_name[j] = name_str[i];
 2147              		.loc 1 367 0 discriminator 3
 2148 0012 0133     		adds	r3, r3, #1
 2149              	.LVL225:
 2150              	.L188:
 367:main.c        ****         cur_name[j] = name_str[i];
 2151              		.loc 1 367 0 is_stmt 0 discriminator 1
 2152 0014 082B     		cmp	r3, #8
 2153 0016 F7DD     		ble	.L189
 2154              	.LBE44:
 370:main.c        ****     }
 371:main.c        ****     name_wait = 1;
 2155              		.loc 1 371 0 is_stmt 1
 2156 0018 0122     		movs	r2, #1
 2157 001a 034B     		ldr	r3, .L191+4
 2158              	.LVL226:
 2159 001c DA61     		str	r2, [r3, #28]
 372:main.c        **** }
 2160              		.loc 1 372 0
 2161 001e 10BC     		pop	{r4}
 2162              		.cfi_restore 4
ARM GAS  C:\Users\isaac\AppData\Local\Temp\cc1fpKCw.s 			page 54


 2163              		.cfi_def_cfa_offset 0
 2164 0020 7047     		bx	lr
 2165              	.L192:
 2166 0022 00BF     		.align	2
 2167              	.L191:
 2168 0024 00000000 		.word	.LANCHOR0
 2169 0028 00000000 		.word	.LANCHOR1
 2170              		.cfi_endproc
 2171              	.LFE88:
 2172              		.size	Names_Recieved, .-Names_Recieved
 2173              		.section	.text.com_handler,"ax",%progbits
 2174              		.align	2
 2175              		.global	com_handler
 2176              		.thumb
 2177              		.thumb_func
 2178              		.type	com_handler, %function
 2179              	com_handler:
 2180              	.LFB90:
 373:main.c        **** //Update Status
 374:main.c        **** void UpdateStatus(){
 375:main.c        ****     char mesage[24];
 376:main.c        ****     sprintf(mesage,"BST,%c,F\n",state);
 377:main.c        ****     UART_PutString(mesage);
 378:main.c        **** }
 379:main.c        **** 
 380:main.c        **** //------Comunicacion UART----
 381:main.c        **** CY_ISR(com_handler){
 2181              		.loc 1 381 0
 2182              		.cfi_startproc
 2183              		@ args = 0, pretend = 0, frame = 0
 2184              		@ frame_needed = 0, uses_anonymous_args = 0
 2185 0000 10B5     		push	{r4, lr}
 2186              		.cfi_def_cfa_offset 8
 2187              		.cfi_offset 4, -8
 2188              		.cfi_offset 14, -4
 382:main.c        ****     foo = UART_GetChar();
 2189              		.loc 1 382 0
 2190 0002 FFF7FEFF 		bl	UART_GetChar
 2191              	.LVL227:
 2192 0006 784B     		ldr	r3, .L222
 2193 0008 1870     		strb	r0, [r3]
 383:main.c        ****     if(foo == 'M'){
 2194              		.loc 1 383 0
 2195 000a 4D28     		cmp	r0, #77
 2196 000c 0CD1     		bne	.L194
 384:main.c        ****         cs = 0;
 2197              		.loc 1 384 0
 2198 000e 774A     		ldr	r2, .L222+4
 2199 0010 0024     		movs	r4, #0
 2200 0012 1462     		str	r4, [r2, #32]
 385:main.c        ****         pass = 1;
 2201              		.loc 1 385 0
 2202 0014 764B     		ldr	r3, .L222+8
 2203 0016 0121     		movs	r1, #1
 2204 0018 D960     		str	r1, [r3, #12]
 386:main.c        ****         comas = 0;
 2205              		.loc 1 386 0
ARM GAS  C:\Users\isaac\AppData\Local\Temp\cc1fpKCw.s 			page 55


 2206 001a 5462     		str	r4, [r2, #36]
 387:main.c        ****         read = 1;
 2207              		.loc 1 387 0
 2208 001c 1961     		str	r1, [r3, #16]
 388:main.c        ****         max_comas = 2;
 2209              		.loc 1 388 0
 2210 001e 0221     		movs	r1, #2
 2211 0020 9162     		str	r1, [r2, #40]
 389:main.c        ****         com_state = 'm';
 2212              		.loc 1 389 0
 2213 0022 6D22     		movs	r2, #109
 2214 0024 1A75     		strb	r2, [r3, #20]
 2215 0026 0DE0     		b	.L195
 2216              	.L194:
 390:main.c        ****     }
 391:main.c        ****     else if(foo == 'J'){
 2217              		.loc 1 391 0
 2218 0028 4A28     		cmp	r0, #74
 2219 002a 0BD1     		bne	.L195
 392:main.c        ****         cs = 0;
 2220              		.loc 1 392 0
 2221 002c 6F4A     		ldr	r2, .L222+4
 2222 002e 0024     		movs	r4, #0
 2223 0030 1462     		str	r4, [r2, #32]
 393:main.c        ****         pass = 1;
 2224              		.loc 1 393 0
 2225 0032 6F4B     		ldr	r3, .L222+8
 2226 0034 0121     		movs	r1, #1
 2227 0036 D960     		str	r1, [r3, #12]
 394:main.c        ****         comas = 0;
 2228              		.loc 1 394 0
 2229 0038 5462     		str	r4, [r2, #36]
 395:main.c        ****         read = 1;
 2230              		.loc 1 395 0
 2231 003a 1961     		str	r1, [r3, #16]
 396:main.c        ****         max_comas = 3;
 2232              		.loc 1 396 0
 2233 003c 0321     		movs	r1, #3
 2234 003e 9162     		str	r1, [r2, #40]
 397:main.c        ****         com_state = 'n';
 2235              		.loc 1 397 0
 2236 0040 6E22     		movs	r2, #110
 2237 0042 1A75     		strb	r2, [r3, #20]
 2238              	.L195:
 398:main.c        ****     }
 399:main.c        ****     switch(com_state){
 2239              		.loc 1 399 0
 2240 0044 6A4B     		ldr	r3, .L222+8
 2241 0046 1B7D     		ldrb	r3, [r3, #20]	@ zero_extendqisi2
 2242 0048 6D2B     		cmp	r3, #109
 2243 004a 02D0     		beq	.L197
 2244 004c 6E2B     		cmp	r3, #110
 2245 004e 64D0     		beq	.L198
 2246 0050 C6E0     		b	.L196
 2247              	.L197:
 400:main.c        ****         case 'm':
 401:main.c        ****             if(foo == ','){
ARM GAS  C:\Users\isaac\AppData\Local\Temp\cc1fpKCw.s 			page 56


 2248              		.loc 1 401 0
 2249 0052 2C28     		cmp	r0, #44
 2250 0054 03D1     		bne	.L199
 402:main.c        ****                 comas++;
 2251              		.loc 1 402 0
 2252 0056 654A     		ldr	r2, .L222+4
 2253 0058 536A     		ldr	r3, [r2, #36]
 2254 005a 0133     		adds	r3, r3, #1
 2255 005c 5362     		str	r3, [r2, #36]
 2256              	.L199:
 403:main.c        ****             }
 404:main.c        ****             if(read == 1){
 2257              		.loc 1 404 0
 2258 005e 644B     		ldr	r3, .L222+8
 2259 0060 1B69     		ldr	r3, [r3, #16]
 2260 0062 012B     		cmp	r3, #1
 2261 0064 04D1     		bne	.L200
 405:main.c        ****              check[cs] = foo;
 2262              		.loc 1 405 0
 2263 0066 614B     		ldr	r3, .L222+4
 2264 0068 1B6A     		ldr	r3, [r3, #32]
 2265 006a 614A     		ldr	r2, .L222+8
 2266 006c 1344     		add	r3, r3, r2
 2267 006e 1876     		strb	r0, [r3, #24]
 2268              	.L200:
 406:main.c        ****             }
 407:main.c        ****             if(cs == 3){
 2269              		.loc 1 407 0
 2270 0070 5E4B     		ldr	r3, .L222+4
 2271 0072 1B6A     		ldr	r3, [r3, #32]
 2272 0074 032B     		cmp	r3, #3
 2273 0076 14D1     		bne	.L201
 408:main.c        ****                 if(check[0] != 'M'){ pass = 0;}
 2274              		.loc 1 408 0
 2275 0078 5D4A     		ldr	r2, .L222+8
 2276 007a 127E     		ldrb	r2, [r2, #24]	@ zero_extendqisi2
 2277 007c 4D2A     		cmp	r2, #77
 2278 007e 02D0     		beq	.L202
 2279              		.loc 1 408 0 is_stmt 0 discriminator 1
 2280 0080 0021     		movs	r1, #0
 2281 0082 5B4A     		ldr	r2, .L222+8
 2282 0084 D160     		str	r1, [r2, #12]
 2283              	.L202:
 409:main.c        ****                 if(check[1] != 'V'){ pass = 0;}
 2284              		.loc 1 409 0 is_stmt 1
 2285 0086 5A4A     		ldr	r2, .L222+8
 2286 0088 527E     		ldrb	r2, [r2, #25]	@ zero_extendqisi2
 2287 008a 562A     		cmp	r2, #86
 2288 008c 02D0     		beq	.L203
 2289              		.loc 1 409 0 is_stmt 0 discriminator 1
 2290 008e 0021     		movs	r1, #0
 2291 0090 574A     		ldr	r2, .L222+8
 2292 0092 D160     		str	r1, [r2, #12]
 2293              	.L203:
 410:main.c        ****                 if(check[2] != 'T'){ pass = 0;}
 2294              		.loc 1 410 0 is_stmt 1
 2295 0094 564A     		ldr	r2, .L222+8
ARM GAS  C:\Users\isaac\AppData\Local\Temp\cc1fpKCw.s 			page 57


 2296 0096 927E     		ldrb	r2, [r2, #26]	@ zero_extendqisi2
 2297 0098 542A     		cmp	r2, #84
 2298 009a 02D0     		beq	.L201
 2299              		.loc 1 410 0 is_stmt 0 discriminator 1
 2300 009c 0021     		movs	r1, #0
 2301 009e 544A     		ldr	r2, .L222+8
 2302 00a0 D160     		str	r1, [r2, #12]
 2303              	.L201:
 411:main.c        ****             }
 412:main.c        ****             if(cs == 6){
 2304              		.loc 1 412 0 is_stmt 1
 2305 00a2 062B     		cmp	r3, #6
 2306 00a4 14D1     		bne	.L204
 413:main.c        ****                 if(check[0] != 'M'){ pass = 0;}
 2307              		.loc 1 413 0
 2308 00a6 524A     		ldr	r2, .L222+8
 2309 00a8 127E     		ldrb	r2, [r2, #24]	@ zero_extendqisi2
 2310 00aa 4D2A     		cmp	r2, #77
 2311 00ac 02D0     		beq	.L205
 2312              		.loc 1 413 0 is_stmt 0 discriminator 1
 2313 00ae 0021     		movs	r1, #0
 2314 00b0 4F4A     		ldr	r2, .L222+8
 2315 00b2 D160     		str	r1, [r2, #12]
 2316              	.L205:
 414:main.c        ****                 if(check[1] != 'V'){ pass = 0;}
 2317              		.loc 1 414 0 is_stmt 1
 2318 00b4 4E4A     		ldr	r2, .L222+8
 2319 00b6 527E     		ldrb	r2, [r2, #25]	@ zero_extendqisi2
 2320 00b8 562A     		cmp	r2, #86
 2321 00ba 02D0     		beq	.L206
 2322              		.loc 1 414 0 is_stmt 0 discriminator 1
 2323 00bc 0021     		movs	r1, #0
 2324 00be 4C4A     		ldr	r2, .L222+8
 2325 00c0 D160     		str	r1, [r2, #12]
 2326              	.L206:
 415:main.c        ****                 if(check[2] != 'T'){ pass = 0;}
 2327              		.loc 1 415 0 is_stmt 1
 2328 00c2 4B4A     		ldr	r2, .L222+8
 2329 00c4 927E     		ldrb	r2, [r2, #26]	@ zero_extendqisi2
 2330 00c6 542A     		cmp	r2, #84
 2331 00c8 02D0     		beq	.L204
 2332              		.loc 1 415 0 is_stmt 0 discriminator 1
 2333 00ca 0021     		movs	r1, #0
 2334 00cc 484A     		ldr	r2, .L222+8
 2335 00ce D160     		str	r1, [r2, #12]
 2336              	.L204:
 416:main.c        ****             }
 417:main.c        ****             if((foo == 'F')&&(cs==6)&&(pass == 1)&&(comas == max_comas)){
 2337              		.loc 1 417 0 is_stmt 1
 2338 00d0 4628     		cmp	r0, #70
 2339 00d2 1DD1     		bne	.L207
 2340              		.loc 1 417 0 is_stmt 0 discriminator 1
 2341 00d4 062B     		cmp	r3, #6
 2342 00d6 1BD1     		bne	.L207
 2343              		.loc 1 417 0 discriminator 2
 2344 00d8 454B     		ldr	r3, .L222+8
 2345 00da DB68     		ldr	r3, [r3, #12]
ARM GAS  C:\Users\isaac\AppData\Local\Temp\cc1fpKCw.s 			page 58


 2346 00dc 012B     		cmp	r3, #1
 2347 00de 17D1     		bne	.L207
 2348              		.loc 1 417 0 discriminator 3
 2349 00e0 424B     		ldr	r3, .L222+4
 2350 00e2 5A6A     		ldr	r2, [r3, #36]
 2351 00e4 9B6A     		ldr	r3, [r3, #40]
 2352 00e6 9A42     		cmp	r2, r3
 2353 00e8 12D1     		bne	.L207
 418:main.c        ****                  read = 0;
 2354              		.loc 1 418 0 is_stmt 1
 2355 00ea 0022     		movs	r2, #0
 2356 00ec 404B     		ldr	r3, .L222+8
 2357 00ee 1A61     		str	r2, [r3, #16]
 2358              	.LVL228:
 2359              	.LBB45:
 419:main.c        ****                 for(int i = 0; i < 7; i++){
 2360              		.loc 1 419 0
 2361 00f0 05E0     		b	.L208
 2362              	.LVL229:
 2363              	.L209:
 420:main.c        ****                     codigo[i] = check[i];
 2364              		.loc 1 420 0 discriminator 3
 2365 00f2 3F4B     		ldr	r3, .L222+8
 2366 00f4 1344     		add	r3, r3, r2
 2367 00f6 197E     		ldrb	r1, [r3, #24]	@ zero_extendqisi2
 2368 00f8 83F83810 		strb	r1, [r3, #56]
 419:main.c        ****                 for(int i = 0; i < 7; i++){
 2369              		.loc 1 419 0 discriminator 3
 2370 00fc 0132     		adds	r2, r2, #1
 2371              	.LVL230:
 2372              	.L208:
 419:main.c        ****                 for(int i = 0; i < 7; i++){
 2373              		.loc 1 419 0 is_stmt 0 discriminator 1
 2374 00fe 062A     		cmp	r2, #6
 2375 0100 F7DD     		ble	.L209
 2376              	.LBE45:
 421:main.c        ****                 }
 422:main.c        ****                 change_dir(codigo[4]);
 2377              		.loc 1 422 0 is_stmt 1
 2378 0102 3B4C     		ldr	r4, .L222+8
 2379 0104 94F83C00 		ldrb	r0, [r4, #60]	@ zero_extendqisi2
 2380 0108 FFF7FEFF 		bl	change_dir
 2381              	.LVL231:
 423:main.c        ****                 com_state = 'x';
 2382              		.loc 1 423 0
 2383 010c 7823     		movs	r3, #120
 2384 010e 2375     		strb	r3, [r4, #20]
 2385              	.L207:
 424:main.c        ****             }
 425:main.c        ****             cs++;
 2386              		.loc 1 425 0
 2387 0110 364A     		ldr	r2, .L222+4
 2388 0112 136A     		ldr	r3, [r2, #32]
 2389 0114 0133     		adds	r3, r3, #1
 2390 0116 1362     		str	r3, [r2, #32]
 426:main.c        ****             break;
 2391              		.loc 1 426 0
ARM GAS  C:\Users\isaac\AppData\Local\Temp\cc1fpKCw.s 			page 59


 2392 0118 62E0     		b	.L196
 2393              	.L198:
 427:main.c        ****             case 'n':
 428:main.c        ****                 if(foo == ','){
 2394              		.loc 1 428 0
 2395 011a 2C28     		cmp	r0, #44
 2396 011c 03D1     		bne	.L210
 429:main.c        ****                     comas++;
 2397              		.loc 1 429 0
 2398 011e 334A     		ldr	r2, .L222+4
 2399 0120 536A     		ldr	r3, [r2, #36]
 2400 0122 0133     		adds	r3, r3, #1
 2401 0124 5362     		str	r3, [r2, #36]
 2402              	.L210:
 430:main.c        ****                 }
 431:main.c        ****                 if(read == 1){
 2403              		.loc 1 431 0
 2404 0126 324B     		ldr	r3, .L222+8
 2405 0128 1B69     		ldr	r3, [r3, #16]
 2406 012a 012B     		cmp	r3, #1
 2407 012c 04D1     		bne	.L211
 432:main.c        ****                  check[cs] = foo;
 2408              		.loc 1 432 0
 2409 012e 2F4B     		ldr	r3, .L222+4
 2410 0130 1B6A     		ldr	r3, [r3, #32]
 2411 0132 2F4A     		ldr	r2, .L222+8
 2412 0134 1344     		add	r3, r3, r2
 2413 0136 1876     		strb	r0, [r3, #24]
 2414              	.L211:
 433:main.c        ****                 }
 434:main.c        ****                 if(cs == 3){
 2415              		.loc 1 434 0
 2416 0138 2C4B     		ldr	r3, .L222+4
 2417 013a 1B6A     		ldr	r3, [r3, #32]
 2418 013c 032B     		cmp	r3, #3
 2419 013e 14D1     		bne	.L212
 435:main.c        ****                     if(check[0] != 'J'){ pass = 0;}
 2420              		.loc 1 435 0
 2421 0140 2B4A     		ldr	r2, .L222+8
 2422 0142 127E     		ldrb	r2, [r2, #24]	@ zero_extendqisi2
 2423 0144 4A2A     		cmp	r2, #74
 2424 0146 02D0     		beq	.L213
 2425              		.loc 1 435 0 is_stmt 0 discriminator 1
 2426 0148 0021     		movs	r1, #0
 2427 014a 294A     		ldr	r2, .L222+8
 2428 014c D160     		str	r1, [r2, #12]
 2429              	.L213:
 436:main.c        ****                     if(check[1] != 'K'){ pass = 0;}
 2430              		.loc 1 436 0 is_stmt 1
 2431 014e 284A     		ldr	r2, .L222+8
 2432 0150 527E     		ldrb	r2, [r2, #25]	@ zero_extendqisi2
 2433 0152 4B2A     		cmp	r2, #75
 2434 0154 02D0     		beq	.L214
 2435              		.loc 1 436 0 is_stmt 0 discriminator 1
 2436 0156 0021     		movs	r1, #0
 2437 0158 254A     		ldr	r2, .L222+8
 2438 015a D160     		str	r1, [r2, #12]
ARM GAS  C:\Users\isaac\AppData\Local\Temp\cc1fpKCw.s 			page 60


 2439              	.L214:
 437:main.c        ****                     if(check[2] != 'L'){ pass = 0;}
 2440              		.loc 1 437 0 is_stmt 1
 2441 015c 244A     		ldr	r2, .L222+8
 2442 015e 927E     		ldrb	r2, [r2, #26]	@ zero_extendqisi2
 2443 0160 4C2A     		cmp	r2, #76
 2444 0162 02D0     		beq	.L212
 2445              		.loc 1 437 0 is_stmt 0 discriminator 1
 2446 0164 0021     		movs	r1, #0
 2447 0166 224A     		ldr	r2, .L222+8
 2448 0168 D160     		str	r1, [r2, #12]
 2449              	.L212:
 438:main.c        ****                 }
 439:main.c        ****                 if(cs == 17){
 2450              		.loc 1 439 0 is_stmt 1
 2451 016a 112B     		cmp	r3, #17
 2452 016c 14D1     		bne	.L215
 440:main.c        ****                     if(check[0] != 'J'){ pass = 0;}
 2453              		.loc 1 440 0
 2454 016e 204A     		ldr	r2, .L222+8
 2455 0170 127E     		ldrb	r2, [r2, #24]	@ zero_extendqisi2
 2456 0172 4A2A     		cmp	r2, #74
 2457 0174 02D0     		beq	.L216
 2458              		.loc 1 440 0 is_stmt 0 discriminator 1
 2459 0176 0021     		movs	r1, #0
 2460 0178 1D4A     		ldr	r2, .L222+8
 2461 017a D160     		str	r1, [r2, #12]
 2462              	.L216:
 441:main.c        ****                     if(check[1] != 'K'){ pass = 0;}
 2463              		.loc 1 441 0 is_stmt 1
 2464 017c 1C4A     		ldr	r2, .L222+8
 2465 017e 527E     		ldrb	r2, [r2, #25]	@ zero_extendqisi2
 2466 0180 4B2A     		cmp	r2, #75
 2467 0182 02D0     		beq	.L217
 2468              		.loc 1 441 0 is_stmt 0 discriminator 1
 2469 0184 0021     		movs	r1, #0
 2470 0186 1A4A     		ldr	r2, .L222+8
 2471 0188 D160     		str	r1, [r2, #12]
 2472              	.L217:
 442:main.c        ****                     if(check[2] != 'L'){ pass = 0;}
 2473              		.loc 1 442 0 is_stmt 1
 2474 018a 194A     		ldr	r2, .L222+8
 2475 018c 927E     		ldrb	r2, [r2, #26]	@ zero_extendqisi2
 2476 018e 4C2A     		cmp	r2, #76
 2477 0190 02D0     		beq	.L215
 2478              		.loc 1 442 0 is_stmt 0 discriminator 1
 2479 0192 0021     		movs	r1, #0
 2480 0194 164A     		ldr	r2, .L222+8
 2481 0196 D160     		str	r1, [r2, #12]
 2482              	.L215:
 443:main.c        ****                 }
 444:main.c        ****                 if((foo == 'F')&&(cs==16)&&(pass == 1)&&(comas == max_comas)){
 2483              		.loc 1 444 0 is_stmt 1
 2484 0198 4628     		cmp	r0, #70
 2485 019a 1DD1     		bne	.L218
 2486              		.loc 1 444 0 is_stmt 0 discriminator 1
 2487 019c 102B     		cmp	r3, #16
ARM GAS  C:\Users\isaac\AppData\Local\Temp\cc1fpKCw.s 			page 61


 2488 019e 1BD1     		bne	.L218
 2489              		.loc 1 444 0 discriminator 2
 2490 01a0 134B     		ldr	r3, .L222+8
 2491 01a2 DB68     		ldr	r3, [r3, #12]
 2492 01a4 012B     		cmp	r3, #1
 2493 01a6 17D1     		bne	.L218
 2494              		.loc 1 444 0 discriminator 3
 2495 01a8 104B     		ldr	r3, .L222+4
 2496 01aa 5A6A     		ldr	r2, [r3, #36]
 2497 01ac 9B6A     		ldr	r3, [r3, #40]
 2498 01ae 9A42     		cmp	r2, r3
 2499 01b0 12D1     		bne	.L218
 445:main.c        ****                      read = 0;
 2500              		.loc 1 445 0 is_stmt 1
 2501 01b2 0022     		movs	r2, #0
 2502 01b4 0E4B     		ldr	r3, .L222+8
 2503 01b6 1A61     		str	r2, [r3, #16]
 2504              	.LVL232:
 2505              	.LBB46:
 446:main.c        ****                     for(int i = 0; i < 17; i++){
 2506              		.loc 1 446 0
 2507 01b8 05E0     		b	.L219
 2508              	.LVL233:
 2509              	.L220:
 447:main.c        ****                         codigo[i] = check[i];
 2510              		.loc 1 447 0 discriminator 3
 2511 01ba 0D4B     		ldr	r3, .L222+8
 2512 01bc 1344     		add	r3, r3, r2
 2513 01be 197E     		ldrb	r1, [r3, #24]	@ zero_extendqisi2
 2514 01c0 83F83810 		strb	r1, [r3, #56]
 446:main.c        ****                     for(int i = 0; i < 17; i++){
 2515              		.loc 1 446 0 discriminator 3
 2516 01c4 0132     		adds	r2, r2, #1
 2517              	.LVL234:
 2518              	.L219:
 446:main.c        ****                     for(int i = 0; i < 17; i++){
 2519              		.loc 1 446 0 is_stmt 0 discriminator 1
 2520 01c6 102A     		cmp	r2, #16
 2521 01c8 F7DD     		ble	.L220
 2522              	.LBE46:
 448:main.c        ****                     }
 449:main.c        ****                     Names_Recieved(codigo);
 2523              		.loc 1 449 0 is_stmt 1
 2524 01ca 094C     		ldr	r4, .L222+8
 2525 01cc 04F13800 		add	r0, r4, #56
 2526 01d0 FFF7FEFF 		bl	Names_Recieved
 2527              	.LVL235:
 450:main.c        ****                     com_state = 'x';
 2528              		.loc 1 450 0
 2529 01d4 7823     		movs	r3, #120
 2530 01d6 2375     		strb	r3, [r4, #20]
 2531              	.L218:
 451:main.c        ****                 }
 452:main.c        ****                 cs++;
 2532              		.loc 1 452 0
 2533 01d8 044A     		ldr	r2, .L222+4
 2534 01da 136A     		ldr	r3, [r2, #32]
ARM GAS  C:\Users\isaac\AppData\Local\Temp\cc1fpKCw.s 			page 62


 2535 01dc 0133     		adds	r3, r3, #1
 2536 01de 1362     		str	r3, [r2, #32]
 2537              	.L196:
 453:main.c        ****                 break;
 454:main.c        ****             default:
 455:main.c        ****                 break;
 456:main.c        ****         }
 457:main.c        ****    
 458:main.c        ****     com_ClearPending();
 2538              		.loc 1 458 0
 2539 01e0 FFF7FEFF 		bl	com_ClearPending
 2540              	.LVL236:
 2541 01e4 10BD     		pop	{r4, pc}
 2542              	.L223:
 2543 01e6 00BF     		.align	2
 2544              	.L222:
 2545 01e8 00000000 		.word	foo
 2546 01ec 00000000 		.word	.LANCHOR1
 2547 01f0 00000000 		.word	.LANCHOR0
 2548              		.cfi_endproc
 2549              	.LFE90:
 2550              		.size	com_handler, .-com_handler
 2551              		.section	.text.UpdateStatus,"ax",%progbits
 2552              		.align	2
 2553              		.global	UpdateStatus
 2554              		.thumb
 2555              		.thumb_func
 2556              		.type	UpdateStatus, %function
 2557              	UpdateStatus:
 2558              	.LFB89:
 374:main.c        ****     char mesage[24];
 2559              		.loc 1 374 0
 2560              		.cfi_startproc
 2561              		@ args = 0, pretend = 0, frame = 24
 2562              		@ frame_needed = 0, uses_anonymous_args = 0
 2563 0000 00B5     		push	{lr}
 2564              		.cfi_def_cfa_offset 4
 2565              		.cfi_offset 14, -4
 2566 0002 87B0     		sub	sp, sp, #28
 2567              		.cfi_def_cfa_offset 32
 376:main.c        ****     UART_PutString(mesage);
 2568              		.loc 1 376 0
 2569 0004 054B     		ldr	r3, .L226
 2570 0006 1A78     		ldrb	r2, [r3]	@ zero_extendqisi2
 2571 0008 0549     		ldr	r1, .L226+4
 2572 000a 6846     		mov	r0, sp
 2573 000c FFF7FEFF 		bl	sprintf
 2574              	.LVL237:
 377:main.c        **** }
 2575              		.loc 1 377 0
 2576 0010 6846     		mov	r0, sp
 2577 0012 FFF7FEFF 		bl	UART_PutString
 2578              	.LVL238:
 378:main.c        **** 
 2579              		.loc 1 378 0
 2580 0016 07B0     		add	sp, sp, #28
 2581              		.cfi_def_cfa_offset 4
ARM GAS  C:\Users\isaac\AppData\Local\Temp\cc1fpKCw.s 			page 63


 2582              		@ sp needed
 2583 0018 5DF804FB 		ldr	pc, [sp], #4
 2584              	.L227:
 2585              		.align	2
 2586              	.L226:
 2587 001c 00000000 		.word	.LANCHOR0
 2588 0020 08000000 		.word	.LC1
 2589              		.cfi_endproc
 2590              	.LFE89:
 2591              		.size	UpdateStatus, .-UpdateStatus
 2592              		.section	.text.main,"ax",%progbits
 2593              		.align	2
 2594              		.global	main
 2595              		.thumb
 2596              		.thumb_func
 2597              		.type	main, %function
 2598              	main:
 2599              	.LFB77:
  71:main.c        ****     CyGlobalIntEnable; 
 2600              		.loc 1 71 0
 2601              		.cfi_startproc
 2602              		@ args = 0, pretend = 0, frame = 0
 2603              		@ frame_needed = 0, uses_anonymous_args = 0
 2604 0000 38B5     		push	{r3, r4, r5, lr}
 2605              		.cfi_def_cfa_offset 16
 2606              		.cfi_offset 3, -16
 2607              		.cfi_offset 4, -12
 2608              		.cfi_offset 5, -8
 2609              		.cfi_offset 14, -4
  72:main.c        ****     //Inits of the modules
 2610              		.loc 1 72 0
 2611              		.syntax unified
 2612              	@ 72 "main.c" 1
 2613 0002 62B6     		CPSIE   i
 2614              	@ 0 "" 2
  74:main.c        ****     LCD_Start();
 2615              		.loc 1 74 0
 2616              		.thumb
 2617              		.syntax unified
 2618 0004 FFF7FEFF 		bl	EEPROM_Start
 2619              	.LVL239:
  75:main.c        ****     Timer_Seed_Start();
 2620              		.loc 1 75 0
 2621 0008 FFF7FEFF 		bl	LCD_Start
 2622              	.LVL240:
  76:main.c        ****     UART_Start();
 2623              		.loc 1 76 0
 2624 000c FFF7FEFF 		bl	Timer_Seed_Start
 2625              	.LVL241:
  77:main.c        ****     //ISR
 2626              		.loc 1 77 0
 2627 0010 FFF7FEFF 		bl	UART_Start
 2628              	.LVL242:
  79:main.c        ****     isr_PAUSE_StartEx(pause_handler);
 2629              		.loc 1 79 0
 2630 0014 A748     		ldr	r0, .L257
 2631 0016 FFF7FEFF 		bl	com_StartEx
ARM GAS  C:\Users\isaac\AppData\Local\Temp\cc1fpKCw.s 			page 64


 2632              	.LVL243:
  80:main.c        ****     isr_RESUME_StartEx(resume_handler);
 2633              		.loc 1 80 0
 2634 001a A748     		ldr	r0, .L257+4
 2635 001c FFF7FEFF 		bl	isr_PAUSE_StartEx
 2636              	.LVL244:
  81:main.c        ****     isr_REAL_StartEx(real_handler);
 2637              		.loc 1 81 0
 2638 0020 A648     		ldr	r0, .L257+8
 2639 0022 FFF7FEFF 		bl	isr_RESUME_StartEx
 2640              	.LVL245:
  82:main.c        ****     isr_TIC_StartEx(tic_handler);
 2641              		.loc 1 82 0
 2642 0026 A648     		ldr	r0, .L257+12
 2643 0028 FFF7FEFF 		bl	isr_REAL_StartEx
 2644              	.LVL246:
  83:main.c        ****     //Randomizations
 2645              		.loc 1 83 0
 2646 002c A548     		ldr	r0, .L257+16
 2647 002e FFF7FEFF 		bl	isr_TIC_StartEx
 2648              	.LVL247:
  85:main.c        ****     Timer_Seed_Stop();
 2649              		.loc 1 85 0
 2650 0032 FFF7FEFF 		bl	Timer_Seed_ReadCounter
 2651              	.LVL248:
 2652 0036 FFF7FEFF 		bl	srand
 2653              	.LVL249:
  86:main.c        ****     
 2654              		.loc 1 86 0
 2655 003a FFF7FEFF 		bl	Timer_Seed_Stop
 2656              	.LVL250:
 2657              	.L230:
  91:main.c        ****             case 'h':
 2658              		.loc 1 91 0
 2659 003e A24B     		ldr	r3, .L257+20
 2660 0040 1B78     		ldrb	r3, [r3]	@ zero_extendqisi2
 2661 0042 633B     		subs	r3, r3, #99
 2662 0044 102B     		cmp	r3, #16
 2663 0046 FAD8     		bhi	.L230
 2664 0048 01A2     		adr	r2, .L232
 2665 004a 52F823F0 		ldr	pc, [r2, r3, lsl #2]
 2666 004e 00BF     		.p2align 2
 2667              	.L232:
 2668 0050 25020000 		.word	.L231+1
 2669 0054 3F000000 		.word	.L230+1
 2670 0058 B1010000 		.word	.L233+1
 2671 005c 3F000000 		.word	.L230+1
 2672 0060 3F000000 		.word	.L230+1
 2673 0064 95000000 		.word	.L234+1
 2674 0068 3F000000 		.word	.L230+1
 2675 006c 3F000000 		.word	.L230+1
 2676 0070 3F000000 		.word	.L230+1
 2677 0074 3F000000 		.word	.L230+1
 2678 0078 01020000 		.word	.L235+1
 2679 007c 3F000000 		.word	.L230+1
 2680 0080 3F000000 		.word	.L230+1
 2681 0084 11010000 		.word	.L236+1
ARM GAS  C:\Users\isaac\AppData\Local\Temp\cc1fpKCw.s 			page 65


 2682 0088 3F000000 		.word	.L230+1
 2683 008c 3F000000 		.word	.L230+1
 2684 0090 BD000000 		.word	.L237+1
 2685              		.p2align 1
 2686              	.L234:
 2687              	.LBB47:
  94:main.c        ****                 int flag = 0;
 2688              		.loc 1 94 0
 2689 0094 FFF7FEFF 		bl	ReadScores
 2690              	.LVL251:
 2691              	.LBB48:
  96:main.c        ****                     if(players[0].name[i] == 0){
 2692              		.loc 1 96 0
 2693 0098 0023     		movs	r3, #0
 2694 009a 03E0     		b	.L238
 2695              	.LVL252:
 2696              	.L240:
  97:main.c        ****                         flag = 1;
 2697              		.loc 1 97 0
 2698 009c 8B4A     		ldr	r2, .L257+24
 2699 009e D25C     		ldrb	r2, [r2, r3]	@ zero_extendqisi2
 2700 00a0 22B1     		cbz	r2, .L255
  96:main.c        ****                     if(players[0].name[i] == 0){
 2701              		.loc 1 96 0 discriminator 2
 2702 00a2 0133     		adds	r3, r3, #1
 2703              	.LVL253:
 2704              	.L238:
  96:main.c        ****                     if(players[0].name[i] == 0){
 2705              		.loc 1 96 0 is_stmt 0 discriminator 1
 2706 00a4 042B     		cmp	r3, #4
 2707 00a6 F9DD     		ble	.L240
 2708              	.LBE48:
  95:main.c        ****                 for(int i = 0; i < 5; i++){
 2709              		.loc 1 95 0 is_stmt 1
 2710 00a8 0023     		movs	r3, #0
 2711              	.LVL254:
 2712              	.LBB49:
 2713 00aa 00E0     		b	.L239
 2714              	.LVL255:
 2715              	.L255:
  98:main.c        ****                         break;
 2716              		.loc 1 98 0
 2717 00ac 0123     		movs	r3, #1
 2718              	.LVL256:
 2719              	.L239:
 2720              	.LBE49:
 102:main.c        ****                     EepromFirstInit();
 2721              		.loc 1 102 0
 2722 00ae 0BB1     		cbz	r3, .L241
 103:main.c        ****                 }
 2723              		.loc 1 103 0
 2724 00b0 FFF7FEFF 		bl	EepromFirstInit
 2725              	.LVL257:
 2726              	.L241:
 105:main.c        ****                 break;
 2727              		.loc 1 105 0
 2728 00b4 7322     		movs	r2, #115
ARM GAS  C:\Users\isaac\AppData\Local\Temp\cc1fpKCw.s 			page 66


 2729 00b6 844B     		ldr	r3, .L257+20
 2730 00b8 1A70     		strb	r2, [r3]
 106:main.c        ****             case 's':
 2731              		.loc 1 106 0
 2732 00ba C0E7     		b	.L230
 2733              	.L237:
 109:main.c        ****                 Start_Snake(SnakeBoard);
 2734              		.loc 1 109 0
 2735 00bc 0120     		movs	r0, #1
 2736 00be FFF7FEFF 		bl	LCD_WriteControl
 2737              	.LVL258:
 110:main.c        ****                 LCD_Position(0,0);
 2738              		.loc 1 110 0
 2739 00c2 8348     		ldr	r0, .L257+28
 2740 00c4 FFF7FEFF 		bl	Start_Snake
 2741              	.LVL259:
 111:main.c        ****                 LCD_PrintString("Waiting For");
 2742              		.loc 1 111 0
 2743 00c8 0021     		movs	r1, #0
 2744 00ca 0846     		mov	r0, r1
 2745 00cc FFF7FEFF 		bl	LCD_Position
 2746              	.LVL260:
 112:main.c        ****                 LCD_Position(1,0);
 2747              		.loc 1 112 0
 2748 00d0 8048     		ldr	r0, .L257+32
 2749 00d2 FFF7FEFF 		bl	LCD_PrintString
 2750              	.LVL261:
 113:main.c        ****                 LCD_PrintString("Names To Start");
 2751              		.loc 1 113 0
 2752 00d6 0021     		movs	r1, #0
 2753 00d8 0120     		movs	r0, #1
 2754 00da FFF7FEFF 		bl	LCD_Position
 2755              	.LVL262:
 114:main.c        ****                 
 2756              		.loc 1 114 0
 2757 00de 7E48     		ldr	r0, .L257+36
 2758 00e0 FFF7FEFF 		bl	LCD_PrintString
 2759              	.LVL263:
 117:main.c        ****                 
 2760              		.loc 1 117 0
 2761 00e4 02E0     		b	.L243
 2762              	.L244:
 117:main.c        ****                 
 2763              		.loc 1 117 0 is_stmt 0 discriminator 2
 2764 00e6 0520     		movs	r0, #5
 2765 00e8 FFF7FEFF 		bl	CyDelay
 2766              	.LVL264:
 2767              	.L243:
 117:main.c        ****                 
 2768              		.loc 1 117 0 discriminator 1
 2769 00ec 7B4B     		ldr	r3, .L257+40
 2770 00ee DB69     		ldr	r3, [r3, #28]
 2771 00f0 002B     		cmp	r3, #0
 2772 00f2 F8D0     		beq	.L244
 120:main.c        ****                 Timer_Tic_Start();
 2773              		.loc 1 120 0 is_stmt 1
 2774 00f4 FFF7FEFF 		bl	Animation
ARM GAS  C:\Users\isaac\AppData\Local\Temp\cc1fpKCw.s 			page 67


 2775              	.LVL265:
 121:main.c        ****                 Timer_Tic_WritePeriod(1000);
 2776              		.loc 1 121 0
 2777 00f8 FFF7FEFF 		bl	Timer_Tic_Start
 2778              	.LVL266:
 122:main.c        ****                 
 2779              		.loc 1 122 0
 2780 00fc 4FF47A70 		mov	r0, #1000
 2781 0100 FFF7FEFF 		bl	Timer_Tic_WritePeriod
 2782              	.LVL267:
 124:main.c        ****                 UpdateStatus();
 2783              		.loc 1 124 0
 2784 0104 6722     		movs	r2, #103
 2785 0106 704B     		ldr	r3, .L257+20
 2786 0108 1A70     		strb	r2, [r3]
 125:main.c        ****                 break;
 2787              		.loc 1 125 0
 2788 010a FFF7FEFF 		bl	UpdateStatus
 2789              	.LVL268:
 126:main.c        ****             case 'p':
 2790              		.loc 1 126 0
 2791 010e 96E7     		b	.L230
 2792              	.L236:
 129:main.c        ****                 Animation();
 2793              		.loc 1 129 0
 2794 0110 FFF7FEFF 		bl	Timer_Tic_Sleep
 2795              	.LVL269:
 130:main.c        ****                 Timer_Real_Start();
 2796              		.loc 1 130 0
 2797 0114 FFF7FEFF 		bl	Animation
 2798              	.LVL270:
 131:main.c        ****                 time_paused = 0;
 2799              		.loc 1 131 0
 2800 0118 FFF7FEFF 		bl	Timer_Real_Start
 2801              	.LVL271:
 132:main.c        ****                 period_offs_old = 0;
 2802              		.loc 1 132 0
 2803 011c 6F4B     		ldr	r3, .L257+40
 2804 011e 0022     		movs	r2, #0
 2805 0120 5A60     		str	r2, [r3, #4]
 133:main.c        ****                 while(pause_status == 1){
 2806              		.loc 1 133 0
 2807 0122 DA62     		str	r2, [r3, #44]
 134:main.c        ****                     if(time_paused == 15){
 2808              		.loc 1 134 0
 2809 0124 34E0     		b	.L245
 2810              	.L248:
 135:main.c        ****                         LCD_Position(0,4);
 2811              		.loc 1 135 0
 2812 0126 6D4B     		ldr	r3, .L257+40
 2813 0128 5B68     		ldr	r3, [r3, #4]
 2814 012a 0F2B     		cmp	r3, #15
 2815 012c 20D1     		bne	.L246
 136:main.c        ****                         LCD_PrintString("SLEEP");
 2816              		.loc 1 136 0
 2817 012e 0421     		movs	r1, #4
 2818 0130 0020     		movs	r0, #0
ARM GAS  C:\Users\isaac\AppData\Local\Temp\cc1fpKCw.s 			page 68


 2819 0132 FFF7FEFF 		bl	LCD_Position
 2820              	.LVL272:
 137:main.c        ****                         CyDelay(250);
 2821              		.loc 1 137 0
 2822 0136 6A48     		ldr	r0, .L257+44
 2823 0138 FFF7FEFF 		bl	LCD_PrintString
 2824              	.LVL273:
 138:main.c        ****                         LCD_Sleep();
 2825              		.loc 1 138 0
 2826 013c FA20     		movs	r0, #250
 2827 013e FFF7FEFF 		bl	CyDelay
 2828              	.LVL274:
 139:main.c        ****                         UART_Sleep();
 2829              		.loc 1 139 0
 2830 0142 FFF7FEFF 		bl	LCD_Sleep
 2831              	.LVL275:
 140:main.c        ****                         //Timer_Tic_Sleep();
 2832              		.loc 1 140 0
 2833 0146 FFF7FEFF 		bl	UART_Sleep
 2834              	.LVL276:
 142:main.c        ****                         CyPmHibernate();
 2835              		.loc 1 142 0
 2836 014a FFF7FEFF 		bl	CyPmSaveClocks
 2837              	.LVL277:
 143:main.c        ****                         CyPmRestoreClocks();
 2838              		.loc 1 143 0
 2839 014e FFF7FEFF 		bl	CyPmHibernate
 2840              	.LVL278:
 144:main.c        ****                         UART_Wakeup();
 2841              		.loc 1 144 0
 2842 0152 FFF7FEFF 		bl	CyPmRestoreClocks
 2843              	.LVL279:
 145:main.c        ****                         LCD_Wakeup();
 2844              		.loc 1 145 0
 2845 0156 FFF7FEFF 		bl	UART_Wakeup
 2846              	.LVL280:
 146:main.c        ****                         time_paused = 0;
 2847              		.loc 1 146 0
 2848 015a FFF7FEFF 		bl	LCD_Wakeup
 2849              	.LVL281:
 147:main.c        ****                         state = 'g';
 2850              		.loc 1 147 0
 2851 015e 0022     		movs	r2, #0
 2852 0160 5E4B     		ldr	r3, .L257+40
 2853 0162 5A60     		str	r2, [r3, #4]
 148:main.c        ****                         Timer_Tic_Wakeup();
 2854              		.loc 1 148 0
 2855 0164 6722     		movs	r2, #103
 2856 0166 584B     		ldr	r3, .L257+20
 2857 0168 1A70     		strb	r2, [r3]
 149:main.c        ****                         break;
 2858              		.loc 1 149 0
 2859 016a FFF7FEFF 		bl	Timer_Tic_Wakeup
 2860              	.LVL282:
 150:main.c        ****                     }
 2861              		.loc 1 150 0
 2862 016e 13E0     		b	.L247
ARM GAS  C:\Users\isaac\AppData\Local\Temp\cc1fpKCw.s 			page 69


 2863              	.L246:
 152:main.c        ****                     LCD_PrintString("PAUSED");
 2864              		.loc 1 152 0
 2865 0170 0421     		movs	r1, #4
 2866 0172 0020     		movs	r0, #0
 2867 0174 FFF7FEFF 		bl	LCD_Position
 2868              	.LVL283:
 153:main.c        ****                     CyDelay(150);
 2869              		.loc 1 153 0
 2870 0178 5A48     		ldr	r0, .L257+48
 2871 017a FFF7FEFF 		bl	LCD_PrintString
 2872              	.LVL284:
 154:main.c        ****                     LCD_ClearDisplay();
 2873              		.loc 1 154 0
 2874 017e 9620     		movs	r0, #150
 2875 0180 FFF7FEFF 		bl	CyDelay
 2876              	.LVL285:
 155:main.c        ****                     CyDelay(150);
 2877              		.loc 1 155 0
 2878 0184 0120     		movs	r0, #1
 2879 0186 FFF7FEFF 		bl	LCD_WriteControl
 2880              	.LVL286:
 156:main.c        ****                 }
 2881              		.loc 1 156 0
 2882 018a 9620     		movs	r0, #150
 2883 018c FFF7FEFF 		bl	CyDelay
 2884              	.LVL287:
 2885              	.L245:
 134:main.c        ****                     if(time_paused == 15){
 2886              		.loc 1 134 0
 2887 0190 524B     		ldr	r3, .L257+40
 2888 0192 1B68     		ldr	r3, [r3]
 2889 0194 012B     		cmp	r3, #1
 2890 0196 C6D0     		beq	.L248
 2891              	.L247:
 158:main.c        ****                 Animation();
 2892              		.loc 1 158 0
 2893 0198 FFF7FEFF 		bl	Timer_Real_Stop
 2894              	.LVL288:
 159:main.c        ****                 Timer_Tic_Wakeup();
 2895              		.loc 1 159 0
 2896 019c FFF7FEFF 		bl	Animation
 2897              	.LVL289:
 160:main.c        ****                 state = 'g';
 2898              		.loc 1 160 0
 2899 01a0 FFF7FEFF 		bl	Timer_Tic_Wakeup
 2900              	.LVL290:
 161:main.c        ****                 UpdateStatus();
 2901              		.loc 1 161 0
 2902 01a4 6722     		movs	r2, #103
 2903 01a6 484B     		ldr	r3, .L257+20
 2904 01a8 1A70     		strb	r2, [r3]
 162:main.c        ****                 break;
 2905              		.loc 1 162 0
 2906 01aa FFF7FEFF 		bl	UpdateStatus
 2907              	.LVL291:
 163:main.c        ****             case 'g':
ARM GAS  C:\Users\isaac\AppData\Local\Temp\cc1fpKCw.s 			page 70


 2908              		.loc 1 163 0
 2909 01ae 46E7     		b	.L230
 2910              	.L233:
 169:main.c        ****                 LCD_Position(0,3);
 2911              		.loc 1 169 0
 2912 01b0 FFF7FEFF 		bl	Animation
 2913              	.LVL292:
 170:main.c        ****                 LCD_PrintString("Game Over");
 2914              		.loc 1 170 0
 2915 01b4 0321     		movs	r1, #3
 2916 01b6 0020     		movs	r0, #0
 2917 01b8 FFF7FEFF 		bl	LCD_Position
 2918              	.LVL293:
 171:main.c        ****                 LCD_Position(1,0);
 2919              		.loc 1 171 0
 2920 01bc 4A48     		ldr	r0, .L257+52
 2921 01be FFF7FEFF 		bl	LCD_PrintString
 2922              	.LVL294:
 172:main.c        ****                 LCD_PrintString(cur_name);
 2923              		.loc 1 172 0
 2924 01c2 0021     		movs	r1, #0
 2925 01c4 0120     		movs	r0, #1
 2926 01c6 FFF7FEFF 		bl	LCD_Position
 2927              	.LVL295:
 173:main.c        ****                 LCD_Position(1,6);
 2928              		.loc 1 173 0
 2929 01ca 3F4C     		ldr	r4, .L257+20
 2930 01cc 201D     		adds	r0, r4, #4
 2931 01ce FFF7FEFF 		bl	LCD_PrintString
 2932              	.LVL296:
 174:main.c        ****                 LCD_PrintString("SC:");
 2933              		.loc 1 174 0
 2934 01d2 0621     		movs	r1, #6
 2935 01d4 0120     		movs	r0, #1
 2936 01d6 FFF7FEFF 		bl	LCD_Position
 2937              	.LVL297:
 175:main.c        ****                 LCD_Position(1,9);
 2938              		.loc 1 175 0
 2939 01da 4448     		ldr	r0, .L257+56
 2940 01dc FFF7FEFF 		bl	LCD_PrintString
 2941              	.LVL298:
 176:main.c        ****                 LCD_PrintNumber(match_score);
 2942              		.loc 1 176 0
 2943 01e0 0921     		movs	r1, #9
 2944 01e2 0120     		movs	r0, #1
 2945 01e4 FFF7FEFF 		bl	LCD_Position
 2946              	.LVL299:
 177:main.c        ****                 CyDelay(50);
 2947              		.loc 1 177 0
 2948 01e8 3C4B     		ldr	r3, .L257+40
 2949 01ea 1889     		ldrh	r0, [r3, #8]
 2950 01ec FFF7FEFF 		bl	LCD_PrintU32Number
 2951              	.LVL300:
 178:main.c        ****                 state = 'c';
 2952              		.loc 1 178 0
 2953 01f0 3220     		movs	r0, #50
 2954 01f2 FFF7FEFF 		bl	CyDelay
ARM GAS  C:\Users\isaac\AppData\Local\Temp\cc1fpKCw.s 			page 71


 2955              	.LVL301:
 179:main.c        ****                 UpdateStatus();
 2956              		.loc 1 179 0
 2957 01f6 6323     		movs	r3, #99
 2958 01f8 2370     		strb	r3, [r4]
 180:main.c        ****                 break;
 2959              		.loc 1 180 0
 2960 01fa FFF7FEFF 		bl	UpdateStatus
 2961              	.LVL302:
 181:main.c        ****             case 'm':
 2962              		.loc 1 181 0
 2963 01fe 1EE7     		b	.L230
 2964              	.L235:
 184:main.c        ****                 LCD_Position(0,0);
 2965              		.loc 1 184 0
 2966 0200 FFF7FEFF 		bl	Animation
 2967              	.LVL303:
 185:main.c        ****                 LCD_PrintString("Max Score Achived!");
 2968              		.loc 1 185 0
 2969 0204 0021     		movs	r1, #0
 2970 0206 0846     		mov	r0, r1
 2971 0208 FFF7FEFF 		bl	LCD_Position
 2972              	.LVL304:
 186:main.c        ****                 CyDelay(50);
 2973              		.loc 1 186 0
 2974 020c 3848     		ldr	r0, .L257+60
 2975 020e FFF7FEFF 		bl	LCD_PrintString
 2976              	.LVL305:
 187:main.c        ****                 state = 'c';
 2977              		.loc 1 187 0
 2978 0212 3220     		movs	r0, #50
 2979 0214 FFF7FEFF 		bl	CyDelay
 2980              	.LVL306:
 188:main.c        ****                 UpdateStatus();
 2981              		.loc 1 188 0
 2982 0218 6322     		movs	r2, #99
 2983 021a 2B4B     		ldr	r3, .L257+20
 2984 021c 1A70     		strb	r2, [r3]
 189:main.c        ****                 break;
 2985              		.loc 1 189 0
 2986 021e FFF7FEFF 		bl	UpdateStatus
 2987              	.LVL307:
 190:main.c        ****             case 'c':
 2988              		.loc 1 190 0
 2989 0222 0CE7     		b	.L230
 2990              	.L231:
 193:main.c        ****                     WriteNewScores();
 2991              		.loc 1 193 0
 2992 0224 FFF7FEFF 		bl	UpdateFirstPlace
 2993              	.LVL308:
 2994 0228 18B1     		cbz	r0, .L249
 194:main.c        ****                     ReadScores();
 2995              		.loc 1 194 0
 2996 022a FFF7FEFF 		bl	WriteNewScores
 2997              	.LVL309:
 195:main.c        ****                 }
 2998              		.loc 1 195 0
ARM GAS  C:\Users\isaac\AppData\Local\Temp\cc1fpKCw.s 			page 72


 2999 022e FFF7FEFF 		bl	ReadScores
 3000              	.LVL310:
 3001              	.L249:
  95:main.c        ****                 for(int i = 0; i < 5; i++){
 3002              		.loc 1 95 0 discriminator 1
 3003 0232 0024     		movs	r4, #0
 3004 0234 33E0     		b	.L250
 3005              	.LVL311:
 3006              	.L254:
 3007              	.LBB50:
 198:main.c        ****                 LCD_Position(0,0);
 3008              		.loc 1 198 0
 3009 0236 0120     		movs	r0, #1
 3010 0238 FFF7FEFF 		bl	LCD_WriteControl
 3011              	.LVL312:
 199:main.c        ****                 if(i == 0){LCD_PrintString("First Place:");}
 3012              		.loc 1 199 0
 3013 023c 0021     		movs	r1, #0
 3014 023e 0846     		mov	r0, r1
 3015 0240 FFF7FEFF 		bl	LCD_Position
 3016              	.LVL313:
 200:main.c        ****                 if(i == 1){LCD_PrintString("Second Place:");}
 3017              		.loc 1 200 0
 3018 0244 14B9     		cbnz	r4, .L251
 200:main.c        ****                 if(i == 1){LCD_PrintString("Second Place:");}
 3019              		.loc 1 200 0 is_stmt 0 discriminator 1
 3020 0246 2B48     		ldr	r0, .L257+64
 3021 0248 FFF7FEFF 		bl	LCD_PrintString
 3022              	.LVL314:
 3023              	.L251:
 201:main.c        ****                 if(i == 2){LCD_PrintString("Third Place:");}
 3024              		.loc 1 201 0 is_stmt 1
 3025 024c 012C     		cmp	r4, #1
 3026 024e 02D1     		bne	.L252
 201:main.c        ****                 if(i == 2){LCD_PrintString("Third Place:");}
 3027              		.loc 1 201 0 is_stmt 0 discriminator 1
 3028 0250 2948     		ldr	r0, .L257+68
 3029 0252 FFF7FEFF 		bl	LCD_PrintString
 3030              	.LVL315:
 3031              	.L252:
 202:main.c        ****                 LCD_Position(1,0);
 3032              		.loc 1 202 0 is_stmt 1
 3033 0256 022C     		cmp	r4, #2
 3034 0258 02D1     		bne	.L253
 202:main.c        ****                 LCD_Position(1,0);
 3035              		.loc 1 202 0 is_stmt 0 discriminator 1
 3036 025a 2848     		ldr	r0, .L257+72
 3037 025c FFF7FEFF 		bl	LCD_PrintString
 3038              	.LVL316:
 3039              	.L253:
 203:main.c        ****                 LCD_PrintString(players[i].name);
 3040              		.loc 1 203 0 is_stmt 1 discriminator 2
 3041 0260 0021     		movs	r1, #0
 3042 0262 0120     		movs	r0, #1
 3043 0264 FFF7FEFF 		bl	LCD_Position
 3044              	.LVL317:
 204:main.c        ****                 LCD_Position(1,6);
ARM GAS  C:\Users\isaac\AppData\Local\Temp\cc1fpKCw.s 			page 73


 3045              		.loc 1 204 0 discriminator 2
 3046 0268 6300     		lsls	r3, r4, #1
 3047 026a 2344     		add	r3, r3, r4
 3048 026c 9D00     		lsls	r5, r3, #2
 3049 026e 174B     		ldr	r3, .L257+24
 3050 0270 1D44     		add	r5, r5, r3
 3051 0272 2846     		mov	r0, r5
 3052 0274 FFF7FEFF 		bl	LCD_PrintString
 3053              	.LVL318:
 205:main.c        ****                 LCD_PrintString("SC:");
 3054              		.loc 1 205 0 discriminator 2
 3055 0278 0621     		movs	r1, #6
 3056 027a 0120     		movs	r0, #1
 3057 027c FFF7FEFF 		bl	LCD_Position
 3058              	.LVL319:
 206:main.c        ****                 LCD_Position(1,9);
 3059              		.loc 1 206 0 discriminator 2
 3060 0280 1A48     		ldr	r0, .L257+56
 3061 0282 FFF7FEFF 		bl	LCD_PrintString
 3062              	.LVL320:
 207:main.c        ****                 LCD_PrintNumber(players[i].score);
 3063              		.loc 1 207 0 discriminator 2
 3064 0286 0921     		movs	r1, #9
 3065 0288 0120     		movs	r0, #1
 3066 028a FFF7FEFF 		bl	LCD_Position
 3067              	.LVL321:
 208:main.c        ****                 CyDelay(2000);
 3068              		.loc 1 208 0 discriminator 2
 3069 028e 2889     		ldrh	r0, [r5, #8]
 3070 0290 FFF7FEFF 		bl	LCD_PrintU32Number
 3071              	.LVL322:
 209:main.c        ****                 }
 3072              		.loc 1 209 0 discriminator 2
 3073 0294 4FF4FA60 		mov	r0, #2000
 3074 0298 FFF7FEFF 		bl	CyDelay
 3075              	.LVL323:
 197:main.c        ****                 LCD_ClearDisplay();
 3076              		.loc 1 197 0 discriminator 2
 3077 029c 0134     		adds	r4, r4, #1
 3078              	.LVL324:
 3079              	.L250:
 197:main.c        ****                 LCD_ClearDisplay();
 3080              		.loc 1 197 0 is_stmt 0 discriminator 1
 3081 029e 022C     		cmp	r4, #2
 3082 02a0 C9DD     		ble	.L254
 3083              	.LBE50:
 211:main.c        ****                 name_wait = 0;
 3084              		.loc 1 211 0 is_stmt 1
 3085 02a2 7322     		movs	r2, #115
 3086 02a4 084B     		ldr	r3, .L257+20
 3087 02a6 1A70     		strb	r2, [r3]
 212:main.c        ****                 UpdateStatus();
 3088              		.loc 1 212 0
 3089 02a8 0022     		movs	r2, #0
 3090 02aa 0C4B     		ldr	r3, .L257+40
 3091 02ac DA61     		str	r2, [r3, #28]
 213:main.c        ****                 break;
ARM GAS  C:\Users\isaac\AppData\Local\Temp\cc1fpKCw.s 			page 74


 3092              		.loc 1 213 0
 3093 02ae FFF7FEFF 		bl	UpdateStatus
 3094              	.LVL325:
 214:main.c        ****         }
 3095              		.loc 1 214 0
 3096 02b2 C4E6     		b	.L230
 3097              	.L258:
 3098              		.align	2
 3099              	.L257:
 3100 02b4 00000000 		.word	com_handler
 3101 02b8 00000000 		.word	pause_handler
 3102 02bc 00000000 		.word	resume_handler
 3103 02c0 00000000 		.word	real_handler
 3104 02c4 00000000 		.word	tic_handler
 3105 02c8 00000000 		.word	.LANCHOR0
 3106 02cc 00000000 		.word	players
 3107 02d0 58000000 		.word	.LANCHOR0+88
 3108 02d4 14000000 		.word	.LC2
 3109 02d8 20000000 		.word	.LC3
 3110 02dc 00000000 		.word	.LANCHOR1
 3111 02e0 30000000 		.word	.LC4
 3112 02e4 38000000 		.word	.LC5
 3113 02e8 40000000 		.word	.LC6
 3114 02ec 4C000000 		.word	.LC7
 3115 02f0 50000000 		.word	.LC8
 3116 02f4 64000000 		.word	.LC9
 3117 02f8 74000000 		.word	.LC10
 3118 02fc 84000000 		.word	.LC11
 3119              	.LBE47:
 3120              		.cfi_endproc
 3121              	.LFE77:
 3122              		.size	main, .-main
 3123              		.section	.text.tic_handler,"ax",%progbits
 3124              		.align	2
 3125              		.global	tic_handler
 3126              		.thumb
 3127              		.thumb_func
 3128              		.type	tic_handler, %function
 3129              	tic_handler:
 3130              	.LFB86:
 326:main.c        ****     switch(state){
 3131              		.loc 1 326 0
 3132              		.cfi_startproc
 3133              		@ args = 0, pretend = 0, frame = 0
 3134              		@ frame_needed = 0, uses_anonymous_args = 0
 3135 0000 08B5     		push	{r3, lr}
 3136              		.cfi_def_cfa_offset 8
 3137              		.cfi_offset 3, -8
 3138              		.cfi_offset 14, -4
 327:main.c        ****         case 'g':
 3139              		.loc 1 327 0
 3140 0002 1A4B     		ldr	r3, .L267
 3141 0004 1B78     		ldrb	r3, [r3]	@ zero_extendqisi2
 3142 0006 672B     		cmp	r3, #103
 3143 0008 1BD1     		bne	.L260
 3144              	.LBB51:
 329:main.c        ****                         add_bait();
ARM GAS  C:\Users\isaac\AppData\Local\Temp\cc1fpKCw.s 			page 75


 3145              		.loc 1 329 0
 3146 000a 6421     		movs	r1, #100
 3147 000c 0020     		movs	r0, #0
 3148 000e FFF7FEFF 		bl	RandNum
 3149              	.LVL326:
 3150 0012 0928     		cmp	r0, #9
 3151 0014 01DC     		bgt	.L262
 330:main.c        ****                     }
 3152              		.loc 1 330 0
 3153 0016 FFF7FEFF 		bl	add_bait
 3154              	.LVL327:
 3155              	.L262:
 332:main.c        ****                     if (!good_move){
 3156              		.loc 1 332 0
 3157 001a FFF7FEFF 		bl	move_snake
 3158              	.LVL328:
 333:main.c        ****                         draw_snake();    
 3159              		.loc 1 333 0
 3160 001e 10B9     		cbnz	r0, .L263
 334:main.c        ****                     }
 3161              		.loc 1 334 0
 3162 0020 FFF7FEFF 		bl	draw_snake
 3163              	.LVL329:
 3164 0024 04E0     		b	.L264
 3165              	.LVL330:
 3166              	.L263:
 337:main.c        ****                         UpdateStatus();
 3167              		.loc 1 337 0
 3168 0026 6522     		movs	r2, #101
 3169 0028 104B     		ldr	r3, .L267
 3170 002a 1A70     		strb	r2, [r3]
 338:main.c        ****                     }
 3171              		.loc 1 338 0
 3172 002c FFF7FEFF 		bl	UpdateStatus
 3173              	.LVL331:
 3174              	.L264:
 340:main.c        ****                         state = 'm';
 3175              		.loc 1 340 0
 3176 0030 0F4B     		ldr	r3, .L267+4
 3177 0032 9B68     		ldr	r3, [r3, #8]
 3178 0034 322B     		cmp	r3, #50
 3179 0036 04D1     		bne	.L260
 341:main.c        ****                         UpdateStatus();
 3180              		.loc 1 341 0
 3181 0038 6D22     		movs	r2, #109
 3182 003a 0C4B     		ldr	r3, .L267
 3183 003c 1A70     		strb	r2, [r3]
 342:main.c        ****                     }
 3184              		.loc 1 342 0
 3185 003e FFF7FEFF 		bl	UpdateStatus
 3186              	.LVL332:
 3187              	.L260:
 3188              	.LBE51:
 346:main.c        ****     int res = 1000/(2*period_offs);
 3189              		.loc 1 346 0
 3190 0042 0B4B     		ldr	r3, .L267+4
 3191 0044 DA6A     		ldr	r2, [r3, #44]
ARM GAS  C:\Users\isaac\AppData\Local\Temp\cc1fpKCw.s 			page 76


 3192 0046 1869     		ldr	r0, [r3, #16]
 3193 0048 8242     		cmp	r2, r0
 3194 004a 07D0     		beq	.L265
 3195              	.LBB52:
 347:main.c        ****     //int res = 1000 - 100*period_offs;
 3196              		.loc 1 347 0
 3197 004c 4000     		lsls	r0, r0, #1
 3198 004e 4FF47A73 		mov	r3, #1000
 3199 0052 93FBF0F0 		sdiv	r0, r3, r0
 3200              	.LVL333:
 349:main.c        ****     }
 3201              		.loc 1 349 0
 3202 0056 80B2     		uxth	r0, r0
 3203              	.LVL334:
 3204 0058 FFF7FEFF 		bl	Timer_Tic_WritePeriod
 3205              	.LVL335:
 3206              	.L265:
 3207              	.LBE52:
 351:main.c        ****     Timer_Tic_ReadStatusRegister();
 3208              		.loc 1 351 0
 3209 005c 044B     		ldr	r3, .L267+4
 3210 005e 1A69     		ldr	r2, [r3, #16]
 3211 0060 DA62     		str	r2, [r3, #44]
 352:main.c        ****     isr_TIC_ClearPending();
 3212              		.loc 1 352 0
 3213 0062 FFF7FEFF 		bl	Timer_Tic_ReadStatusRegister
 3214              	.LVL336:
 353:main.c        **** }
 3215              		.loc 1 353 0
 3216 0066 FFF7FEFF 		bl	isr_TIC_ClearPending
 3217              	.LVL337:
 3218 006a 08BD     		pop	{r3, pc}
 3219              	.L268:
 3220              		.align	2
 3221              	.L267:
 3222 006c 00000000 		.word	.LANCHOR0
 3223 0070 00000000 		.word	.LANCHOR1
 3224              		.cfi_endproc
 3225              	.LFE86:
 3226              		.size	tic_handler, .-tic_handler
 3227              		.global	state
 3228              		.global	period_offs_old
 3229              		.global	time_paused
 3230              		.global	pause_status
 3231              		.global	name_wait
 3232              		.global	max_comas
 3233              		.global	com_state
 3234              		.global	read
 3235              		.global	comas
 3236              		.global	pass
 3237              		.global	cs
 3238              		.comm	foo,1,1
 3239              		.global	check
 3240              		.global	codigo
 3241              		.global	SnakeBoard
 3242              		.global	cur_name
 3243              		.comm	players,48,4
ARM GAS  C:\Users\isaac\AppData\Local\Temp\cc1fpKCw.s 			page 77


 3244              		.comm	MapBuffer,1280,4
 3245              		.global	cur_dir
 3246              		.global	last_dir
 3247              		.global	period_offs
 3248              		.global	score_ten_t
 3249              		.global	match_score
 3250              		.global	snake_tail
 3251              		.global	snake_head
 3252              		.comm	bait,40,4
 3253              		.comm	snake,2560,4
 3254              		.global	bait_size
 3255              		.global	grid_size
 3256              		.global	snake_size
 3257              		.comm	lcd_ram,64,4
 3258              		.section	.rodata
 3259              		.align	2
 3260              		.type	bait_size, %object
 3261              		.size	bait_size, 4
 3262              	bait_size:
 3263 0000 05000000 		.word	5
 3264              		.type	grid_size, %object
 3265              		.size	grid_size, 4
 3266              	grid_size:
 3267 0004 40010000 		.word	320
 3268              		.type	snake_size, %object
 3269              		.size	snake_size, 4
 3270              	snake_size:
 3271 0008 40010000 		.word	320
 3272              		.data
 3273              		.align	2
 3274              		.set	.LANCHOR0,. + 0
 3275              		.type	state, %object
 3276              		.size	state, 1
 3277              	state:
 3278 0000 68       		.byte	104
 3279              		.type	cur_dir, %object
 3280              		.size	cur_dir, 1
 3281              	cur_dir:
 3282 0001 44       		.byte	68
 3283              		.type	last_dir, %object
 3284              		.size	last_dir, 1
 3285              	last_dir:
 3286 0002 44       		.byte	68
 3287 0003 00       		.space	1
 3288              		.type	cur_name, %object
 3289              		.size	cur_name, 5
 3290              	cur_name:
 3291 0004 69736161 		.ascii	"isaac"
 3291      63
 3292 0009 000000   		.space	3
 3293              		.type	pass, %object
 3294              		.size	pass, 4
 3295              	pass:
 3296 000c 01000000 		.word	1
 3297              		.type	read, %object
 3298              		.size	read, 4
 3299              	read:
ARM GAS  C:\Users\isaac\AppData\Local\Temp\cc1fpKCw.s 			page 78


 3300 0010 01000000 		.word	1
 3301              		.type	com_state, %object
 3302              		.size	com_state, 1
 3303              	com_state:
 3304 0014 6D       		.byte	109
 3305 0015 000000   		.space	3
 3306              		.type	check, %object
 3307              		.size	check, 32
 3308              	check:
 3309 0018 30303030 		.ascii	"000000000\000"
 3309      30303030 
 3309      3000
 3310 0022 00000000 		.space	22
 3310      00000000 
 3310      00000000 
 3310      00000000 
 3310      00000000 
 3311              		.type	codigo, %object
 3312              		.size	codigo, 32
 3313              	codigo:
 3314 0038 4E4E4E2C 		.ascii	"NNN,0,0,F\000"
 3314      302C302C 
 3314      4600
 3315 0042 00000000 		.space	22
 3315      00000000 
 3315      00000000 
 3315      00000000 
 3315      00000000 
 3316              		.type	SnakeBoard, %object
 3317              		.size	SnakeBoard, 1280
 3318              	SnakeBoard:
 3319 0058 00000000 		.word	0
 3320 005c 03000000 		.word	3
 3321 0060 03000000 		.word	3
 3322 0064 03000000 		.word	3
 3323 0068 03000000 		.word	3
 3324 006c 03000000 		.word	3
 3325 0070 03000000 		.word	3
 3326 0074 03000000 		.word	3
 3327 0078 03000000 		.word	3
 3328 007c 03000000 		.word	3
 3329 0080 03000000 		.word	3
 3330 0084 03000000 		.word	3
 3331 0088 03000000 		.word	3
 3332 008c 03000000 		.word	3
 3333 0090 03000000 		.word	3
 3334 0094 03000000 		.word	3
 3335 0098 03000000 		.word	3
 3336 009c 03000000 		.word	3
 3337 00a0 03000000 		.word	3
 3338 00a4 00000000 		.word	0
 3339 00a8 03000000 		.word	3
 3340 00ac 00000000 		.word	0
 3341 00b0 00000000 		.word	0
 3342 00b4 00000000 		.word	0
 3343 00b8 00000000 		.word	0
 3344 00bc 00000000 		.word	0
ARM GAS  C:\Users\isaac\AppData\Local\Temp\cc1fpKCw.s 			page 79


 3345 00c0 00000000 		.word	0
 3346 00c4 00000000 		.word	0
 3347 00c8 00000000 		.word	0
 3348 00cc 00000000 		.word	0
 3349 00d0 00000000 		.word	0
 3350 00d4 00000000 		.word	0
 3351 00d8 00000000 		.word	0
 3352 00dc 00000000 		.word	0
 3353 00e0 00000000 		.word	0
 3354 00e4 00000000 		.word	0
 3355 00e8 00000000 		.word	0
 3356 00ec 00000000 		.word	0
 3357 00f0 00000000 		.word	0
 3358 00f4 03000000 		.word	3
 3359 00f8 03000000 		.word	3
 3360 00fc 00000000 		.word	0
 3361 0100 00000000 		.word	0
 3362 0104 00000000 		.word	0
 3363 0108 00000000 		.word	0
 3364 010c 00000000 		.word	0
 3365 0110 00000000 		.word	0
 3366 0114 00000000 		.word	0
 3367 0118 00000000 		.word	0
 3368 011c 00000000 		.word	0
 3369 0120 00000000 		.word	0
 3370 0124 00000000 		.word	0
 3371 0128 00000000 		.word	0
 3372 012c 00000000 		.word	0
 3373 0130 00000000 		.word	0
 3374 0134 00000000 		.word	0
 3375 0138 00000000 		.word	0
 3376 013c 00000000 		.word	0
 3377 0140 00000000 		.word	0
 3378 0144 03000000 		.word	3
 3379 0148 03000000 		.word	3
 3380 014c 00000000 		.word	0
 3381 0150 00000000 		.word	0
 3382 0154 00000000 		.word	0
 3383 0158 00000000 		.word	0
 3384 015c 00000000 		.word	0
 3385 0160 00000000 		.word	0
 3386 0164 00000000 		.word	0
 3387 0168 00000000 		.word	0
 3388 016c 00000000 		.word	0
 3389 0170 00000000 		.word	0
 3390 0174 00000000 		.word	0
 3391 0178 00000000 		.word	0
 3392 017c 00000000 		.word	0
 3393 0180 00000000 		.word	0
 3394 0184 00000000 		.word	0
 3395 0188 00000000 		.word	0
 3396 018c 00000000 		.word	0
 3397 0190 00000000 		.word	0
 3398 0194 03000000 		.word	3
 3399 0198 03000000 		.word	3
 3400 019c 00000000 		.word	0
 3401 01a0 00000000 		.word	0
ARM GAS  C:\Users\isaac\AppData\Local\Temp\cc1fpKCw.s 			page 80


 3402 01a4 00000000 		.word	0
 3403 01a8 00000000 		.word	0
 3404 01ac 00000000 		.word	0
 3405 01b0 00000000 		.word	0
 3406 01b4 00000000 		.word	0
 3407 01b8 00000000 		.word	0
 3408 01bc 00000000 		.word	0
 3409 01c0 00000000 		.word	0
 3410 01c4 00000000 		.word	0
 3411 01c8 00000000 		.word	0
 3412 01cc 00000000 		.word	0
 3413 01d0 00000000 		.word	0
 3414 01d4 00000000 		.word	0
 3415 01d8 00000000 		.word	0
 3416 01dc 00000000 		.word	0
 3417 01e0 00000000 		.word	0
 3418 01e4 03000000 		.word	3
 3419 01e8 03000000 		.word	3
 3420 01ec 00000000 		.word	0
 3421 01f0 00000000 		.word	0
 3422 01f4 00000000 		.word	0
 3423 01f8 00000000 		.word	0
 3424 01fc 00000000 		.word	0
 3425 0200 00000000 		.word	0
 3426 0204 00000000 		.word	0
 3427 0208 00000000 		.word	0
 3428 020c 00000000 		.word	0
 3429 0210 00000000 		.word	0
 3430 0214 00000000 		.word	0
 3431 0218 00000000 		.word	0
 3432 021c 00000000 		.word	0
 3433 0220 00000000 		.word	0
 3434 0224 00000000 		.word	0
 3435 0228 00000000 		.word	0
 3436 022c 00000000 		.word	0
 3437 0230 00000000 		.word	0
 3438 0234 03000000 		.word	3
 3439 0238 03000000 		.word	3
 3440 023c 00000000 		.word	0
 3441 0240 00000000 		.word	0
 3442 0244 00000000 		.word	0
 3443 0248 00000000 		.word	0
 3444 024c 00000000 		.word	0
 3445 0250 00000000 		.word	0
 3446 0254 00000000 		.word	0
 3447 0258 00000000 		.word	0
 3448 025c 00000000 		.word	0
 3449 0260 00000000 		.word	0
 3450 0264 00000000 		.word	0
 3451 0268 00000000 		.word	0
 3452 026c 00000000 		.word	0
 3453 0270 00000000 		.word	0
 3454 0274 00000000 		.word	0
 3455 0278 00000000 		.word	0
 3456 027c 00000000 		.word	0
 3457 0280 00000000 		.word	0
 3458 0284 03000000 		.word	3
ARM GAS  C:\Users\isaac\AppData\Local\Temp\cc1fpKCw.s 			page 81


 3459 0288 03000000 		.word	3
 3460 028c 00000000 		.word	0
 3461 0290 00000000 		.word	0
 3462 0294 00000000 		.word	0
 3463 0298 00000000 		.word	0
 3464 029c 00000000 		.word	0
 3465 02a0 00000000 		.word	0
 3466 02a4 00000000 		.word	0
 3467 02a8 00000000 		.word	0
 3468 02ac 00000000 		.word	0
 3469 02b0 00000000 		.word	0
 3470 02b4 00000000 		.word	0
 3471 02b8 00000000 		.word	0
 3472 02bc 00000000 		.word	0
 3473 02c0 00000000 		.word	0
 3474 02c4 00000000 		.word	0
 3475 02c8 00000000 		.word	0
 3476 02cc 00000000 		.word	0
 3477 02d0 00000000 		.word	0
 3478 02d4 03000000 		.word	3
 3479 02d8 03000000 		.word	3
 3480 02dc 00000000 		.word	0
 3481 02e0 00000000 		.word	0
 3482 02e4 00000000 		.word	0
 3483 02e8 00000000 		.word	0
 3484 02ec 00000000 		.word	0
 3485 02f0 00000000 		.word	0
 3486 02f4 00000000 		.word	0
 3487 02f8 00000000 		.word	0
 3488 02fc 00000000 		.word	0
 3489 0300 00000000 		.word	0
 3490 0304 00000000 		.word	0
 3491 0308 00000000 		.word	0
 3492 030c 00000000 		.word	0
 3493 0310 00000000 		.word	0
 3494 0314 00000000 		.word	0
 3495 0318 00000000 		.word	0
 3496 031c 00000000 		.word	0
 3497 0320 00000000 		.word	0
 3498 0324 03000000 		.word	3
 3499 0328 03000000 		.word	3
 3500 032c 00000000 		.word	0
 3501 0330 00000000 		.word	0
 3502 0334 00000000 		.word	0
 3503 0338 00000000 		.word	0
 3504 033c 00000000 		.word	0
 3505 0340 00000000 		.word	0
 3506 0344 00000000 		.word	0
 3507 0348 00000000 		.word	0
 3508 034c 00000000 		.word	0
 3509 0350 00000000 		.word	0
 3510 0354 00000000 		.word	0
 3511 0358 00000000 		.word	0
 3512 035c 00000000 		.word	0
 3513 0360 00000000 		.word	0
 3514 0364 00000000 		.word	0
 3515 0368 00000000 		.word	0
ARM GAS  C:\Users\isaac\AppData\Local\Temp\cc1fpKCw.s 			page 82


 3516 036c 00000000 		.word	0
 3517 0370 00000000 		.word	0
 3518 0374 03000000 		.word	3
 3519 0378 03000000 		.word	3
 3520 037c 00000000 		.word	0
 3521 0380 00000000 		.word	0
 3522 0384 00000000 		.word	0
 3523 0388 00000000 		.word	0
 3524 038c 00000000 		.word	0
 3525 0390 00000000 		.word	0
 3526 0394 00000000 		.word	0
 3527 0398 00000000 		.word	0
 3528 039c 00000000 		.word	0
 3529 03a0 00000000 		.word	0
 3530 03a4 00000000 		.word	0
 3531 03a8 00000000 		.word	0
 3532 03ac 00000000 		.word	0
 3533 03b0 00000000 		.word	0
 3534 03b4 00000000 		.word	0
 3535 03b8 00000000 		.word	0
 3536 03bc 00000000 		.word	0
 3537 03c0 00000000 		.word	0
 3538 03c4 03000000 		.word	3
 3539 03c8 03000000 		.word	3
 3540 03cc 00000000 		.word	0
 3541 03d0 00000000 		.word	0
 3542 03d4 00000000 		.word	0
 3543 03d8 00000000 		.word	0
 3544 03dc 00000000 		.word	0
 3545 03e0 00000000 		.word	0
 3546 03e4 00000000 		.word	0
 3547 03e8 00000000 		.word	0
 3548 03ec 00000000 		.word	0
 3549 03f0 00000000 		.word	0
 3550 03f4 00000000 		.word	0
 3551 03f8 00000000 		.word	0
 3552 03fc 00000000 		.word	0
 3553 0400 00000000 		.word	0
 3554 0404 00000000 		.word	0
 3555 0408 00000000 		.word	0
 3556 040c 00000000 		.word	0
 3557 0410 00000000 		.word	0
 3558 0414 03000000 		.word	3
 3559 0418 03000000 		.word	3
 3560 041c 00000000 		.word	0
 3561 0420 00000000 		.word	0
 3562 0424 00000000 		.word	0
 3563 0428 00000000 		.word	0
 3564 042c 00000000 		.word	0
 3565 0430 00000000 		.word	0
 3566 0434 00000000 		.word	0
 3567 0438 00000000 		.word	0
 3568 043c 00000000 		.word	0
 3569 0440 00000000 		.word	0
 3570 0444 00000000 		.word	0
 3571 0448 00000000 		.word	0
 3572 044c 00000000 		.word	0
ARM GAS  C:\Users\isaac\AppData\Local\Temp\cc1fpKCw.s 			page 83


 3573 0450 00000000 		.word	0
 3574 0454 00000000 		.word	0
 3575 0458 00000000 		.word	0
 3576 045c 00000000 		.word	0
 3577 0460 00000000 		.word	0
 3578 0464 03000000 		.word	3
 3579 0468 03000000 		.word	3
 3580 046c 00000000 		.word	0
 3581 0470 00000000 		.word	0
 3582 0474 00000000 		.word	0
 3583 0478 00000000 		.word	0
 3584 047c 00000000 		.word	0
 3585 0480 00000000 		.word	0
 3586 0484 00000000 		.word	0
 3587 0488 00000000 		.word	0
 3588 048c 00000000 		.word	0
 3589 0490 00000000 		.word	0
 3590 0494 00000000 		.word	0
 3591 0498 00000000 		.word	0
 3592 049c 00000000 		.word	0
 3593 04a0 00000000 		.word	0
 3594 04a4 00000000 		.word	0
 3595 04a8 00000000 		.word	0
 3596 04ac 00000000 		.word	0
 3597 04b0 00000000 		.word	0
 3598 04b4 03000000 		.word	3
 3599 04b8 03000000 		.word	3
 3600 04bc 00000000 		.word	0
 3601 04c0 00000000 		.word	0
 3602 04c4 00000000 		.word	0
 3603 04c8 00000000 		.word	0
 3604 04cc 00000000 		.word	0
 3605 04d0 00000000 		.word	0
 3606 04d4 00000000 		.word	0
 3607 04d8 00000000 		.word	0
 3608 04dc 00000000 		.word	0
 3609 04e0 00000000 		.word	0
 3610 04e4 00000000 		.word	0
 3611 04e8 00000000 		.word	0
 3612 04ec 00000000 		.word	0
 3613 04f0 00000000 		.word	0
 3614 04f4 00000000 		.word	0
 3615 04f8 00000000 		.word	0
 3616 04fc 00000000 		.word	0
 3617 0500 00000000 		.word	0
 3618 0504 03000000 		.word	3
 3619 0508 00000000 		.word	0
 3620 050c 03000000 		.word	3
 3621 0510 03000000 		.word	3
 3622 0514 03000000 		.word	3
 3623 0518 03000000 		.word	3
 3624 051c 03000000 		.word	3
 3625 0520 03000000 		.word	3
 3626 0524 03000000 		.word	3
 3627 0528 03000000 		.word	3
 3628 052c 03000000 		.word	3
 3629 0530 03000000 		.word	3
ARM GAS  C:\Users\isaac\AppData\Local\Temp\cc1fpKCw.s 			page 84


 3630 0534 03000000 		.word	3
 3631 0538 03000000 		.word	3
 3632 053c 03000000 		.word	3
 3633 0540 03000000 		.word	3
 3634 0544 03000000 		.word	3
 3635 0548 03000000 		.word	3
 3636 054c 03000000 		.word	3
 3637 0550 03000000 		.word	3
 3638 0554 00000000 		.word	0
 3639              		.section	.rodata.str1.4,"aMS",%progbits,1
 3640              		.align	2
 3641              	.LC0:
 3642 0000 53434F52 		.ascii	"SCORE\000"
 3642      4500
 3643 0006 0000     		.space	2
 3644              	.LC1:
 3645 0008 4253542C 		.ascii	"BST,%c,F\012\000"
 3645      25632C46 
 3645      0A00
 3646 0012 0000     		.space	2
 3647              	.LC2:
 3648 0014 57616974 		.ascii	"Waiting For\000"
 3648      696E6720 
 3648      466F7200 
 3649              	.LC3:
 3650 0020 4E616D65 		.ascii	"Names To Start\000"
 3650      7320546F 
 3650      20537461 
 3650      727400
 3651 002f 00       		.space	1
 3652              	.LC4:
 3653 0030 534C4545 		.ascii	"SLEEP\000"
 3653      5000
 3654 0036 0000     		.space	2
 3655              	.LC5:
 3656 0038 50415553 		.ascii	"PAUSED\000"
 3656      454400
 3657 003f 00       		.space	1
 3658              	.LC6:
 3659 0040 47616D65 		.ascii	"Game Over\000"
 3659      204F7665 
 3659      7200
 3660 004a 0000     		.space	2
 3661              	.LC7:
 3662 004c 53433A00 		.ascii	"SC:\000"
 3663              	.LC8:
 3664 0050 4D617820 		.ascii	"Max Score Achived!\000"
 3664      53636F72 
 3664      65204163 
 3664      68697665 
 3664      642100
 3665 0063 00       		.space	1
 3666              	.LC9:
 3667 0064 46697273 		.ascii	"First Place:\000"
 3667      7420506C 
 3667      6163653A 
 3667      00
ARM GAS  C:\Users\isaac\AppData\Local\Temp\cc1fpKCw.s 			page 85


 3668 0071 000000   		.space	3
 3669              	.LC10:
 3670 0074 5365636F 		.ascii	"Second Place:\000"
 3670      6E642050 
 3670      6C616365 
 3670      3A00
 3671 0082 0000     		.space	2
 3672              	.LC11:
 3673 0084 54686972 		.ascii	"Third Place:\000"
 3673      6420506C 
 3673      6163653A 
 3673      00
 3674              		.bss
 3675              		.align	2
 3676              		.set	.LANCHOR1,. + 0
 3677              		.type	pause_status, %object
 3678              		.size	pause_status, 4
 3679              	pause_status:
 3680 0000 00000000 		.space	4
 3681              		.type	time_paused, %object
 3682              		.size	time_paused, 4
 3683              	time_paused:
 3684 0004 00000000 		.space	4
 3685              		.type	match_score, %object
 3686              		.size	match_score, 4
 3687              	match_score:
 3688 0008 00000000 		.space	4
 3689              		.type	score_ten_t, %object
 3690              		.size	score_ten_t, 4
 3691              	score_ten_t:
 3692 000c 00000000 		.space	4
 3693              		.type	period_offs, %object
 3694              		.size	period_offs, 4
 3695              	period_offs:
 3696 0010 00000000 		.space	4
 3697              		.type	snake_head, %object
 3698              		.size	snake_head, 4
 3699              	snake_head:
 3700 0014 00000000 		.space	4
 3701              		.type	snake_tail, %object
 3702              		.size	snake_tail, 4
 3703              	snake_tail:
 3704 0018 00000000 		.space	4
 3705              		.type	name_wait, %object
 3706              		.size	name_wait, 4
 3707              	name_wait:
 3708 001c 00000000 		.space	4
 3709              		.type	cs, %object
 3710              		.size	cs, 4
 3711              	cs:
 3712 0020 00000000 		.space	4
 3713              		.type	comas, %object
 3714              		.size	comas, 4
 3715              	comas:
 3716 0024 00000000 		.space	4
 3717              		.type	max_comas, %object
 3718              		.size	max_comas, 4
ARM GAS  C:\Users\isaac\AppData\Local\Temp\cc1fpKCw.s 			page 86


 3719              	max_comas:
 3720 0028 00000000 		.space	4
 3721              		.type	period_offs_old, %object
 3722              		.size	period_offs_old, 4
 3723              	period_offs_old:
 3724 002c 00000000 		.space	4
 3725              		.text
 3726              	.Letext0:
 3727              		.file 5 "c:\\program files (x86)\\cypress\\psoc creator\\4.2\\psoc creator\\import\\gnu\\arm\\5.4.
 3728              		.file 6 "c:\\program files (x86)\\cypress\\psoc creator\\4.2\\psoc creator\\import\\gnu\\arm\\5.4.
 3729              		.file 7 "Generated_Source\\PSoC5/cytypes.h"
 3730              		.file 8 "Generated_Source\\PSoC5/core_cm3.h"
 3731              		.file 9 "Generated_Source\\PSoC5/CyLib.h"
 3732              		.file 10 "Generated_Source\\PSoC5/Pause.h"
 3733              		.file 11 "Generated_Source\\PSoC5/isr_PAUSE.h"
 3734              		.file 12 "Generated_Source\\PSoC5/Resume.h"
 3735              		.file 13 "Generated_Source\\PSoC5/isr_RESUME.h"
 3736              		.file 14 "Generated_Source\\PSoC5/Timer_Real.h"
 3737              		.file 15 "Generated_Source\\PSoC5/isr_REAL.h"
 3738              		.file 16 "c:\\program files (x86)\\cypress\\psoc creator\\4.2\\psoc creator\\import\\gnu\\arm\\5.4
 3739              		.file 17 "Generated_Source\\PSoC5/LCD.h"
 3740              		.file 18 "Generated_Source\\PSoC5/EEPROM.h"
 3741              		.file 19 "Generated_Source\\PSoC5/UART.h"
 3742              		.file 20 "Generated_Source\\PSoC5/com.h"
 3743              		.file 21 "c:\\program files (x86)\\cypress\\psoc creator\\4.2\\psoc creator\\import\\gnu\\arm\\5.4
 3744              		.file 22 "Generated_Source\\PSoC5/Timer_Tic.h"
 3745              		.file 23 "Generated_Source\\PSoC5/cyPm.h"
 3746              		.file 24 "Generated_Source\\PSoC5/Timer_Seed.h"
 3747              		.file 25 "Generated_Source\\PSoC5/isr_TIC.h"