ARM GAS  C:\Users\isaac\AppData\Local\Temp\ccmoftDY.s 			page 1


   1              		.syntax unified
   2              		.cpu cortex-m3
   3              		.fpu softvfp
   4              		.eabi_attribute 20, 1
   5              		.eabi_attribute 21, 1
   6              		.eabi_attribute 23, 3
   7              		.eabi_attribute 24, 1
   8              		.eabi_attribute 25, 1
   9              		.eabi_attribute 26, 1
  10              		.eabi_attribute 30, 1
  11              		.eabi_attribute 34, 1
  12              		.eabi_attribute 18, 4
  13              		.thumb
  14              		.syntax unified
  15              		.file	"main.c"
  16              		.text
  17              	.Ltext0:
  18              		.cfi_sections	.debug_frame
  19              		.section	.text.UART_handler,"ax",%progbits
  20              		.align	2
  21              		.global	UART_handler
  22              		.thumb
  23              		.thumb_func
  24              		.type	UART_handler, %function
  25              	UART_handler:
  26              	.LFB65:
  27              		.file 1 "main.c"
   1:main.c        **** #include "project.h"
   2:main.c        **** #include "stdio.h"
   3:main.c        **** 
   4:main.c        **** char val[2];
   5:main.c        **** char val_r[2];
   6:main.c        **** char msg[40];
   7:main.c        **** char state = 'f';
   8:main.c        **** char ins_1 = 'n';
   9:main.c        **** 
  10:main.c        **** int sum;
  11:main.c        **** 
  12:main.c        **** CY_ISR_PROTO(UART_handler);
  13:main.c        **** CY_ISR_PROTO(RESET_handler);
  14:main.c        **** CY_ISR_PROTO(RESTART_handler);
  15:main.c        **** int ChartoInt(char t_);
  16:main.c        **** int main(void)
  17:main.c        **** {
  18:main.c        ****     CyGlobalIntEnable;
  19:main.c        ****     UART_Start();
  20:main.c        ****     EEPROM_Start();
  21:main.c        ****     isr_UART_StartEx(UART_handler);
  22:main.c        ****     isr_RESET_StartEx(RESET_handler);
  23:main.c        ****     isr_RESTART_StartEx(RESTART_handler);
  24:main.c        ****     for(;;)
  25:main.c        ****     {
  26:main.c        ****         switch(state){
  27:main.c        ****             case 'f':
  28:main.c        ****                 val_r[0] = EEPROM_ReadByte(0);
  29:main.c        ****                 if(val_r[0] != 'n'){
  30:main.c        ****                         state = 'i';
ARM GAS  C:\Users\isaac\AppData\Local\Temp\ccmoftDY.s 			page 2


  31:main.c        ****                 }
  32:main.c        ****                 else{
  33:main.c        ****                 EEPROM_WriteByte(ins_1, 0);
  34:main.c        ****                 EEPROM_WriteByte(ins_1, 1);
  35:main.c        ****                 state = 'i';
  36:main.c        ****                 }
  37:main.c        ****                 break;
  38:main.c        ****             case 'i':
  39:main.c        ****                 val_r[0] = EEPROM_ReadByte(0);
  40:main.c        ****                 val_r[1] = EEPROM_ReadByte(1);
  41:main.c        ****                 if(val_r[0] != 'n'){
  42:main.c        ****                     state = 'a';
  43:main.c        ****                 }
  44:main.c        ****                 else {
  45:main.c        ****                     UART_PutString("Plase input your first value \n");
  46:main.c        ****                     state = 'b';
  47:main.c        ****                 }
  48:main.c        ****                 break;
  49:main.c        ****             case 'a':
  50:main.c        ****                 if(val_r[1] != 'n'){
  51:main.c        ****                     state = 's';
  52:main.c        ****                 }
  53:main.c        ****                 else {
  54:main.c        ****                     UART_PutString("Plase input your second value \n");
  55:main.c        ****                     state = 'c';
  56:main.c        ****                 }
  57:main.c        ****                 break;
  58:main.c        ****             case 'b':
  59:main.c        ****                 if(val_r[0] != 'n'){
  60:main.c        ****                     state = 'a';
  61:main.c        ****                 }
  62:main.c        ****                 break;
  63:main.c        ****             case 'c':
  64:main.c        ****                 if(val_r[1] != 'n'){
  65:main.c        ****                     state = 's';
  66:main.c        ****                 }
  67:main.c        ****                 break;
  68:main.c        ****             case 's':
  69:main.c        ****                     sum = ChartoInt(val_r[0]) + ChartoInt(val_r[1]);
  70:main.c        ****                     sprintf(msg, "Your sum is %d \n", sum);
  71:main.c        ****                     UART_PutString(msg);
  72:main.c        ****                     state = 'p';
  73:main.c        ****                 break;
  74:main.c        ****             case 'p':
  75:main.c        ****                 break;
  76:main.c        ****         }
  77:main.c        ****     }
  78:main.c        **** }
  79:main.c        **** 
  80:main.c        **** CY_ISR(UART_handler){
  28              		.loc 1 80 0
  29              		.cfi_startproc
  30              		@ args = 0, pretend = 0, frame = 0
  31              		@ frame_needed = 0, uses_anonymous_args = 0
  32 0000 08B5     		push	{r3, lr}
  33              		.cfi_def_cfa_offset 8
  34              		.cfi_offset 3, -8
ARM GAS  C:\Users\isaac\AppData\Local\Temp\ccmoftDY.s 			page 3


  35              		.cfi_offset 14, -4
  81:main.c        ****     switch(state){
  36              		.loc 1 81 0
  37 0002 114B     		ldr	r3, .L6
  38 0004 1B78     		ldrb	r3, [r3]	@ zero_extendqisi2
  39 0006 622B     		cmp	r3, #98
  40 0008 02D0     		beq	.L3
  41 000a 632B     		cmp	r3, #99
  42 000c 0DD0     		beq	.L4
  43 000e 18E0     		b	.L2
  44              	.L3:
  82:main.c        ****         case 'b':
  83:main.c        ****             val[0] = UART_GetChar();
  45              		.loc 1 83 0
  46 0010 FFF7FEFF 		bl	UART_GetChar
  47              	.LVL0:
  48 0014 0D4B     		ldr	r3, .L6+4
  49 0016 1870     		strb	r0, [r3]
  84:main.c        ****             EEPROM_WriteByte(val[0], 0);
  50              		.loc 1 84 0
  51 0018 0021     		movs	r1, #0
  52 001a FFF7FEFF 		bl	EEPROM_WriteByte
  53              	.LVL1:
  85:main.c        ****             val_r[0] = EEPROM_ReadByte(0);
  54              		.loc 1 85 0
  55 001e 0020     		movs	r0, #0
  56 0020 FFF7FEFF 		bl	EEPROM_ReadByte
  57              	.LVL2:
  58 0024 0A4B     		ldr	r3, .L6+8
  59 0026 1870     		strb	r0, [r3]
  86:main.c        ****             break;
  60              		.loc 1 86 0
  61 0028 0BE0     		b	.L2
  62              	.L4:
  87:main.c        ****         case 'c':
  88:main.c        ****             val[1] = UART_GetChar();
  63              		.loc 1 88 0
  64 002a FFF7FEFF 		bl	UART_GetChar
  65              	.LVL3:
  66 002e 074B     		ldr	r3, .L6+4
  67 0030 5870     		strb	r0, [r3, #1]
  89:main.c        ****             EEPROM_WriteByte(val[1], 1);
  68              		.loc 1 89 0
  69 0032 0121     		movs	r1, #1
  70 0034 FFF7FEFF 		bl	EEPROM_WriteByte
  71              	.LVL4:
  90:main.c        ****             val_r[1] = EEPROM_ReadByte(1);
  72              		.loc 1 90 0
  73 0038 0120     		movs	r0, #1
  74 003a FFF7FEFF 		bl	EEPROM_ReadByte
  75              	.LVL5:
  76 003e 044B     		ldr	r3, .L6+8
  77 0040 5870     		strb	r0, [r3, #1]
  78              	.L2:
  91:main.c        ****             break;
  92:main.c        ****         default:
  93:main.c        ****             break;
ARM GAS  C:\Users\isaac\AppData\Local\Temp\ccmoftDY.s 			page 4


  94:main.c        ****     }
  95:main.c        ****     isr_UART_ClearPending();
  79              		.loc 1 95 0
  80 0042 FFF7FEFF 		bl	isr_UART_ClearPending
  81              	.LVL6:
  82 0046 08BD     		pop	{r3, pc}
  83              	.L7:
  84              		.align	2
  85              	.L6:
  86 0048 00000000 		.word	.LANCHOR0
  87 004c 00000000 		.word	val
  88 0050 00000000 		.word	val_r
  89              		.cfi_endproc
  90              	.LFE65:
  91              		.size	UART_handler, .-UART_handler
  92              		.section	.text.RESET_handler,"ax",%progbits
  93              		.align	2
  94              		.global	RESET_handler
  95              		.thumb
  96              		.thumb_func
  97              		.type	RESET_handler, %function
  98              	RESET_handler:
  99              	.LFB66:
  96:main.c        **** }
  97:main.c        **** CY_ISR(RESET_handler){
 100              		.loc 1 97 0
 101              		.cfi_startproc
 102              		@ args = 0, pretend = 0, frame = 0
 103              		@ frame_needed = 0, uses_anonymous_args = 0
 104 0000 08B5     		push	{r3, lr}
 105              		.cfi_def_cfa_offset 8
 106              		.cfi_offset 3, -8
 107              		.cfi_offset 14, -4
  98:main.c        ****     state = 's';
 108              		.loc 1 98 0
 109 0002 7322     		movs	r2, #115
 110 0004 054B     		ldr	r3, .L10
 111 0006 1A70     		strb	r2, [r3]
  99:main.c        ****     BTN_1_ClearInterrupt();
 112              		.loc 1 99 0
 113 0008 FFF7FEFF 		bl	BTN_1_ClearInterrupt
 114              	.LVL7:
 100:main.c        ****     isr_RESET_ClearPending();
 115              		.loc 1 100 0
 116 000c FFF7FEFF 		bl	isr_RESET_ClearPending
 117              	.LVL8:
 101:main.c        ****     CyDelay(50);
 118              		.loc 1 101 0
 119 0010 3220     		movs	r0, #50
 120 0012 FFF7FEFF 		bl	CyDelay
 121              	.LVL9:
 102:main.c        ****     CySoftwareReset();
 122              		.loc 1 102 0
 123 0016 FFF7FEFF 		bl	CySoftwareReset
 124              	.LVL10:
 125 001a 08BD     		pop	{r3, pc}
 126              	.L11:
ARM GAS  C:\Users\isaac\AppData\Local\Temp\ccmoftDY.s 			page 5


 127              		.align	2
 128              	.L10:
 129 001c 00000000 		.word	.LANCHOR0
 130              		.cfi_endproc
 131              	.LFE66:
 132              		.size	RESET_handler, .-RESET_handler
 133              		.section	.text.RESTART_handler,"ax",%progbits
 134              		.align	2
 135              		.global	RESTART_handler
 136              		.thumb
 137              		.thumb_func
 138              		.type	RESTART_handler, %function
 139              	RESTART_handler:
 140              	.LFB67:
 103:main.c        **** };
 104:main.c        **** CY_ISR(RESTART_handler){
 141              		.loc 1 104 0
 142              		.cfi_startproc
 143              		@ args = 0, pretend = 0, frame = 0
 144              		@ frame_needed = 0, uses_anonymous_args = 0
 145 0000 10B5     		push	{r4, lr}
 146              		.cfi_def_cfa_offset 8
 147              		.cfi_offset 4, -8
 148              		.cfi_offset 14, -4
 105:main.c        ****     EEPROM_WriteByte(ins_1, 0);
 149              		.loc 1 105 0
 150 0002 084C     		ldr	r4, .L14
 151 0004 0021     		movs	r1, #0
 152 0006 6078     		ldrb	r0, [r4, #1]	@ zero_extendqisi2
 153 0008 FFF7FEFF 		bl	EEPROM_WriteByte
 154              	.LVL11:
 106:main.c        ****     EEPROM_WriteByte(ins_1, 1);
 155              		.loc 1 106 0
 156 000c 0121     		movs	r1, #1
 157 000e 6078     		ldrb	r0, [r4, #1]	@ zero_extendqisi2
 158 0010 FFF7FEFF 		bl	EEPROM_WriteByte
 159              	.LVL12:
 107:main.c        ****     state = 'i';
 160              		.loc 1 107 0
 161 0014 6923     		movs	r3, #105
 162 0016 2370     		strb	r3, [r4]
 108:main.c        ****     BTN_2_ClearInterrupt();
 163              		.loc 1 108 0
 164 0018 FFF7FEFF 		bl	BTN_2_ClearInterrupt
 165              	.LVL13:
 109:main.c        ****     isr_RESTART_ClearPending();
 166              		.loc 1 109 0
 167 001c FFF7FEFF 		bl	isr_RESTART_ClearPending
 168              	.LVL14:
 169 0020 10BD     		pop	{r4, pc}
 170              	.L15:
 171 0022 00BF     		.align	2
 172              	.L14:
 173 0024 00000000 		.word	.LANCHOR0
 174              		.cfi_endproc
 175              	.LFE67:
 176              		.size	RESTART_handler, .-RESTART_handler
ARM GAS  C:\Users\isaac\AppData\Local\Temp\ccmoftDY.s 			page 6


 177              		.section	.text.ChartoInt,"ax",%progbits
 178              		.align	2
 179              		.global	ChartoInt
 180              		.thumb
 181              		.thumb_func
 182              		.type	ChartoInt, %function
 183              	ChartoInt:
 184              	.LFB68:
 110:main.c        **** };
 111:main.c        **** int ChartoInt(char t_){
 185              		.loc 1 111 0
 186              		.cfi_startproc
 187              		@ args = 0, pretend = 0, frame = 0
 188              		@ frame_needed = 0, uses_anonymous_args = 0
 189              		@ link register save eliminated.
 190              	.LVL15:
 112:main.c        ****     return t_ - '0';
 113:main.c        **** };
 191              		.loc 1 113 0
 192 0000 3038     		subs	r0, r0, #48
 193              	.LVL16:
 194 0002 7047     		bx	lr
 195              		.cfi_endproc
 196              	.LFE68:
 197              		.size	ChartoInt, .-ChartoInt
 198              		.section	.text.main,"ax",%progbits
 199              		.align	2
 200              		.global	main
 201              		.thumb
 202              		.thumb_func
 203              		.type	main, %function
 204              	main:
 205              	.LFB64:
  17:main.c        ****     CyGlobalIntEnable;
 206              		.loc 1 17 0
 207              		.cfi_startproc
 208              		@ Volatile: function does not return.
 209              		@ args = 0, pretend = 0, frame = 0
 210              		@ frame_needed = 0, uses_anonymous_args = 0
 211 0000 08B5     		push	{r3, lr}
 212              		.cfi_def_cfa_offset 8
 213              		.cfi_offset 3, -8
 214              		.cfi_offset 14, -4
  18:main.c        ****     UART_Start();
 215              		.loc 1 18 0
 216              		.syntax unified
 217              	@ 18 "main.c" 1
 218 0002 62B6     		CPSIE   i
 219              	@ 0 "" 2
  19:main.c        ****     EEPROM_Start();
 220              		.loc 1 19 0
 221              		.thumb
 222              		.syntax unified
 223 0004 FFF7FEFF 		bl	UART_Start
 224              	.LVL17:
  20:main.c        ****     isr_UART_StartEx(UART_handler);
 225              		.loc 1 20 0
ARM GAS  C:\Users\isaac\AppData\Local\Temp\ccmoftDY.s 			page 7


 226 0008 FFF7FEFF 		bl	EEPROM_Start
 227              	.LVL18:
  21:main.c        ****     isr_RESET_StartEx(RESET_handler);
 228              		.loc 1 21 0
 229 000c 4D48     		ldr	r0, .L32
 230 000e FFF7FEFF 		bl	isr_UART_StartEx
 231              	.LVL19:
  22:main.c        ****     isr_RESTART_StartEx(RESTART_handler);
 232              		.loc 1 22 0
 233 0012 4D48     		ldr	r0, .L32+4
 234 0014 FFF7FEFF 		bl	isr_RESET_StartEx
 235              	.LVL20:
  23:main.c        ****     for(;;)
 236              		.loc 1 23 0
 237 0018 4C48     		ldr	r0, .L32+8
 238 001a FFF7FEFF 		bl	isr_RESTART_StartEx
 239              	.LVL21:
 240              	.L19:
  26:main.c        ****             case 'f':
 241              		.loc 1 26 0
 242 001e 4C4B     		ldr	r3, .L32+12
 243 0020 1B78     		ldrb	r3, [r3]	@ zero_extendqisi2
 244 0022 613B     		subs	r3, r3, #97
 245 0024 122B     		cmp	r3, #18
 246 0026 FAD8     		bhi	.L19
 247 0028 01A2     		adr	r2, .L21
 248 002a 52F823F0 		ldr	pc, [r2, r3, lsl #2]
 249 002e 00BF     		.p2align 2
 250              	.L21:
 251 0030 D9000000 		.word	.L20+1
 252 0034 F7000000 		.word	.L22+1
 253 0038 07010000 		.word	.L23+1
 254 003c 1F000000 		.word	.L19+1
 255 0040 1F000000 		.word	.L19+1
 256 0044 7D000000 		.word	.L24+1
 257 0048 1F000000 		.word	.L19+1
 258 004c 1F000000 		.word	.L19+1
 259 0050 AB000000 		.word	.L25+1
 260 0054 1F000000 		.word	.L19+1
 261 0058 1F000000 		.word	.L19+1
 262 005c 1F000000 		.word	.L19+1
 263 0060 1F000000 		.word	.L19+1
 264 0064 1F000000 		.word	.L19+1
 265 0068 1F000000 		.word	.L19+1
 266 006c 1F000000 		.word	.L19+1
 267 0070 1F000000 		.word	.L19+1
 268 0074 1F000000 		.word	.L19+1
 269 0078 17010000 		.word	.L26+1
 270              		.p2align 1
 271              	.L24:
  28:main.c        ****                 if(val_r[0] != 'n'){
 272              		.loc 1 28 0
 273 007c 0020     		movs	r0, #0
 274 007e FFF7FEFF 		bl	EEPROM_ReadByte
 275              	.LVL22:
 276 0082 344B     		ldr	r3, .L32+16
 277 0084 1870     		strb	r0, [r3]
ARM GAS  C:\Users\isaac\AppData\Local\Temp\ccmoftDY.s 			page 8


  29:main.c        ****                         state = 'i';
 278              		.loc 1 29 0
 279 0086 6E28     		cmp	r0, #110
 280 0088 03D0     		beq	.L27
  30:main.c        ****                 }
 281              		.loc 1 30 0
 282 008a 6922     		movs	r2, #105
 283 008c 304B     		ldr	r3, .L32+12
 284 008e 1A70     		strb	r2, [r3]
 285 0090 C5E7     		b	.L19
 286              	.L27:
  33:main.c        ****                 EEPROM_WriteByte(ins_1, 1);
 287              		.loc 1 33 0
 288 0092 2F4C     		ldr	r4, .L32+12
 289 0094 0021     		movs	r1, #0
 290 0096 6078     		ldrb	r0, [r4, #1]	@ zero_extendqisi2
 291 0098 FFF7FEFF 		bl	EEPROM_WriteByte
 292              	.LVL23:
  34:main.c        ****                 state = 'i';
 293              		.loc 1 34 0
 294 009c 0121     		movs	r1, #1
 295 009e 6078     		ldrb	r0, [r4, #1]	@ zero_extendqisi2
 296 00a0 FFF7FEFF 		bl	EEPROM_WriteByte
 297              	.LVL24:
  35:main.c        ****                 }
 298              		.loc 1 35 0
 299 00a4 6923     		movs	r3, #105
 300 00a6 2370     		strb	r3, [r4]
 301 00a8 B9E7     		b	.L19
 302              	.L25:
  39:main.c        ****                 val_r[1] = EEPROM_ReadByte(1);
 303              		.loc 1 39 0
 304 00aa 0020     		movs	r0, #0
 305 00ac FFF7FEFF 		bl	EEPROM_ReadByte
 306              	.LVL25:
 307 00b0 284C     		ldr	r4, .L32+16
 308 00b2 2070     		strb	r0, [r4]
  40:main.c        ****                 if(val_r[0] != 'n'){
 309              		.loc 1 40 0
 310 00b4 0120     		movs	r0, #1
 311 00b6 FFF7FEFF 		bl	EEPROM_ReadByte
 312              	.LVL26:
 313 00ba 6070     		strb	r0, [r4, #1]
  41:main.c        ****                     state = 'a';
 314              		.loc 1 41 0
 315 00bc 2378     		ldrb	r3, [r4]	@ zero_extendqisi2
 316 00be 6E2B     		cmp	r3, #110
 317 00c0 03D0     		beq	.L29
  42:main.c        ****                 }
 318              		.loc 1 42 0
 319 00c2 6122     		movs	r2, #97
 320 00c4 224B     		ldr	r3, .L32+12
 321 00c6 1A70     		strb	r2, [r3]
 322 00c8 A9E7     		b	.L19
 323              	.L29:
  45:main.c        ****                     state = 'b';
 324              		.loc 1 45 0
ARM GAS  C:\Users\isaac\AppData\Local\Temp\ccmoftDY.s 			page 9


 325 00ca 2348     		ldr	r0, .L32+20
 326 00cc FFF7FEFF 		bl	UART_PutString
 327              	.LVL27:
  46:main.c        ****                 }
 328              		.loc 1 46 0
 329 00d0 6222     		movs	r2, #98
 330 00d2 1F4B     		ldr	r3, .L32+12
 331 00d4 1A70     		strb	r2, [r3]
 332 00d6 A2E7     		b	.L19
 333              	.L20:
  50:main.c        ****                     state = 's';
 334              		.loc 1 50 0
 335 00d8 1E4B     		ldr	r3, .L32+16
 336 00da 5B78     		ldrb	r3, [r3, #1]	@ zero_extendqisi2
 337 00dc 6E2B     		cmp	r3, #110
 338 00de 03D0     		beq	.L30
  51:main.c        ****                 }
 339              		.loc 1 51 0
 340 00e0 7322     		movs	r2, #115
 341 00e2 1B4B     		ldr	r3, .L32+12
 342 00e4 1A70     		strb	r2, [r3]
 343 00e6 9AE7     		b	.L19
 344              	.L30:
  54:main.c        ****                     state = 'c';
 345              		.loc 1 54 0
 346 00e8 1C48     		ldr	r0, .L32+24
 347 00ea FFF7FEFF 		bl	UART_PutString
 348              	.LVL28:
  55:main.c        ****                 }
 349              		.loc 1 55 0
 350 00ee 6322     		movs	r2, #99
 351 00f0 174B     		ldr	r3, .L32+12
 352 00f2 1A70     		strb	r2, [r3]
 353 00f4 93E7     		b	.L19
 354              	.L22:
  59:main.c        ****                     state = 'a';
 355              		.loc 1 59 0
 356 00f6 174B     		ldr	r3, .L32+16
 357 00f8 1B78     		ldrb	r3, [r3]	@ zero_extendqisi2
 358 00fa 6E2B     		cmp	r3, #110
 359 00fc 8FD0     		beq	.L19
  60:main.c        ****                 }
 360              		.loc 1 60 0
 361 00fe 6122     		movs	r2, #97
 362 0100 134B     		ldr	r3, .L32+12
 363 0102 1A70     		strb	r2, [r3]
 364 0104 8BE7     		b	.L19
 365              	.L23:
  64:main.c        ****                     state = 's';
 366              		.loc 1 64 0
 367 0106 134B     		ldr	r3, .L32+16
 368 0108 5B78     		ldrb	r3, [r3, #1]	@ zero_extendqisi2
 369 010a 6E2B     		cmp	r3, #110
 370 010c 87D0     		beq	.L19
  65:main.c        ****                 }
 371              		.loc 1 65 0
 372 010e 7322     		movs	r2, #115
ARM GAS  C:\Users\isaac\AppData\Local\Temp\ccmoftDY.s 			page 10


 373 0110 0F4B     		ldr	r3, .L32+12
 374 0112 1A70     		strb	r2, [r3]
 375 0114 83E7     		b	.L19
 376              	.L26:
  69:main.c        ****                     sprintf(msg, "Your sum is %d \n", sum);
 377              		.loc 1 69 0
 378 0116 0F4D     		ldr	r5, .L32+16
 379 0118 2878     		ldrb	r0, [r5]	@ zero_extendqisi2
 380 011a FFF7FEFF 		bl	ChartoInt
 381              	.LVL29:
 382 011e 0446     		mov	r4, r0
 383 0120 6878     		ldrb	r0, [r5, #1]	@ zero_extendqisi2
 384 0122 FFF7FEFF 		bl	ChartoInt
 385              	.LVL30:
 386 0126 2218     		adds	r2, r4, r0
 387 0128 0D4B     		ldr	r3, .L32+28
 388 012a 1A60     		str	r2, [r3]
  70:main.c        ****                     UART_PutString(msg);
 389              		.loc 1 70 0
 390 012c 0D4C     		ldr	r4, .L32+32
 391 012e 0E49     		ldr	r1, .L32+36
 392 0130 2046     		mov	r0, r4
 393 0132 FFF7FEFF 		bl	sprintf
 394              	.LVL31:
  71:main.c        ****                     state = 'p';
 395              		.loc 1 71 0
 396 0136 2046     		mov	r0, r4
 397 0138 FFF7FEFF 		bl	UART_PutString
 398              	.LVL32:
  72:main.c        ****                 break;
 399              		.loc 1 72 0
 400 013c 7022     		movs	r2, #112
 401 013e 044B     		ldr	r3, .L32+12
 402 0140 1A70     		strb	r2, [r3]
  73:main.c        ****             case 'p':
 403              		.loc 1 73 0
 404 0142 6CE7     		b	.L19
 405              	.L33:
 406              		.align	2
 407              	.L32:
 408 0144 00000000 		.word	UART_handler
 409 0148 00000000 		.word	RESET_handler
 410 014c 00000000 		.word	RESTART_handler
 411 0150 00000000 		.word	.LANCHOR0
 412 0154 00000000 		.word	val_r
 413 0158 00000000 		.word	.LC0
 414 015c 20000000 		.word	.LC1
 415 0160 00000000 		.word	sum
 416 0164 00000000 		.word	msg
 417 0168 40000000 		.word	.LC2
 418              		.cfi_endproc
 419              	.LFE64:
 420              		.size	main, .-main
 421              		.comm	sum,4,4
 422              		.global	ins_1
 423              		.global	state
 424              		.comm	msg,40,4
ARM GAS  C:\Users\isaac\AppData\Local\Temp\ccmoftDY.s 			page 11


 425              		.comm	val_r,2,4
 426              		.comm	val,2,4
 427              		.data
 428              		.set	.LANCHOR0,. + 0
 429              		.type	state, %object
 430              		.size	state, 1
 431              	state:
 432 0000 66       		.byte	102
 433              		.type	ins_1, %object
 434              		.size	ins_1, 1
 435              	ins_1:
 436 0001 6E       		.byte	110
 437              		.section	.rodata.str1.4,"aMS",%progbits,1
 438              		.align	2
 439              	.LC0:
 440 0000 506C6173 		.ascii	"Plase input your first value \012\000"
 440      6520696E 
 440      70757420 
 440      796F7572 
 440      20666972 
 441 001f 00       		.space	1
 442              	.LC1:
 443 0020 506C6173 		.ascii	"Plase input your second value \012\000"
 443      6520696E 
 443      70757420 
 443      796F7572 
 443      20736563 
 444              	.LC2:
 445 0040 596F7572 		.ascii	"Your sum is %d \012\000"
 445      2073756D 
 445      20697320 
 445      2564200A 
 445      00
 446              		.text
 447              	.Letext0:
 448              		.file 2 "c:\\program files (x86)\\cypress\\psoc creator\\4.2\\psoc creator\\import\\gnu\\arm\\5.4.
 449              		.file 3 "c:\\program files (x86)\\cypress\\psoc creator\\4.2\\psoc creator\\import\\gnu\\arm\\5.4.
 450              		.file 4 "Generated_Source\\PSoC5/core_cm3.h"
 451              		.file 5 "Generated_Source\\PSoC5/UART.h"
 452              		.file 6 "Generated_Source\\PSoC5/EEPROM.h"
 453              		.file 7 "Generated_Source\\PSoC5/isr_UART.h"
 454              		.file 8 "Generated_Source\\PSoC5/BTN_1.h"
 455              		.file 9 "Generated_Source\\PSoC5/isr_RESET.h"
 456              		.file 10 "Generated_Source\\PSoC5/CyLib.h"
 457              		.file 11 "Generated_Source\\PSoC5/BTN_2.h"
 458              		.file 12 "Generated_Source\\PSoC5/isr_RESTART.h"
 459              		.file 13 "c:\\program files (x86)\\cypress\\psoc creator\\4.2\\psoc creator\\import\\gnu\\arm\\5.4