ARM GAS  C:\Users\isaac\AppData\Local\Temp\cchmdw5j.s 			page 1


   1              		.syntax unified
   2              		.cpu cortex-m3
   3              		.fpu softvfp
   4              		.eabi_attribute 20, 1
   5              		.eabi_attribute 21, 1
   6              		.eabi_attribute 23, 3
   7              		.eabi_attribute 24, 1
   8              		.eabi_attribute 25, 1
   9              		.eabi_attribute 26, 1
  10              		.eabi_attribute 30, 1
  11              		.eabi_attribute 34, 1
  12              		.eabi_attribute 18, 4
  13              		.thumb
  14              		.syntax unified
  15              		.file	"main.c"
  16              		.text
  17              	.Ltext0:
  18              		.cfi_sections	.debug_frame
  19              		.section	.text.com_handler,"ax",%progbits
  20              		.align	2
  21              		.global	com_handler
  22              		.thumb
  23              		.thumb_func
  24              		.type	com_handler, %function
  25              	com_handler:
  26              	.LFB64:
  27              		.file 1 "main.c"
   1:main.c        **** #include "project.h"
   2:main.c        **** 
   3:main.c        **** char codigo[32] = "WRE,08,08,08,08,08,08,08,08,08,F";
   4:main.c        **** char check[32] = "00000000000000000000000000000000";
   5:main.c        **** char foo;
   6:main.c        **** int cs = 0;
   7:main.c        **** int pass = 1;
   8:main.c        **** int comas = 0;
   9:main.c        **** int read = 1;
  10:main.c        **** int offset = 8;
  11:main.c        **** int adc[4];
  12:main.c        **** //Prototipo de funciones
  13:main.c        **** char intochar();
  14:main.c        **** void intostring();
  15:main.c        **** int chartoint();
  16:main.c        **** int stringtoint();
  17:main.c        **** CY_ISR_PROTO(com_handler);
  18:main.c        **** int main(void)
  19:main.c        **** {
  20:main.c        ****     CyGlobalIntEnable;
  21:main.c        ****     LCD_Start();
  22:main.c        ****     UART_Start();
  23:main.c        ****     ADC_Start();
  24:main.c        ****     ADC_StartConvert();
  25:main.c        ****     Clock_1_Start();
  26:main.c        ****     PWM_1_Start();
  27:main.c        ****     PWM_2_Start();
  28:main.c        ****     PWM_3_Start();
  29:main.c        ****     PWM_4_Start();
  30:main.c        ****     PWM_5_Start();
ARM GAS  C:\Users\isaac\AppData\Local\Temp\cchmdw5j.s 			page 2


  31:main.c        ****     PWM_6_Start();
  32:main.c        ****     PWM_7_Start();
  33:main.c        ****     PWM_8_Start();
  34:main.c        ****     PWM_9_Start();
  35:main.c        ****     com_StartEx(com_handler);
  36:main.c        ****     com_ClearPending();
  37:main.c        ****     for(;;)
  38:main.c        ****     {
  39:main.c        ****         //Read
  40:main.c        ****         adc[0] = (int)(((0.0055)*ADC_GetResult16(0)) + offset);
  41:main.c        ****         adc[1] = (int)(((0.0055)*ADC_GetResult16(1)) + offset);
  42:main.c        ****         adc[2] = (int)(((0.0055)*ADC_GetResult16(2)) + offset);
  43:main.c        ****         adc[3] = (int)(((0.0055)*ADC_GetResult16(3)) + offset);
  44:main.c        ****         //Manual
  45:main.c        ****         PWM_1_WriteCompare(stringtoint(&codigo[0],4,5));
  46:main.c        ****         PWM_2_WriteCompare(stringtoint(&codigo[0],7,8));
  47:main.c        ****         PWM_3_WriteCompare(stringtoint(&codigo[0],10,11));
  48:main.c        ****         PWM_4_WriteCompare(stringtoint(&codigo[0],13,14));
  49:main.c        ****         PWM_5_WriteCompare(stringtoint(&codigo[0],16,17));
  50:main.c        ****         PWM_9_WriteCompare(stringtoint(&codigo[0],28,29));
  51:main.c        ****         
  52:main.c        ****         if(MODE_Read() == 1){
  53:main.c        ****          //Routine Mode
  54:main.c        ****         PWM_6_WriteCompare(stringtoint(&codigo[0],19,20));
  55:main.c        ****         PWM_7_WriteCompare(stringtoint(&codigo[0],22,23));
  56:main.c        ****         PWM_8_WriteCompare(stringtoint(&codigo[0],25,26));
  57:main.c        ****         }
  58:main.c        ****         else{
  59:main.c        ****         PWM_6_WriteCompare(adc[0]);
  60:main.c        ****         PWM_7_WriteCompare(adc[1]);
  61:main.c        ****         PWM_8_WriteCompare(adc[2]); 
  62:main.c        ****         }
  63:main.c        ****         
  64:main.c        ****         LCD_ClearDisplay();
  65:main.c        ****         LCD_Position(0,0);
  66:main.c        ****         LCD_PrintString(codigo);
  67:main.c        ****         LCD_Position(1,0);
  68:main.c        ****         LCD_PrintNumber(comas);
  69:main.c        ****         CyDelay(30);
  70:main.c        ****     }
  71:main.c        **** }
  72:main.c        **** 
  73:main.c        **** CY_ISR(com_handler){
  28              		.loc 1 73 0
  29              		.cfi_startproc
  30              		@ args = 0, pretend = 0, frame = 0
  31              		@ frame_needed = 0, uses_anonymous_args = 0
  32 0000 10B5     		push	{r4, lr}
  33              		.cfi_def_cfa_offset 8
  34              		.cfi_offset 4, -8
  35              		.cfi_offset 14, -4
  74:main.c        ****     //UART_PutChar('r');
  75:main.c        ****     foo = UART_GetChar();
  36              		.loc 1 75 0
  37 0002 FFF7FEFF 		bl	UART_GetChar
  38              	.LVL0:
  39 0006 344B     		ldr	r3, .L15
ARM GAS  C:\Users\isaac\AppData\Local\Temp\cchmdw5j.s 			page 3


  40 0008 1870     		strb	r0, [r3]
  76:main.c        ****     if(foo == 'W'){
  41              		.loc 1 76 0
  42 000a 5728     		cmp	r0, #87
  43 000c 07D1     		bne	.L2
  77:main.c        ****         cs = 0;
  44              		.loc 1 77 0
  45 000e 3349     		ldr	r1, .L15+4
  46 0010 0024     		movs	r4, #0
  47 0012 0C60     		str	r4, [r1]
  78:main.c        ****         pass = 1;
  48              		.loc 1 78 0
  49 0014 324B     		ldr	r3, .L15+8
  50 0016 0122     		movs	r2, #1
  51 0018 1A60     		str	r2, [r3]
  79:main.c        ****         comas = 0;
  52              		.loc 1 79 0
  53 001a 4C60     		str	r4, [r1, #4]
  80:main.c        ****         read = 1;
  54              		.loc 1 80 0
  55 001c 5A60     		str	r2, [r3, #4]
  56              	.L2:
  81:main.c        ****     }
  82:main.c        ****     if(foo == ','){
  57              		.loc 1 82 0
  58 001e 2C28     		cmp	r0, #44
  59 0020 03D1     		bne	.L3
  83:main.c        ****         comas++;
  60              		.loc 1 83 0
  61 0022 2E4A     		ldr	r2, .L15+4
  62 0024 5368     		ldr	r3, [r2, #4]
  63 0026 0133     		adds	r3, r3, #1
  64 0028 5360     		str	r3, [r2, #4]
  65              	.L3:
  84:main.c        ****     }
  85:main.c        ****     if(read == 1){
  66              		.loc 1 85 0
  67 002a 2D4B     		ldr	r3, .L15+8
  68 002c 5B68     		ldr	r3, [r3, #4]
  69 002e 012B     		cmp	r3, #1
  70 0030 04D1     		bne	.L4
  86:main.c        ****      check[cs] = foo;
  71              		.loc 1 86 0
  72 0032 2A4B     		ldr	r3, .L15+4
  73 0034 1B68     		ldr	r3, [r3]
  74 0036 2A4A     		ldr	r2, .L15+8
  75 0038 1344     		add	r3, r3, r2
  76 003a 1872     		strb	r0, [r3, #8]
  77              	.L4:
  87:main.c        ****     }
  88:main.c        ****     if(cs == 3){
  78              		.loc 1 88 0
  79 003c 274B     		ldr	r3, .L15+4
  80 003e 1B68     		ldr	r3, [r3]
  81 0040 032B     		cmp	r3, #3
  82 0042 14D1     		bne	.L5
  89:main.c        ****         if(check[0] != 'W'){ pass = 0;}
ARM GAS  C:\Users\isaac\AppData\Local\Temp\cchmdw5j.s 			page 4


  83              		.loc 1 89 0
  84 0044 264A     		ldr	r2, .L15+8
  85 0046 127A     		ldrb	r2, [r2, #8]	@ zero_extendqisi2
  86 0048 572A     		cmp	r2, #87
  87 004a 02D0     		beq	.L6
  88              		.loc 1 89 0 is_stmt 0 discriminator 1
  89 004c 0021     		movs	r1, #0
  90 004e 244A     		ldr	r2, .L15+8
  91 0050 1160     		str	r1, [r2]
  92              	.L6:
  90:main.c        ****         if(check[1] != 'R'){ pass = 0;}
  93              		.loc 1 90 0 is_stmt 1
  94 0052 234A     		ldr	r2, .L15+8
  95 0054 527A     		ldrb	r2, [r2, #9]	@ zero_extendqisi2
  96 0056 522A     		cmp	r2, #82
  97 0058 02D0     		beq	.L7
  98              		.loc 1 90 0 is_stmt 0 discriminator 1
  99 005a 0021     		movs	r1, #0
 100 005c 204A     		ldr	r2, .L15+8
 101 005e 1160     		str	r1, [r2]
 102              	.L7:
  91:main.c        ****         if(check[2] != 'E'){ pass = 0;}
 103              		.loc 1 91 0 is_stmt 1
 104 0060 1F4A     		ldr	r2, .L15+8
 105 0062 927A     		ldrb	r2, [r2, #10]	@ zero_extendqisi2
 106 0064 452A     		cmp	r2, #69
 107 0066 02D0     		beq	.L5
 108              		.loc 1 91 0 is_stmt 0 discriminator 1
 109 0068 0021     		movs	r1, #0
 110 006a 1D4A     		ldr	r2, .L15+8
 111 006c 1160     		str	r1, [r2]
 112              	.L5:
  92:main.c        ****     }
  93:main.c        ****     if(cs == 31){
 113              		.loc 1 93 0 is_stmt 1
 114 006e 1F2B     		cmp	r3, #31
 115 0070 14D1     		bne	.L8
  94:main.c        ****         if(check[0] != 'W'){ pass = 0;}
 116              		.loc 1 94 0
 117 0072 1B4A     		ldr	r2, .L15+8
 118 0074 127A     		ldrb	r2, [r2, #8]	@ zero_extendqisi2
 119 0076 572A     		cmp	r2, #87
 120 0078 02D0     		beq	.L9
 121              		.loc 1 94 0 is_stmt 0 discriminator 1
 122 007a 0021     		movs	r1, #0
 123 007c 184A     		ldr	r2, .L15+8
 124 007e 1160     		str	r1, [r2]
 125              	.L9:
  95:main.c        ****         if(check[1] != 'R'){ pass = 0;}
 126              		.loc 1 95 0 is_stmt 1
 127 0080 174A     		ldr	r2, .L15+8
 128 0082 527A     		ldrb	r2, [r2, #9]	@ zero_extendqisi2
 129 0084 522A     		cmp	r2, #82
 130 0086 02D0     		beq	.L10
 131              		.loc 1 95 0 is_stmt 0 discriminator 1
 132 0088 0021     		movs	r1, #0
 133 008a 154A     		ldr	r2, .L15+8
ARM GAS  C:\Users\isaac\AppData\Local\Temp\cchmdw5j.s 			page 5


 134 008c 1160     		str	r1, [r2]
 135              	.L10:
  96:main.c        ****         if(check[2] != 'E'){ pass = 0;}
 136              		.loc 1 96 0 is_stmt 1
 137 008e 144A     		ldr	r2, .L15+8
 138 0090 927A     		ldrb	r2, [r2, #10]	@ zero_extendqisi2
 139 0092 452A     		cmp	r2, #69
 140 0094 02D0     		beq	.L8
 141              		.loc 1 96 0 is_stmt 0 discriminator 1
 142 0096 0021     		movs	r1, #0
 143 0098 114A     		ldr	r2, .L15+8
 144 009a 1160     		str	r1, [r2]
 145              	.L8:
  97:main.c        ****     }
  98:main.c        ****     if((foo == 'F')&&(cs==31)&&(pass == 1)&&(comas == 10)){
 146              		.loc 1 98 0 is_stmt 1
 147 009c 4628     		cmp	r0, #70
 148 009e 15D1     		bne	.L11
 149              		.loc 1 98 0 is_stmt 0 discriminator 1
 150 00a0 1F2B     		cmp	r3, #31
 151 00a2 13D1     		bne	.L11
 152              		.loc 1 98 0 discriminator 2
 153 00a4 0E4A     		ldr	r2, .L15+8
 154 00a6 1268     		ldr	r2, [r2]
 155 00a8 012A     		cmp	r2, #1
 156 00aa 0FD1     		bne	.L11
 157              		.loc 1 98 0 discriminator 3
 158 00ac 0B4A     		ldr	r2, .L15+4
 159 00ae 5268     		ldr	r2, [r2, #4]
 160 00b0 0A2A     		cmp	r2, #10
 161 00b2 0BD1     		bne	.L11
  99:main.c        ****          read = 0;
 162              		.loc 1 99 0 is_stmt 1
 163 00b4 0021     		movs	r1, #0
 164 00b6 0A4A     		ldr	r2, .L15+8
 165 00b8 5160     		str	r1, [r2, #4]
 166              	.LVL1:
 167              	.LBB2:
 100:main.c        ****         for(int i = 0; i < 32; i++){
 168              		.loc 1 100 0
 169 00ba 05E0     		b	.L12
 170              	.LVL2:
 171              	.L13:
 101:main.c        ****             codigo[i] = check[i];
 172              		.loc 1 101 0 discriminator 3
 173 00bc 084A     		ldr	r2, .L15+8
 174 00be 0A44     		add	r2, r2, r1
 175 00c0 107A     		ldrb	r0, [r2, #8]	@ zero_extendqisi2
 176 00c2 82F82800 		strb	r0, [r2, #40]
 100:main.c        ****         for(int i = 0; i < 32; i++){
 177              		.loc 1 100 0 discriminator 3
 178 00c6 0131     		adds	r1, r1, #1
 179              	.LVL3:
 180              	.L12:
 100:main.c        ****         for(int i = 0; i < 32; i++){
 181              		.loc 1 100 0 is_stmt 0 discriminator 1
 182 00c8 1F29     		cmp	r1, #31
ARM GAS  C:\Users\isaac\AppData\Local\Temp\cchmdw5j.s 			page 6


 183 00ca F7DD     		ble	.L13
 184              	.LVL4:
 185              	.L11:
 186              	.LBE2:
 102:main.c        ****         }
 103:main.c        ****     }
 104:main.c        ****     cs++;
 187              		.loc 1 104 0 is_stmt 1
 188 00cc 0133     		adds	r3, r3, #1
 189 00ce 034A     		ldr	r2, .L15+4
 190 00d0 1360     		str	r3, [r2]
 105:main.c        ****     com_ClearPending();
 191              		.loc 1 105 0
 192 00d2 FFF7FEFF 		bl	com_ClearPending
 193              	.LVL5:
 194 00d6 10BD     		pop	{r4, pc}
 195              	.L16:
 196              		.align	2
 197              	.L15:
 198 00d8 00000000 		.word	foo
 199 00dc 00000000 		.word	.LANCHOR0
 200 00e0 00000000 		.word	.LANCHOR1
 201              		.cfi_endproc
 202              	.LFE64:
 203              		.size	com_handler, .-com_handler
 204              		.section	.text.intochar,"ax",%progbits
 205              		.align	2
 206              		.global	intochar
 207              		.thumb
 208              		.thumb_func
 209              		.type	intochar, %function
 210              	intochar:
 211              	.LFB65:
 106:main.c        **** }
 107:main.c        **** 
 108:main.c        **** 
 109:main.c        **** 
 110:main.c        **** //Funciones de conversion
 111:main.c        **** char intochar(int temp){
 212              		.loc 1 111 0
 213              		.cfi_startproc
 214              		@ args = 0, pretend = 0, frame = 0
 215              		@ frame_needed = 0, uses_anonymous_args = 0
 216              		@ link register save eliminated.
 217              	.LVL6:
 112:main.c        ****     if (temp == 0){ return '0'; }
 218              		.loc 1 112 0
 219 0000 98B1     		cbz	r0, .L19
 113:main.c        ****     else if(temp == 1){return '1';}
 220              		.loc 1 113 0
 221 0002 0128     		cmp	r0, #1
 222 0004 13D0     		beq	.L20
 114:main.c        ****     else if(temp == 2){return '2';}
 223              		.loc 1 114 0
 224 0006 0228     		cmp	r0, #2
 225 0008 13D0     		beq	.L21
 115:main.c        ****     else if(temp == 3){return '3';}
ARM GAS  C:\Users\isaac\AppData\Local\Temp\cchmdw5j.s 			page 7


 226              		.loc 1 115 0
 227 000a 0328     		cmp	r0, #3
 228 000c 13D0     		beq	.L22
 116:main.c        ****     else if(temp == 4){return '4';}
 229              		.loc 1 116 0
 230 000e 0428     		cmp	r0, #4
 231 0010 13D0     		beq	.L23
 117:main.c        ****     else if(temp == 5){return '5';}
 232              		.loc 1 117 0
 233 0012 0528     		cmp	r0, #5
 234 0014 13D0     		beq	.L24
 118:main.c        ****     else if(temp == 6){return '6';}
 235              		.loc 1 118 0
 236 0016 0628     		cmp	r0, #6
 237 0018 13D0     		beq	.L25
 119:main.c        ****     else if(temp == 7){return '7';}
 238              		.loc 1 119 0
 239 001a 0728     		cmp	r0, #7
 240 001c 13D0     		beq	.L26
 120:main.c        ****     else if(temp == 8){return '8';}
 241              		.loc 1 120 0
 242 001e 0828     		cmp	r0, #8
 243 0020 13D0     		beq	.L27
 121:main.c        ****     else if(temp == 9){return '9';}
 244              		.loc 1 121 0
 245 0022 0928     		cmp	r0, #9
 246 0024 13D1     		bne	.L28
 247 0026 3920     		movs	r0, #57
 248              	.LVL7:
 249 0028 7047     		bx	lr
 250              	.LVL8:
 251              	.L19:
 112:main.c        ****     else if(temp == 1){return '1';}
 252              		.loc 1 112 0
 253 002a 3020     		movs	r0, #48
 254              	.LVL9:
 255 002c 7047     		bx	lr
 256              	.LVL10:
 257              	.L20:
 113:main.c        ****     else if(temp == 2){return '2';}
 258              		.loc 1 113 0
 259 002e 3120     		movs	r0, #49
 260              	.LVL11:
 261 0030 7047     		bx	lr
 262              	.LVL12:
 263              	.L21:
 114:main.c        ****     else if(temp == 3){return '3';}
 264              		.loc 1 114 0
 265 0032 3220     		movs	r0, #50
 266              	.LVL13:
 267 0034 7047     		bx	lr
 268              	.LVL14:
 269              	.L22:
 115:main.c        ****     else if(temp == 4){return '4';}
 270              		.loc 1 115 0
 271 0036 3320     		movs	r0, #51
 272              	.LVL15:
ARM GAS  C:\Users\isaac\AppData\Local\Temp\cchmdw5j.s 			page 8


 273 0038 7047     		bx	lr
 274              	.LVL16:
 275              	.L23:
 116:main.c        ****     else if(temp == 5){return '5';}
 276              		.loc 1 116 0
 277 003a 3420     		movs	r0, #52
 278              	.LVL17:
 279 003c 7047     		bx	lr
 280              	.LVL18:
 281              	.L24:
 117:main.c        ****     else if(temp == 6){return '6';}
 282              		.loc 1 117 0
 283 003e 3520     		movs	r0, #53
 284              	.LVL19:
 285 0040 7047     		bx	lr
 286              	.LVL20:
 287              	.L25:
 118:main.c        ****     else if(temp == 7){return '7';}
 288              		.loc 1 118 0
 289 0042 3620     		movs	r0, #54
 290              	.LVL21:
 291 0044 7047     		bx	lr
 292              	.LVL22:
 293              	.L26:
 119:main.c        ****     else if(temp == 8){return '8';}
 294              		.loc 1 119 0
 295 0046 3720     		movs	r0, #55
 296              	.LVL23:
 297 0048 7047     		bx	lr
 298              	.LVL24:
 299              	.L27:
 120:main.c        ****     else if(temp == 9){return '9';}
 300              		.loc 1 120 0
 301 004a 3820     		movs	r0, #56
 302              	.LVL25:
 303 004c 7047     		bx	lr
 304              	.LVL26:
 305              	.L28:
 122:main.c        ****     else {return 'x';} 
 306              		.loc 1 122 0
 307 004e 7820     		movs	r0, #120
 308              	.LVL27:
 123:main.c        **** }
 309              		.loc 1 123 0
 310 0050 7047     		bx	lr
 311              		.cfi_endproc
 312              	.LFE65:
 313              		.size	intochar, .-intochar
 314 0052 00BF     		.section	.text.intostring,"ax",%progbits
 315              		.align	2
 316              		.global	intostring
 317              		.thumb
 318              		.thumb_func
 319              		.type	intostring, %function
 320              	intostring:
 321              	.LFB66:
 124:main.c        **** 
ARM GAS  C:\Users\isaac\AppData\Local\Temp\cchmdw5j.s 			page 9


 125:main.c        **** void intostring(int temp, char *str){
 322              		.loc 1 125 0
 323              		.cfi_startproc
 324              		@ args = 0, pretend = 0, frame = 0
 325              		@ frame_needed = 0, uses_anonymous_args = 0
 326              	.LVL28:
 327 0000 70B5     		push	{r4, r5, r6, lr}
 328              		.cfi_def_cfa_offset 16
 329              		.cfi_offset 4, -16
 330              		.cfi_offset 5, -12
 331              		.cfi_offset 6, -8
 332              		.cfi_offset 14, -4
 333 0002 0546     		mov	r5, r0
 334 0004 0E46     		mov	r6, r1
 126:main.c        ****     *str = intochar((temp/10)%10);
 335              		.loc 1 126 0
 336 0006 0D4B     		ldr	r3, .L31
 337 0008 83FB0024 		smull	r2, r4, r3, r0
 338 000c C217     		asrs	r2, r0, #31
 339 000e C2EBA404 		rsb	r4, r2, r4, asr #2
 340 0012 83FB0423 		smull	r2, r3, r3, r4
 341 0016 E217     		asrs	r2, r4, #31
 342 0018 C2EBA303 		rsb	r3, r2, r3, asr #2
 343 001c 03EB8303 		add	r3, r3, r3, lsl #2
 344 0020 5800     		lsls	r0, r3, #1
 345              	.LVL29:
 346 0022 201A     		subs	r0, r4, r0
 347 0024 FFF7FEFF 		bl	intochar
 348              	.LVL30:
 349 0028 3070     		strb	r0, [r6]
 350              	.LVL31:
 127:main.c        ****     str++;
 128:main.c        ****     *str = intochar(temp%10);
 351              		.loc 1 128 0
 352 002a 04EB8404 		add	r4, r4, r4, lsl #2
 353 002e 6000     		lsls	r0, r4, #1
 354 0030 281A     		subs	r0, r5, r0
 355 0032 FFF7FEFF 		bl	intochar
 356              	.LVL32:
 357 0036 7070     		strb	r0, [r6, #1]
 358 0038 70BD     		pop	{r4, r5, r6, pc}
 359              	.LVL33:
 360              	.L32:
 361 003a 00BF     		.align	2
 362              	.L31:
 363 003c 67666666 		.word	1717986919
 364              		.cfi_endproc
 365              	.LFE66:
 366              		.size	intostring, .-intostring
 367              		.section	.text.stringtoint,"ax",%progbits
 368              		.align	2
 369              		.global	stringtoint
 370              		.thumb
 371              		.thumb_func
 372              		.type	stringtoint, %function
 373              	stringtoint:
 374              	.LFB67:
ARM GAS  C:\Users\isaac\AppData\Local\Temp\cchmdw5j.s 			page 10


 129:main.c        **** }
 130:main.c        **** //Funcion de str a int
 131:main.c        **** 
 132:main.c        **** int stringtoint(char *str, int lv, int hv){
 375              		.loc 1 132 0
 376              		.cfi_startproc
 377              		@ args = 0, pretend = 0, frame = 0
 378              		@ frame_needed = 0, uses_anonymous_args = 0
 379              		@ link register save eliminated.
 380              	.LVL34:
 381 0000 F0B4     		push	{r4, r5, r6, r7}
 382              		.cfi_def_cfa_offset 16
 383              		.cfi_offset 4, -16
 384              		.cfi_offset 5, -12
 385              		.cfi_offset 6, -8
 386              		.cfi_offset 7, -4
 387              	.LVL35:
 133:main.c        ****     int pos = 1;
 134:main.c        ****     char temp;
 135:main.c        ****     int numtemp;
 136:main.c        ****     int result = 0;
 388              		.loc 1 136 0
 389 0002 0025     		movs	r5, #0
 133:main.c        ****     int pos = 1;
 390              		.loc 1 133 0
 391 0004 0124     		movs	r4, #1
 392              	.LBB3:
 137:main.c        ****     
 138:main.c        ****     for(int i = lv; i <= hv; i++){
 393              		.loc 1 138 0
 394 0006 33E0     		b	.L34
 395              	.LVL36:
 396              	.L38:
 139:main.c        ****     temp = *(str + i);
 397              		.loc 1 139 0
 398 0008 435C     		ldrb	r3, [r0, r1]	@ zero_extendqisi2
 399              	.LVL37:
 140:main.c        ****      if (temp == '0'){ numtemp = 0; }
 400              		.loc 1 140 0
 401 000a 302B     		cmp	r3, #48
 402 000c 13D0     		beq	.L39
 141:main.c        ****     else if(temp == '1'){numtemp = 1;}
 403              		.loc 1 141 0
 404 000e 312B     		cmp	r3, #49
 405 0010 13D0     		beq	.L40
 142:main.c        ****     else if(temp == '2'){numtemp = 2;}
 406              		.loc 1 142 0
 407 0012 322B     		cmp	r3, #50
 408 0014 13D0     		beq	.L41
 143:main.c        ****     else if(temp == '3'){numtemp = 3;}
 409              		.loc 1 143 0
 410 0016 332B     		cmp	r3, #51
 411 0018 13D0     		beq	.L42
 144:main.c        ****     else if(temp == '4'){numtemp = 4;}
 412              		.loc 1 144 0
 413 001a 342B     		cmp	r3, #52
 414 001c 13D0     		beq	.L43
ARM GAS  C:\Users\isaac\AppData\Local\Temp\cchmdw5j.s 			page 11


 145:main.c        ****     else if(temp == '5'){numtemp = 5;}
 415              		.loc 1 145 0
 416 001e 352B     		cmp	r3, #53
 417 0020 13D0     		beq	.L44
 146:main.c        ****     else if(temp == '6'){numtemp = 6;}
 418              		.loc 1 146 0
 419 0022 362B     		cmp	r3, #54
 420 0024 13D0     		beq	.L45
 147:main.c        ****     else if(temp == '7'){numtemp = 7;}
 421              		.loc 1 147 0
 422 0026 372B     		cmp	r3, #55
 423 0028 13D0     		beq	.L46
 148:main.c        ****     else if(temp == '8'){numtemp = 8;}
 424              		.loc 1 148 0
 425 002a 382B     		cmp	r3, #56
 426 002c 13D0     		beq	.L47
 149:main.c        ****     else if(temp == '9'){numtemp = 9;}
 427              		.loc 1 149 0
 428 002e 392B     		cmp	r3, #57
 429 0030 13D1     		bne	.L48
 430 0032 0923     		movs	r3, #9
 431              	.LVL38:
 432 0034 12E0     		b	.L35
 433              	.LVL39:
 434              	.L39:
 140:main.c        ****     else if(temp == '1'){numtemp = 1;}
 435              		.loc 1 140 0
 436 0036 0023     		movs	r3, #0
 437              	.LVL40:
 438 0038 10E0     		b	.L35
 439              	.LVL41:
 440              	.L40:
 141:main.c        ****     else if(temp == '2'){numtemp = 2;}
 441              		.loc 1 141 0
 442 003a 0123     		movs	r3, #1
 443              	.LVL42:
 444 003c 0EE0     		b	.L35
 445              	.LVL43:
 446              	.L41:
 142:main.c        ****     else if(temp == '3'){numtemp = 3;}
 447              		.loc 1 142 0
 448 003e 0223     		movs	r3, #2
 449              	.LVL44:
 450 0040 0CE0     		b	.L35
 451              	.LVL45:
 452              	.L42:
 143:main.c        ****     else if(temp == '4'){numtemp = 4;}
 453              		.loc 1 143 0
 454 0042 0323     		movs	r3, #3
 455              	.LVL46:
 456 0044 0AE0     		b	.L35
 457              	.LVL47:
 458              	.L43:
 144:main.c        ****     else if(temp == '5'){numtemp = 5;}
 459              		.loc 1 144 0
 460 0046 0423     		movs	r3, #4
 461              	.LVL48:
ARM GAS  C:\Users\isaac\AppData\Local\Temp\cchmdw5j.s 			page 12


 462 0048 08E0     		b	.L35
 463              	.LVL49:
 464              	.L44:
 145:main.c        ****     else if(temp == '6'){numtemp = 6;}
 465              		.loc 1 145 0
 466 004a 0523     		movs	r3, #5
 467              	.LVL50:
 468 004c 06E0     		b	.L35
 469              	.LVL51:
 470              	.L45:
 146:main.c        ****     else if(temp == '7'){numtemp = 7;}
 471              		.loc 1 146 0
 472 004e 0623     		movs	r3, #6
 473              	.LVL52:
 474 0050 04E0     		b	.L35
 475              	.LVL53:
 476              	.L46:
 147:main.c        ****     else if(temp == '8'){numtemp = 8;}
 477              		.loc 1 147 0
 478 0052 0723     		movs	r3, #7
 479              	.LVL54:
 480 0054 02E0     		b	.L35
 481              	.LVL55:
 482              	.L47:
 148:main.c        ****     else if(temp == '9'){numtemp = 9;}
 483              		.loc 1 148 0
 484 0056 0823     		movs	r3, #8
 485              	.LVL56:
 486 0058 00E0     		b	.L35
 487              	.LVL57:
 488              	.L48:
 150:main.c        ****     else {numtemp = 0;}
 489              		.loc 1 150 0
 490 005a 0023     		movs	r3, #0
 491              	.LVL58:
 492              	.L35:
 151:main.c        ****     if(pos == 1){result += numtemp*10;}
 493              		.loc 1 151 0
 494 005c 012C     		cmp	r4, #1
 495 005e 03D1     		bne	.L36
 496              		.loc 1 151 0 is_stmt 0 discriminator 1
 497 0060 03EB8307 		add	r7, r3, r3, lsl #2
 498 0064 7E00     		lsls	r6, r7, #1
 499 0066 3544     		add	r5, r5, r6
 500              	.LVL59:
 501              	.L36:
 152:main.c        ****     if(pos == 0){result += numtemp;}
 502              		.loc 1 152 0 is_stmt 1
 503 0068 04B9     		cbnz	r4, .L37
 504              		.loc 1 152 0 is_stmt 0 discriminator 1
 505 006a 1D44     		add	r5, r5, r3
 506              	.LVL60:
 507              	.L37:
 153:main.c        ****     pos--;
 508              		.loc 1 153 0 is_stmt 1 discriminator 2
 509 006c 013C     		subs	r4, r4, #1
 510              	.LVL61:
ARM GAS  C:\Users\isaac\AppData\Local\Temp\cchmdw5j.s 			page 13


 138:main.c        ****     temp = *(str + i);
 511              		.loc 1 138 0 discriminator 2
 512 006e 0131     		adds	r1, r1, #1
 513              	.LVL62:
 514              	.L34:
 138:main.c        ****     temp = *(str + i);
 515              		.loc 1 138 0 is_stmt 0 discriminator 1
 516 0070 9142     		cmp	r1, r2
 517 0072 C9DD     		ble	.L38
 518              	.LBE3:
 154:main.c        ****     }
 155:main.c        ****     return result;
 156:main.c        **** }...
 519              		.loc 1 156 0 is_stmt 1
 520 0074 2846     		mov	r0, r5
 521              	.LVL63:
 522 0076 F0BC     		pop	{r4, r5, r6, r7}
 523              		.cfi_restore 7
 524              		.cfi_restore 6
 525              		.cfi_restore 5
 526              		.cfi_restore 4
 527              		.cfi_def_cfa_offset 0
 528              	.LVL64:
 529 0078 7047     		bx	lr
 530              		.cfi_endproc
 531              	.LFE67:
 532              		.size	stringtoint, .-stringtoint
 533              		.global	__aeabi_i2d
 534              		.global	__aeabi_dmul
 535              		.global	__aeabi_dadd
 536              		.global	__aeabi_d2iz
 537 007a 00BF     		.section	.text.main,"ax",%progbits
 538              		.align	2
 539              		.global	main
 540              		.thumb
 541              		.thumb_func
 542              		.type	main, %function
 543              	main:
 544              	.LFB63:
  19:main.c        **** {
 545              		.loc 1 19 0
 546              		.cfi_startproc
 547              		@ Volatile: function does not return.
 548              		@ args = 0, pretend = 0, frame = 0
 549              		@ frame_needed = 0, uses_anonymous_args = 0
 550 0000 80B5     		push	{r7, lr}
 551              		.cfi_def_cfa_offset 8
 552              		.cfi_offset 7, -8
 553              		.cfi_offset 14, -4
  20:main.c        ****     CyGlobalIntEnable;
 554              		.loc 1 20 0
 555              		.syntax unified
 556              	@ 20 "main.c" 1
 557 0002 62B6     		CPSIE   i
 558              	@ 0 "" 2
  21:main.c        ****     LCD_Start();
 559              		.loc 1 21 0
ARM GAS  C:\Users\isaac\AppData\Local\Temp\cchmdw5j.s 			page 14


 560              		.thumb
 561              		.syntax unified
 562 0004 FFF7FEFF 		bl	LCD_Start
 563              	.LVL65:
  22:main.c        ****     UART_Start();
 564              		.loc 1 22 0
 565 0008 FFF7FEFF 		bl	UART_Start
 566              	.LVL66:
  23:main.c        ****     ADC_Start();
 567              		.loc 1 23 0
 568 000c FFF7FEFF 		bl	ADC_Start
 569              	.LVL67:
  24:main.c        ****     ADC_StartConvert();
 570              		.loc 1 24 0
 571 0010 FFF7FEFF 		bl	ADC_StartConvert
 572              	.LVL68:
  25:main.c        ****     Clock_1_Start();
 573              		.loc 1 25 0
 574 0014 FFF7FEFF 		bl	Clock_1_Start
 575              	.LVL69:
  26:main.c        ****     PWM_1_Start();
 576              		.loc 1 26 0
 577 0018 FFF7FEFF 		bl	PWM_1_Start
 578              	.LVL70:
  27:main.c        ****     PWM_2_Start();
 579              		.loc 1 27 0
 580 001c FFF7FEFF 		bl	PWM_2_Start
 581              	.LVL71:
  28:main.c        ****     PWM_3_Start();
 582              		.loc 1 28 0
 583 0020 FFF7FEFF 		bl	PWM_3_Start
 584              	.LVL72:
  29:main.c        ****     PWM_4_Start();
 585              		.loc 1 29 0
 586 0024 FFF7FEFF 		bl	PWM_4_Start
 587              	.LVL73:
  30:main.c        ****     PWM_5_Start();
 588              		.loc 1 30 0
 589 0028 FFF7FEFF 		bl	PWM_5_Start
 590              	.LVL74:
  31:main.c        ****     PWM_6_Start();
 591              		.loc 1 31 0
 592 002c FFF7FEFF 		bl	PWM_6_Start
 593              	.LVL75:
  32:main.c        ****     PWM_7_Start();
 594              		.loc 1 32 0
 595 0030 FFF7FEFF 		bl	PWM_7_Start
 596              	.LVL76:
  33:main.c        ****     PWM_8_Start();
 597              		.loc 1 33 0
 598 0034 FFF7FEFF 		bl	PWM_8_Start
 599              	.LVL77:
  34:main.c        ****     PWM_9_Start();
 600              		.loc 1 34 0
 601 0038 FFF7FEFF 		bl	PWM_9_Start
 602              	.LVL78:
  35:main.c        ****     com_StartEx(com_handler);
ARM GAS  C:\Users\isaac\AppData\Local\Temp\cchmdw5j.s 			page 15


 603              		.loc 1 35 0
 604 003c 6848     		ldr	r0, .L55+8
 605 003e FFF7FEFF 		bl	com_StartEx
 606              	.LVL79:
  36:main.c        ****     com_ClearPending();
 607              		.loc 1 36 0
 608 0042 FFF7FEFF 		bl	com_ClearPending
 609              	.LVL80:
 610              	.L53:
  40:main.c        ****         adc[0] = (int)(((0.0055)*ADC_GetResult16(0)) + offset);
 611              		.loc 1 40 0
 612 0046 0020     		movs	r0, #0
 613 0048 FFF7FEFF 		bl	ADC_GetResult16
 614              	.LVL81:
 615 004c FFF7FEFF 		bl	__aeabi_i2d
 616              	.LVL82:
 617 0050 61A3     		adr	r3, .L55
 618 0052 D3E90023 		ldrd	r2, [r3]
 619 0056 FFF7FEFF 		bl	__aeabi_dmul
 620              	.LVL83:
 621 005a 0646     		mov	r6, r0
 622 005c 0F46     		mov	r7, r1
 623 005e 614C     		ldr	r4, .L55+12
 624 0060 A06C     		ldr	r0, [r4, #72]
 625 0062 FFF7FEFF 		bl	__aeabi_i2d
 626              	.LVL84:
 627 0066 3246     		mov	r2, r6
 628 0068 3B46     		mov	r3, r7
 629 006a FFF7FEFF 		bl	__aeabi_dadd
 630              	.LVL85:
 631 006e FFF7FEFF 		bl	__aeabi_d2iz
 632              	.LVL86:
 633 0072 5D4D     		ldr	r5, .L55+16
 634 0074 2860     		str	r0, [r5]
  41:main.c        ****         adc[1] = (int)(((0.0055)*ADC_GetResult16(1)) + offset);
 635              		.loc 1 41 0
 636 0076 0120     		movs	r0, #1
 637 0078 FFF7FEFF 		bl	ADC_GetResult16
 638              	.LVL87:
 639 007c FFF7FEFF 		bl	__aeabi_i2d
 640              	.LVL88:
 641 0080 55A3     		adr	r3, .L55
 642 0082 D3E90023 		ldrd	r2, [r3]
 643 0086 FFF7FEFF 		bl	__aeabi_dmul
 644              	.LVL89:
 645 008a 0646     		mov	r6, r0
 646 008c 0F46     		mov	r7, r1
 647 008e A06C     		ldr	r0, [r4, #72]
 648 0090 FFF7FEFF 		bl	__aeabi_i2d
 649              	.LVL90:
 650 0094 3246     		mov	r2, r6
 651 0096 3B46     		mov	r3, r7
 652 0098 FFF7FEFF 		bl	__aeabi_dadd
 653              	.LVL91:
 654 009c FFF7FEFF 		bl	__aeabi_d2iz
 655              	.LVL92:
 656 00a0 6860     		str	r0, [r5, #4]
ARM GAS  C:\Users\isaac\AppData\Local\Temp\cchmdw5j.s 			page 16


  42:main.c        ****         adc[2] = (int)(((0.0055)*ADC_GetResult16(2)) + offset);
 657              		.loc 1 42 0
 658 00a2 0220     		movs	r0, #2
 659 00a4 FFF7FEFF 		bl	ADC_GetResult16
 660              	.LVL93:
 661 00a8 FFF7FEFF 		bl	__aeabi_i2d
 662              	.LVL94:
 663 00ac 4AA3     		adr	r3, .L55
 664 00ae D3E90023 		ldrd	r2, [r3]
 665 00b2 FFF7FEFF 		bl	__aeabi_dmul
 666              	.LVL95:
 667 00b6 0646     		mov	r6, r0
 668 00b8 0F46     		mov	r7, r1
 669 00ba A06C     		ldr	r0, [r4, #72]
 670 00bc FFF7FEFF 		bl	__aeabi_i2d
 671              	.LVL96:
 672 00c0 3246     		mov	r2, r6
 673 00c2 3B46     		mov	r3, r7
 674 00c4 FFF7FEFF 		bl	__aeabi_dadd
 675              	.LVL97:
 676 00c8 FFF7FEFF 		bl	__aeabi_d2iz
 677              	.LVL98:
 678 00cc A860     		str	r0, [r5, #8]
  43:main.c        ****         adc[3] = (int)(((0.0055)*ADC_GetResult16(3)) + offset);
 679              		.loc 1 43 0
 680 00ce 0320     		movs	r0, #3
 681 00d0 FFF7FEFF 		bl	ADC_GetResult16
 682              	.LVL99:
 683 00d4 FFF7FEFF 		bl	__aeabi_i2d
 684              	.LVL100:
 685 00d8 3FA3     		adr	r3, .L55
 686 00da D3E90023 		ldrd	r2, [r3]
 687 00de FFF7FEFF 		bl	__aeabi_dmul
 688              	.LVL101:
 689 00e2 0646     		mov	r6, r0
 690 00e4 0F46     		mov	r7, r1
 691 00e6 A06C     		ldr	r0, [r4, #72]
 692 00e8 FFF7FEFF 		bl	__aeabi_i2d
 693              	.LVL102:
 694 00ec 3246     		mov	r2, r6
 695 00ee 3B46     		mov	r3, r7
 696 00f0 FFF7FEFF 		bl	__aeabi_dadd
 697              	.LVL103:
 698 00f4 FFF7FEFF 		bl	__aeabi_d2iz
 699              	.LVL104:
 700 00f8 E860     		str	r0, [r5, #12]
  45:main.c        ****         PWM_1_WriteCompare(stringtoint(&codigo[0],4,5));
 701              		.loc 1 45 0
 702 00fa 2834     		adds	r4, r4, #40
 703 00fc 0522     		movs	r2, #5
 704 00fe 0421     		movs	r1, #4
 705 0100 2046     		mov	r0, r4
 706 0102 FFF7FEFF 		bl	stringtoint
 707              	.LVL105:
 708 0106 80B2     		uxth	r0, r0
 709 0108 FFF7FEFF 		bl	PWM_1_WriteCompare
 710              	.LVL106:
ARM GAS  C:\Users\isaac\AppData\Local\Temp\cchmdw5j.s 			page 17


  46:main.c        ****         PWM_2_WriteCompare(stringtoint(&codigo[0],7,8));
 711              		.loc 1 46 0
 712 010c 0822     		movs	r2, #8
 713 010e 0721     		movs	r1, #7
 714 0110 2046     		mov	r0, r4
 715 0112 FFF7FEFF 		bl	stringtoint
 716              	.LVL107:
 717 0116 80B2     		uxth	r0, r0
 718 0118 FFF7FEFF 		bl	PWM_2_WriteCompare
 719              	.LVL108:
  47:main.c        ****         PWM_3_WriteCompare(stringtoint(&codigo[0],10,11));
 720              		.loc 1 47 0
 721 011c 0B22     		movs	r2, #11
 722 011e 0A21     		movs	r1, #10
 723 0120 2046     		mov	r0, r4
 724 0122 FFF7FEFF 		bl	stringtoint
 725              	.LVL109:
 726 0126 80B2     		uxth	r0, r0
 727 0128 FFF7FEFF 		bl	PWM_3_WriteCompare
 728              	.LVL110:
  48:main.c        ****         PWM_4_WriteCompare(stringtoint(&codigo[0],13,14));
 729              		.loc 1 48 0
 730 012c 0E22     		movs	r2, #14
 731 012e 0D21     		movs	r1, #13
 732 0130 2046     		mov	r0, r4
 733 0132 FFF7FEFF 		bl	stringtoint
 734              	.LVL111:
 735 0136 80B2     		uxth	r0, r0
 736 0138 FFF7FEFF 		bl	PWM_4_WriteCompare
 737              	.LVL112:
  49:main.c        ****         PWM_5_WriteCompare(stringtoint(&codigo[0],16,17));
 738              		.loc 1 49 0
 739 013c 1122     		movs	r2, #17
 740 013e 1021     		movs	r1, #16
 741 0140 2046     		mov	r0, r4
 742 0142 FFF7FEFF 		bl	stringtoint
 743              	.LVL113:
 744 0146 80B2     		uxth	r0, r0
 745 0148 FFF7FEFF 		bl	PWM_5_WriteCompare
 746              	.LVL114:
  50:main.c        ****         PWM_9_WriteCompare(stringtoint(&codigo[0],28,29));
 747              		.loc 1 50 0
 748 014c 1D22     		movs	r2, #29
 749 014e 1C21     		movs	r1, #28
 750 0150 2046     		mov	r0, r4
 751 0152 FFF7FEFF 		bl	stringtoint
 752              	.LVL115:
 753 0156 80B2     		uxth	r0, r0
 754 0158 FFF7FEFF 		bl	PWM_9_WriteCompare
 755              	.LVL116:
  52:main.c        ****         if(MODE_Read() == 1){
 756              		.loc 1 52 0
 757 015c FFF7FEFF 		bl	MODE_Read
 758              	.LVL117:
 759 0160 0128     		cmp	r0, #1
 760 0162 18D1     		bne	.L51
  54:main.c        ****         PWM_6_WriteCompare(stringtoint(&codigo[0],19,20));
ARM GAS  C:\Users\isaac\AppData\Local\Temp\cchmdw5j.s 			page 18


 761              		.loc 1 54 0
 762 0164 1422     		movs	r2, #20
 763 0166 1321     		movs	r1, #19
 764 0168 2046     		mov	r0, r4
 765 016a FFF7FEFF 		bl	stringtoint
 766              	.LVL118:
 767 016e 80B2     		uxth	r0, r0
 768 0170 FFF7FEFF 		bl	PWM_6_WriteCompare
 769              	.LVL119:
  55:main.c        ****         PWM_7_WriteCompare(stringtoint(&codigo[0],22,23));
 770              		.loc 1 55 0
 771 0174 1722     		movs	r2, #23
 772 0176 1621     		movs	r1, #22
 773 0178 2046     		mov	r0, r4
 774 017a FFF7FEFF 		bl	stringtoint
 775              	.LVL120:
 776 017e 80B2     		uxth	r0, r0
 777 0180 FFF7FEFF 		bl	PWM_7_WriteCompare
 778              	.LVL121:
  56:main.c        ****         PWM_8_WriteCompare(stringtoint(&codigo[0],25,26));
 779              		.loc 1 56 0
 780 0184 1A22     		movs	r2, #26
 781 0186 1921     		movs	r1, #25
 782 0188 2046     		mov	r0, r4
 783 018a FFF7FEFF 		bl	stringtoint
 784              	.LVL122:
 785 018e 80B2     		uxth	r0, r0
 786 0190 FFF7FEFF 		bl	PWM_8_WriteCompare
 787              	.LVL123:
 788 0194 09E0     		b	.L52
 789              	.L51:
  59:main.c        ****         PWM_6_WriteCompare(adc[0]);
 790              		.loc 1 59 0
 791 0196 144C     		ldr	r4, .L55+16
 792 0198 2088     		ldrh	r0, [r4]
 793 019a FFF7FEFF 		bl	PWM_6_WriteCompare
 794              	.LVL124:
  60:main.c        ****         PWM_7_WriteCompare(adc[1]);
 795              		.loc 1 60 0
 796 019e A088     		ldrh	r0, [r4, #4]
 797 01a0 FFF7FEFF 		bl	PWM_7_WriteCompare
 798              	.LVL125:
  61:main.c        ****         PWM_8_WriteCompare(adc[2]); 
 799              		.loc 1 61 0
 800 01a4 2089     		ldrh	r0, [r4, #8]
 801 01a6 FFF7FEFF 		bl	PWM_8_WriteCompare
 802              	.LVL126:
 803              	.L52:
  64:main.c        ****         LCD_ClearDisplay();
 804              		.loc 1 64 0
 805 01aa 0120     		movs	r0, #1
 806 01ac FFF7FEFF 		bl	LCD_WriteControl
 807              	.LVL127:
  65:main.c        ****         LCD_Position(0,0);
 808              		.loc 1 65 0
 809 01b0 0021     		movs	r1, #0
 810 01b2 0846     		mov	r0, r1
ARM GAS  C:\Users\isaac\AppData\Local\Temp\cchmdw5j.s 			page 19


 811 01b4 FFF7FEFF 		bl	LCD_Position
 812              	.LVL128:
  66:main.c        ****         LCD_PrintString(codigo);
 813              		.loc 1 66 0
 814 01b8 0C48     		ldr	r0, .L55+20
 815 01ba FFF7FEFF 		bl	LCD_PrintString
 816              	.LVL129:
  67:main.c        ****         LCD_Position(1,0);
 817              		.loc 1 67 0
 818 01be 0021     		movs	r1, #0
 819 01c0 0120     		movs	r0, #1
 820 01c2 FFF7FEFF 		bl	LCD_Position
 821              	.LVL130:
  68:main.c        ****         LCD_PrintNumber(comas);
 822              		.loc 1 68 0
 823 01c6 0A4B     		ldr	r3, .L55+24
 824 01c8 9888     		ldrh	r0, [r3, #4]
 825 01ca FFF7FEFF 		bl	LCD_PrintU32Number
 826              	.LVL131:
  69:main.c        ****         CyDelay(30);
 827              		.loc 1 69 0
 828 01ce 1E20     		movs	r0, #30
 829 01d0 FFF7FEFF 		bl	CyDelay
 830              	.LVL132:
  70:main.c        ****     }
 831              		.loc 1 70 0
 832 01d4 37E7     		b	.L53
 833              	.L56:
 834 01d6 00BF     		.align	3
 835              	.L55:
 836 01d8 BA490C02 		.word	34359738
 837 01dc 2B87763F 		.word	1064732459
 838 01e0 00000000 		.word	com_handler
 839 01e4 00000000 		.word	.LANCHOR1
 840 01e8 00000000 		.word	adc
 841 01ec 28000000 		.word	.LANCHOR1+40
 842 01f0 00000000 		.word	.LANCHOR0
 843              		.cfi_endproc
 844              	.LFE63:
 845              		.size	main, .-main
 846              		.comm	adc,16,4
 847              		.global	offset
 848              		.global	read
 849              		.global	comas
 850              		.global	pass
 851              		.global	cs
 852              		.comm	foo,1,1
 853              		.global	check
 854              		.global	codigo
 855              		.data
 856              		.align	2
 857              		.set	.LANCHOR1,. + 0
 858              		.type	pass, %object
 859              		.size	pass, 4
 860              	pass:
 861 0000 01000000 		.word	1
 862              		.type	read, %object
ARM GAS  C:\Users\isaac\AppData\Local\Temp\cchmdw5j.s 			page 20


 863              		.size	read, 4
 864              	read:
 865 0004 01000000 		.word	1
 866              		.type	check, %object
 867              		.size	check, 32
 868              	check:
 869 0008 30303030 		.ascii	"00000000000000000000000000000000"
 869      30303030 
 869      30303030 
 869      30303030 
 869      30303030 
 870              		.type	codigo, %object
 871              		.size	codigo, 32
 872              	codigo:
 873 0028 5752452C 		.ascii	"WRE,08,08,08,08,08,08,08,08,08,F"
 873      30382C30 
 873      382C3038 
 873      2C30382C 
 873      30382C30 
 874              		.type	offset, %object
 875              		.size	offset, 4
 876              	offset:
 877 0048 08000000 		.word	8
 878              		.bss
 879              		.align	2
 880              		.set	.LANCHOR0,. + 0
 881              		.type	cs, %object
 882              		.size	cs, 4
 883              	cs:
 884 0000 00000000 		.space	4
 885              		.type	comas, %object
 886              		.size	comas, 4
 887              	comas:
 888 0004 00000000 		.space	4
 889              		.text
 890              	.Letext0:
 891              		.file 2 "c:\\program files (x86)\\cypress\\psoc creator\\4.2\\psoc creator\\import\\gnu\\arm\\5.4.
 892              		.file 3 "c:\\program files (x86)\\cypress\\psoc creator\\4.2\\psoc creator\\import\\gnu\\arm\\5.4.
 893              		.file 4 "Generated_Source\\PSoC5/cytypes.h"
 894              		.file 5 "Generated_Source\\PSoC5/core_cm3.h"
 895              		.file 6 "Generated_Source\\PSoC5/UART.h"
 896              		.file 7 "Generated_Source\\PSoC5/com.h"
 897              		.file 8 "Generated_Source\\PSoC5/LCD.h"
 898              		.file 9 "Generated_Source\\PSoC5/ADC.h"
 899              		.file 10 "Generated_Source\\PSoC5/Clock_1.h"
 900              		.file 11 "Generated_Source\\PSoC5/PWM_1.h"
 901              		.file 12 "Generated_Source\\PSoC5/PWM_2.h"
 902              		.file 13 "Generated_Source\\PSoC5/PWM_3.h"
 903              		.file 14 "Generated_Source\\PSoC5/PWM_4.h"
 904              		.file 15 "Generated_Source\\PSoC5/PWM_5.h"
 905              		.file 16 "Generated_Source\\PSoC5/PWM_6.h"
 906              		.file 17 "Generated_Source\\PSoC5/PWM_7.h"
 907              		.file 18 "Generated_Source\\PSoC5/PWM_8.h"
 908              		.file 19 "Generated_Source\\PSoC5/PWM_9.h"
 909              		.file 20 "Generated_Source\\PSoC5/MODE.h"
 910              		.file 21 "Generated_Source\\PSoC5/CyLib.h"