ARM GAS  C:\Users\isaac\AppData\Local\Temp\ccWb6vyk.s 			page 1


   1              		.syntax unified
   2              		.cpu cortex-m3
   3              		.fpu softvfp
   4              		.eabi_attribute 20, 1
   5              		.eabi_attribute 21, 1
   6              		.eabi_attribute 23, 3
   7              		.eabi_attribute 24, 1
   8              		.eabi_attribute 25, 1
   9              		.eabi_attribute 26, 1
  10              		.eabi_attribute 30, 1
  11              		.eabi_attribute 34, 1
  12              		.eabi_attribute 18, 4
  13              		.thumb
  14              		.syntax unified
  15              		.file	"I2C_PM.c"
  16              		.text
  17              	.Ltext0:
  18              		.cfi_sections	.debug_frame
  19              		.section	.text.I2C_SaveConfig,"ax",%progbits
  20              		.align	2
  21              		.global	I2C_SaveConfig
  22              		.thumb
  23              		.thumb_func
  24              		.type	I2C_SaveConfig, %function
  25              	I2C_SaveConfig:
  26              	.LFB0:
  27              		.file 1 "Generated_Source\\PSoC5\\I2C_PM.c"
   1:Generated_Source\PSoC5/I2C_PM.c **** /*******************************************************************************
   2:Generated_Source\PSoC5/I2C_PM.c **** * File Name: I2C_PM.c
   3:Generated_Source\PSoC5/I2C_PM.c **** * Version 3.50
   4:Generated_Source\PSoC5/I2C_PM.c **** *
   5:Generated_Source\PSoC5/I2C_PM.c **** * Description:
   6:Generated_Source\PSoC5/I2C_PM.c **** *  This file provides low power mode APIs for the I2C component.
   7:Generated_Source\PSoC5/I2C_PM.c **** *
   8:Generated_Source\PSoC5/I2C_PM.c **** ********************************************************************************
   9:Generated_Source\PSoC5/I2C_PM.c **** * Copyright 2008-2015, Cypress Semiconductor Corporation. All rights reserved.
  10:Generated_Source\PSoC5/I2C_PM.c **** * You may use this file only in accordance with the license, terms, conditions,
  11:Generated_Source\PSoC5/I2C_PM.c **** * disclaimers, and limitations in the end user license agreement accompanying
  12:Generated_Source\PSoC5/I2C_PM.c **** * the software package with which this file was provided.
  13:Generated_Source\PSoC5/I2C_PM.c **** *******************************************************************************/
  14:Generated_Source\PSoC5/I2C_PM.c **** 
  15:Generated_Source\PSoC5/I2C_PM.c **** #include "I2C_PVT.h"
  16:Generated_Source\PSoC5/I2C_PM.c **** 
  17:Generated_Source\PSoC5/I2C_PM.c **** I2C_BACKUP_STRUCT I2C_backup =
  18:Generated_Source\PSoC5/I2C_PM.c **** {
  19:Generated_Source\PSoC5/I2C_PM.c ****     I2C_DISABLE,
  20:Generated_Source\PSoC5/I2C_PM.c **** 
  21:Generated_Source\PSoC5/I2C_PM.c **** #if (I2C_FF_IMPLEMENTED)
  22:Generated_Source\PSoC5/I2C_PM.c ****     I2C_DEFAULT_XCFG,
  23:Generated_Source\PSoC5/I2C_PM.c ****     I2C_DEFAULT_CFG,
  24:Generated_Source\PSoC5/I2C_PM.c ****     I2C_DEFAULT_ADDR,
  25:Generated_Source\PSoC5/I2C_PM.c ****     LO8(I2C_DEFAULT_DIVIDE_FACTOR),
  26:Generated_Source\PSoC5/I2C_PM.c ****     HI8(I2C_DEFAULT_DIVIDE_FACTOR),
  27:Generated_Source\PSoC5/I2C_PM.c **** #else  /* (I2C_UDB_IMPLEMENTED) */
  28:Generated_Source\PSoC5/I2C_PM.c ****     I2C_DEFAULT_CFG,
  29:Generated_Source\PSoC5/I2C_PM.c **** #endif /* (I2C_FF_IMPLEMENTED) */
  30:Generated_Source\PSoC5/I2C_PM.c **** 
ARM GAS  C:\Users\isaac\AppData\Local\Temp\ccWb6vyk.s 			page 2


  31:Generated_Source\PSoC5/I2C_PM.c **** #if (I2C_TIMEOUT_ENABLED)
  32:Generated_Source\PSoC5/I2C_PM.c ****     I2C_DEFAULT_TMOUT_PERIOD,
  33:Generated_Source\PSoC5/I2C_PM.c ****     I2C_DEFAULT_TMOUT_INTR_MASK,
  34:Generated_Source\PSoC5/I2C_PM.c **** #endif /* (I2C_TIMEOUT_ENABLED) */
  35:Generated_Source\PSoC5/I2C_PM.c **** };
  36:Generated_Source\PSoC5/I2C_PM.c **** 
  37:Generated_Source\PSoC5/I2C_PM.c **** #if ((I2C_FF_IMPLEMENTED) && (I2C_WAKEUP_ENABLED))
  38:Generated_Source\PSoC5/I2C_PM.c ****     volatile uint8 I2C_wakeupSource;
  39:Generated_Source\PSoC5/I2C_PM.c **** #endif /* ((I2C_FF_IMPLEMENTED) && (I2C_WAKEUP_ENABLED)) */
  40:Generated_Source\PSoC5/I2C_PM.c **** 
  41:Generated_Source\PSoC5/I2C_PM.c **** 
  42:Generated_Source\PSoC5/I2C_PM.c **** /*******************************************************************************
  43:Generated_Source\PSoC5/I2C_PM.c **** * Function Name: I2C_SaveConfig
  44:Generated_Source\PSoC5/I2C_PM.c **** ********************************************************************************
  45:Generated_Source\PSoC5/I2C_PM.c **** *
  46:Generated_Source\PSoC5/I2C_PM.c **** * Summary:
  47:Generated_Source\PSoC5/I2C_PM.c **** *  The Enable wakeup from Sleep Mode selection influences this function
  48:Generated_Source\PSoC5/I2C_PM.c **** *  implementation:
  49:Generated_Source\PSoC5/I2C_PM.c **** *   Unchecked: Stores the component non-retention configuration registers.
  50:Generated_Source\PSoC5/I2C_PM.c **** *   Checked:   Disables the master, if it was enabled before, and enables
  51:Generated_Source\PSoC5/I2C_PM.c **** *              backup regulator of the I2C hardware. If a transaction intended
  52:Generated_Source\PSoC5/I2C_PM.c **** *              for component executes during this function call, it waits until
  53:Generated_Source\PSoC5/I2C_PM.c **** *              the current transaction is completed and I2C hardware is ready
  54:Generated_Source\PSoC5/I2C_PM.c **** *              to enter sleep mode. All subsequent I2C traffic is NAKed until
  55:Generated_Source\PSoC5/I2C_PM.c **** *              the device is put into sleep mode.
  56:Generated_Source\PSoC5/I2C_PM.c **** *
  57:Generated_Source\PSoC5/I2C_PM.c **** * Parameters:
  58:Generated_Source\PSoC5/I2C_PM.c **** *  None.
  59:Generated_Source\PSoC5/I2C_PM.c **** *
  60:Generated_Source\PSoC5/I2C_PM.c **** * Return:
  61:Generated_Source\PSoC5/I2C_PM.c **** *  None.
  62:Generated_Source\PSoC5/I2C_PM.c **** *
  63:Generated_Source\PSoC5/I2C_PM.c **** * Global Variables:
  64:Generated_Source\PSoC5/I2C_PM.c **** *  I2C_backup - The global variable used to save the component
  65:Generated_Source\PSoC5/I2C_PM.c **** *                            configuration and non-retention registers before
  66:Generated_Source\PSoC5/I2C_PM.c **** *                            entering the sleep mode.
  67:Generated_Source\PSoC5/I2C_PM.c **** *
  68:Generated_Source\PSoC5/I2C_PM.c **** * Reentrant:
  69:Generated_Source\PSoC5/I2C_PM.c **** *  No.
  70:Generated_Source\PSoC5/I2C_PM.c **** *
  71:Generated_Source\PSoC5/I2C_PM.c **** *******************************************************************************/
  72:Generated_Source\PSoC5/I2C_PM.c **** void I2C_SaveConfig(void) 
  73:Generated_Source\PSoC5/I2C_PM.c **** {
  28              		.loc 1 73 0
  29              		.cfi_startproc
  30              		@ args = 0, pretend = 0, frame = 0
  31              		@ frame_needed = 0, uses_anonymous_args = 0
  32 0000 10B5     		push	{r4, lr}
  33              		.cfi_def_cfa_offset 8
  34              		.cfi_offset 4, -8
  35              		.cfi_offset 14, -4
  74:Generated_Source\PSoC5/I2C_PM.c **** #if (I2C_FF_IMPLEMENTED)
  75:Generated_Source\PSoC5/I2C_PM.c ****     #if (I2C_WAKEUP_ENABLED)
  76:Generated_Source\PSoC5/I2C_PM.c ****         uint8 intState;
  77:Generated_Source\PSoC5/I2C_PM.c ****     #endif /* (I2C_WAKEUP_ENABLED) */
  78:Generated_Source\PSoC5/I2C_PM.c **** 
  79:Generated_Source\PSoC5/I2C_PM.c ****     /* Store registers before enter low power mode */
ARM GAS  C:\Users\isaac\AppData\Local\Temp\ccWb6vyk.s 			page 3


  80:Generated_Source\PSoC5/I2C_PM.c ****     I2C_backup.cfg     = I2C_CFG_REG;
  36              		.loc 1 80 0
  37 0002 194A     		ldr	r2, .L4
  38 0004 1178     		ldrb	r1, [r2]	@ zero_extendqisi2
  39 0006 194B     		ldr	r3, .L4+4
  40 0008 9970     		strb	r1, [r3, #2]
  81:Generated_Source\PSoC5/I2C_PM.c ****     I2C_backup.xcfg    = I2C_XCFG_REG;
  41              		.loc 1 81 0
  42 000a 194C     		ldr	r4, .L4+8
  43 000c 2178     		ldrb	r1, [r4]	@ zero_extendqisi2
  44 000e 5970     		strb	r1, [r3, #1]
  82:Generated_Source\PSoC5/I2C_PM.c ****     I2C_backup.addr    = I2C_ADDR_REG;
  45              		.loc 1 82 0
  46 0010 1849     		ldr	r1, .L4+12
  47 0012 0978     		ldrb	r1, [r1]	@ zero_extendqisi2
  48 0014 D970     		strb	r1, [r3, #3]
  83:Generated_Source\PSoC5/I2C_PM.c ****     I2C_backup.clkDiv1 = I2C_CLKDIV1_REG;
  49              		.loc 1 83 0
  50 0016 1849     		ldr	r1, .L4+16
  51 0018 0978     		ldrb	r1, [r1]	@ zero_extendqisi2
  52 001a 1971     		strb	r1, [r3, #4]
  84:Generated_Source\PSoC5/I2C_PM.c ****     I2C_backup.clkDiv2 = I2C_CLKDIV2_REG;
  53              		.loc 1 84 0
  54 001c 1749     		ldr	r1, .L4+20
  55 001e 0978     		ldrb	r1, [r1]	@ zero_extendqisi2
  56 0020 5971     		strb	r1, [r3, #5]
  85:Generated_Source\PSoC5/I2C_PM.c **** 
  86:Generated_Source\PSoC5/I2C_PM.c **** #if (I2C_WAKEUP_ENABLED)
  87:Generated_Source\PSoC5/I2C_PM.c ****     /* Disable master */
  88:Generated_Source\PSoC5/I2C_PM.c ****     I2C_CFG_REG &= (uint8) ~I2C_ENABLE_MASTER;
  57              		.loc 1 88 0
  58 0022 1378     		ldrb	r3, [r2]	@ zero_extendqisi2
  59 0024 DBB2     		uxtb	r3, r3
  60 0026 1370     		strb	r3, [r2]
  89:Generated_Source\PSoC5/I2C_PM.c **** 
  90:Generated_Source\PSoC5/I2C_PM.c ****     /* Enable backup regulator to keep block powered in low power mode */
  91:Generated_Source\PSoC5/I2C_PM.c ****     intState = CyEnterCriticalSection();
  61              		.loc 1 91 0
  62 0028 FFF7FEFF 		bl	CyEnterCriticalSection
  63              	.LVL0:
  92:Generated_Source\PSoC5/I2C_PM.c ****     I2C_PWRSYS_CR1_REG |= I2C_PWRSYS_CR1_I2C_REG_BACKUP;
  64              		.loc 1 92 0
  65 002c 144A     		ldr	r2, .L4+24
  66 002e 1378     		ldrb	r3, [r2]	@ zero_extendqisi2
  67 0030 43F00403 		orr	r3, r3, #4
  68 0034 1370     		strb	r3, [r2]
  93:Generated_Source\PSoC5/I2C_PM.c ****     CyExitCriticalSection(intState);
  69              		.loc 1 93 0
  70 0036 FFF7FEFF 		bl	CyExitCriticalSection
  71              	.LVL1:
  94:Generated_Source\PSoC5/I2C_PM.c **** 
  95:Generated_Source\PSoC5/I2C_PM.c ****     /* 1) Set force NACK to ignore I2C transactions;
  96:Generated_Source\PSoC5/I2C_PM.c ****     *  2) Wait unti I2C is ready go to Sleep; !!
  97:Generated_Source\PSoC5/I2C_PM.c ****     *  3) These bits are cleared on wake up.
  98:Generated_Source\PSoC5/I2C_PM.c ****     */
  99:Generated_Source\PSoC5/I2C_PM.c ****     /* Wait when block is ready for sleep */
 100:Generated_Source\PSoC5/I2C_PM.c ****     I2C_XCFG_REG |= I2C_XCFG_FORCE_NACK;
ARM GAS  C:\Users\isaac\AppData\Local\Temp\ccWb6vyk.s 			page 4


  72              		.loc 1 100 0
  73 003a 2378     		ldrb	r3, [r4]	@ zero_extendqisi2
  74 003c 43F01003 		orr	r3, r3, #16
  75 0040 2370     		strb	r3, [r4]
  76              	.L2:
 101:Generated_Source\PSoC5/I2C_PM.c ****     while (0u == (I2C_XCFG_REG & I2C_XCFG_RDY_TO_SLEEP))
  77              		.loc 1 101 0 discriminator 1
  78 0042 0B4B     		ldr	r3, .L4+8
  79 0044 1B78     		ldrb	r3, [r3]	@ zero_extendqisi2
  80 0046 13F0200F 		tst	r3, #32
  81 004a FAD0     		beq	.L2
 102:Generated_Source\PSoC5/I2C_PM.c ****     {
 103:Generated_Source\PSoC5/I2C_PM.c ****     }
 104:Generated_Source\PSoC5/I2C_PM.c **** 
 105:Generated_Source\PSoC5/I2C_PM.c ****     /* Setup wakeup interrupt */
 106:Generated_Source\PSoC5/I2C_PM.c ****     I2C_DisableInt();
  82              		.loc 1 106 0
  83 004c 4FF40044 		mov	r4, #32768
  84 0050 0C4B     		ldr	r3, .L4+28
  85 0052 1C60     		str	r4, [r3]
 107:Generated_Source\PSoC5/I2C_PM.c ****     (void) CyIntSetVector(I2C_ISR_NUMBER, &I2C_WAKEUP_ISR);
  86              		.loc 1 107 0
  87 0054 0C49     		ldr	r1, .L4+32
  88 0056 0F20     		movs	r0, #15
  89 0058 FFF7FEFF 		bl	CyIntSetVector
  90              	.LVL2:
 108:Generated_Source\PSoC5/I2C_PM.c ****     I2C_wakeupSource = 0u;
  91              		.loc 1 108 0
  92 005c 0022     		movs	r2, #0
  93 005e 0B4B     		ldr	r3, .L4+36
  94 0060 1A70     		strb	r2, [r3]
 109:Generated_Source\PSoC5/I2C_PM.c ****     I2C_EnableInt();
  95              		.loc 1 109 0
  96 0062 0B4B     		ldr	r3, .L4+40
  97 0064 1C60     		str	r4, [r3]
  98 0066 10BD     		pop	{r4, pc}
  99              	.L5:
 100              		.align	2
 101              	.L4:
 102 0068 D6490040 		.word	1073760726
 103 006c 00000000 		.word	.LANCHOR0
 104 0070 C8490040 		.word	1073760712
 105 0074 CA490040 		.word	1073760714
 106 0078 DB490040 		.word	1073760731
 107 007c DC490040 		.word	1073760732
 108 0080 31430040 		.word	1073759025
 109 0084 80E100E0 		.word	-536813184
 110 0088 00000000 		.word	I2C_WAKEUP_ISR
 111 008c 00000000 		.word	I2C_wakeupSource
 112 0090 00E100E0 		.word	-536813312
 113              		.cfi_endproc
 114              	.LFE0:
 115              		.size	I2C_SaveConfig, .-I2C_SaveConfig
 116              		.section	.text.I2C_Sleep,"ax",%progbits
 117              		.align	2
 118              		.global	I2C_Sleep
 119              		.thumb
ARM GAS  C:\Users\isaac\AppData\Local\Temp\ccWb6vyk.s 			page 5


 120              		.thumb_func
 121              		.type	I2C_Sleep, %function
 122              	I2C_Sleep:
 123              	.LFB1:
 110:Generated_Source\PSoC5/I2C_PM.c **** #endif /* (I2C_WAKEUP_ENABLED) */
 111:Generated_Source\PSoC5/I2C_PM.c **** 
 112:Generated_Source\PSoC5/I2C_PM.c **** #else
 113:Generated_Source\PSoC5/I2C_PM.c ****     /* Store only address match bit */
 114:Generated_Source\PSoC5/I2C_PM.c ****     I2C_backup.control = (I2C_CFG_REG & I2C_CTRL_ANY_ADDRESS_MASK);
 115:Generated_Source\PSoC5/I2C_PM.c **** #endif /* (I2C_FF_IMPLEMENTED) */
 116:Generated_Source\PSoC5/I2C_PM.c **** 
 117:Generated_Source\PSoC5/I2C_PM.c **** #if (I2C_TIMEOUT_ENABLED)
 118:Generated_Source\PSoC5/I2C_PM.c ****     I2C_TimeoutSaveConfig();
 119:Generated_Source\PSoC5/I2C_PM.c **** #endif /* (I2C_TIMEOUT_ENABLED) */
 120:Generated_Source\PSoC5/I2C_PM.c **** }
 121:Generated_Source\PSoC5/I2C_PM.c **** 
 122:Generated_Source\PSoC5/I2C_PM.c **** 
 123:Generated_Source\PSoC5/I2C_PM.c **** /*******************************************************************************
 124:Generated_Source\PSoC5/I2C_PM.c **** * Function Name: I2C_Sleep
 125:Generated_Source\PSoC5/I2C_PM.c **** ********************************************************************************
 126:Generated_Source\PSoC5/I2C_PM.c **** *
 127:Generated_Source\PSoC5/I2C_PM.c **** * Summary:
 128:Generated_Source\PSoC5/I2C_PM.c **** *  This is the preferred method to prepare the component before device enters
 129:Generated_Source\PSoC5/I2C_PM.c **** *  sleep mode. The Enable wakeup from Sleep Mode selection influences this
 130:Generated_Source\PSoC5/I2C_PM.c **** *  function implementation:
 131:Generated_Source\PSoC5/I2C_PM.c **** *   Unchecked: Checks current I2C component state, saves it, and disables the
 132:Generated_Source\PSoC5/I2C_PM.c **** *              component by calling I2C_Stop() if it is currently enabled.
 133:Generated_Source\PSoC5/I2C_PM.c **** *              I2C_SaveConfig() is then called to save the component
 134:Generated_Source\PSoC5/I2C_PM.c **** *              non-retention configuration registers.
 135:Generated_Source\PSoC5/I2C_PM.c **** *   Checked:   If a transaction intended for component executes during this
 136:Generated_Source\PSoC5/I2C_PM.c **** *              function call, it waits until the current transaction is
 137:Generated_Source\PSoC5/I2C_PM.c **** *              completed. All subsequent I2C traffic intended for component
 138:Generated_Source\PSoC5/I2C_PM.c **** *              is NAKed until the device is put to sleep mode. The address
 139:Generated_Source\PSoC5/I2C_PM.c **** *              match event wakes up the device.
 140:Generated_Source\PSoC5/I2C_PM.c **** *
 141:Generated_Source\PSoC5/I2C_PM.c **** * Parameters:
 142:Generated_Source\PSoC5/I2C_PM.c **** *  None.
 143:Generated_Source\PSoC5/I2C_PM.c **** *
 144:Generated_Source\PSoC5/I2C_PM.c **** * Return:
 145:Generated_Source\PSoC5/I2C_PM.c **** *  None.
 146:Generated_Source\PSoC5/I2C_PM.c **** *
 147:Generated_Source\PSoC5/I2C_PM.c **** * Reentrant:
 148:Generated_Source\PSoC5/I2C_PM.c **** *  No.
 149:Generated_Source\PSoC5/I2C_PM.c **** *
 150:Generated_Source\PSoC5/I2C_PM.c **** *******************************************************************************/
 151:Generated_Source\PSoC5/I2C_PM.c **** void I2C_Sleep(void) 
 152:Generated_Source\PSoC5/I2C_PM.c **** {
 124              		.loc 1 152 0
 125              		.cfi_startproc
 126              		@ args = 0, pretend = 0, frame = 0
 127              		@ frame_needed = 0, uses_anonymous_args = 0
 128 0000 08B5     		push	{r3, lr}
 129              		.cfi_def_cfa_offset 8
 130              		.cfi_offset 3, -8
 131              		.cfi_offset 14, -4
 153:Generated_Source\PSoC5/I2C_PM.c **** #if (I2C_WAKEUP_ENABLED)
 154:Generated_Source\PSoC5/I2C_PM.c ****     /* Do not enable block after exit low power mode if it is wakeup source */
ARM GAS  C:\Users\isaac\AppData\Local\Temp\ccWb6vyk.s 			page 6


 155:Generated_Source\PSoC5/I2C_PM.c ****     I2C_backup.enableState = I2C_DISABLE;
 132              		.loc 1 155 0
 133 0002 0022     		movs	r2, #0
 134 0004 024B     		ldr	r3, .L8
 135 0006 1A70     		strb	r2, [r3]
 156:Generated_Source\PSoC5/I2C_PM.c **** 
 157:Generated_Source\PSoC5/I2C_PM.c ****     #if (I2C_TIMEOUT_ENABLED)
 158:Generated_Source\PSoC5/I2C_PM.c ****         I2C_TimeoutStop();
 159:Generated_Source\PSoC5/I2C_PM.c ****     #endif /* (I2C_TIMEOUT_ENABLED) */
 160:Generated_Source\PSoC5/I2C_PM.c **** 
 161:Generated_Source\PSoC5/I2C_PM.c **** #else
 162:Generated_Source\PSoC5/I2C_PM.c ****     /* Store enable state */
 163:Generated_Source\PSoC5/I2C_PM.c ****     I2C_backup.enableState = (uint8) I2C_IS_ENABLED;
 164:Generated_Source\PSoC5/I2C_PM.c **** 
 165:Generated_Source\PSoC5/I2C_PM.c ****     if (0u != I2C_backup.enableState)
 166:Generated_Source\PSoC5/I2C_PM.c ****     {
 167:Generated_Source\PSoC5/I2C_PM.c ****         I2C_Stop();
 168:Generated_Source\PSoC5/I2C_PM.c ****     }
 169:Generated_Source\PSoC5/I2C_PM.c **** #endif /* (I2C_WAKEUP_ENABLED) */
 170:Generated_Source\PSoC5/I2C_PM.c **** 
 171:Generated_Source\PSoC5/I2C_PM.c ****     I2C_SaveConfig();
 136              		.loc 1 171 0
 137 0008 FFF7FEFF 		bl	I2C_SaveConfig
 138              	.LVL3:
 139 000c 08BD     		pop	{r3, pc}
 140              	.L9:
 141 000e 00BF     		.align	2
 142              	.L8:
 143 0010 00000000 		.word	.LANCHOR0
 144              		.cfi_endproc
 145              	.LFE1:
 146              		.size	I2C_Sleep, .-I2C_Sleep
 147              		.section	.text.I2C_RestoreConfig,"ax",%progbits
 148              		.align	2
 149              		.global	I2C_RestoreConfig
 150              		.thumb
 151              		.thumb_func
 152              		.type	I2C_RestoreConfig, %function
 153              	I2C_RestoreConfig:
 154              	.LFB2:
 172:Generated_Source\PSoC5/I2C_PM.c **** }
 173:Generated_Source\PSoC5/I2C_PM.c **** 
 174:Generated_Source\PSoC5/I2C_PM.c **** 
 175:Generated_Source\PSoC5/I2C_PM.c **** /*******************************************************************************
 176:Generated_Source\PSoC5/I2C_PM.c **** * Function Name: I2C_RestoreConfig
 177:Generated_Source\PSoC5/I2C_PM.c **** ********************************************************************************
 178:Generated_Source\PSoC5/I2C_PM.c **** *
 179:Generated_Source\PSoC5/I2C_PM.c **** * Summary:
 180:Generated_Source\PSoC5/I2C_PM.c **** *  The Enable wakeup from Sleep Mode selection influences this function
 181:Generated_Source\PSoC5/I2C_PM.c **** *  implementation:
 182:Generated_Source\PSoC5/I2C_PM.c **** *   Unchecked: Restores the component non-retention configuration registers
 183:Generated_Source\PSoC5/I2C_PM.c **** *              to the state they were in before I2C_Sleep() or I2C_SaveConfig()
 184:Generated_Source\PSoC5/I2C_PM.c **** *              was called.
 185:Generated_Source\PSoC5/I2C_PM.c **** *   Checked:   Disables the backup regulator of the I2C hardware. Sets up the
 186:Generated_Source\PSoC5/I2C_PM.c **** *              regular component interrupt handler and generates the component
 187:Generated_Source\PSoC5/I2C_PM.c **** *              interrupt if it was wake up source to release the bus and
 188:Generated_Source\PSoC5/I2C_PM.c **** *              continue in-coming I2C transaction.
ARM GAS  C:\Users\isaac\AppData\Local\Temp\ccWb6vyk.s 			page 7


 189:Generated_Source\PSoC5/I2C_PM.c **** *
 190:Generated_Source\PSoC5/I2C_PM.c **** * Parameters:
 191:Generated_Source\PSoC5/I2C_PM.c **** *  None.
 192:Generated_Source\PSoC5/I2C_PM.c **** *
 193:Generated_Source\PSoC5/I2C_PM.c **** * Return:
 194:Generated_Source\PSoC5/I2C_PM.c **** *  None.
 195:Generated_Source\PSoC5/I2C_PM.c **** *
 196:Generated_Source\PSoC5/I2C_PM.c **** * Global Variables:
 197:Generated_Source\PSoC5/I2C_PM.c **** *  I2C_backup - The global variable used to save the component
 198:Generated_Source\PSoC5/I2C_PM.c **** *                            configuration and non-retention registers before
 199:Generated_Source\PSoC5/I2C_PM.c **** *                            exiting the sleep mode.
 200:Generated_Source\PSoC5/I2C_PM.c **** *
 201:Generated_Source\PSoC5/I2C_PM.c **** * Reentrant:
 202:Generated_Source\PSoC5/I2C_PM.c **** *  No.
 203:Generated_Source\PSoC5/I2C_PM.c **** *
 204:Generated_Source\PSoC5/I2C_PM.c **** * Side Effects:
 205:Generated_Source\PSoC5/I2C_PM.c **** *  Calling this function before I2C_SaveConfig() or
 206:Generated_Source\PSoC5/I2C_PM.c **** *  I2C_Sleep() will lead to unpredictable results.
 207:Generated_Source\PSoC5/I2C_PM.c **** *
 208:Generated_Source\PSoC5/I2C_PM.c **** *******************************************************************************/
 209:Generated_Source\PSoC5/I2C_PM.c **** void I2C_RestoreConfig(void) 
 210:Generated_Source\PSoC5/I2C_PM.c **** {
 155              		.loc 1 210 0
 156              		.cfi_startproc
 157              		@ args = 0, pretend = 0, frame = 0
 158              		@ frame_needed = 0, uses_anonymous_args = 0
 159 0000 08B5     		push	{r3, lr}
 160              		.cfi_def_cfa_offset 8
 161              		.cfi_offset 3, -8
 162              		.cfi_offset 14, -4
 211:Generated_Source\PSoC5/I2C_PM.c **** #if (I2C_FF_IMPLEMENTED)
 212:Generated_Source\PSoC5/I2C_PM.c ****     uint8 intState;
 213:Generated_Source\PSoC5/I2C_PM.c **** 
 214:Generated_Source\PSoC5/I2C_PM.c ****     if (I2C_CHECK_PWRSYS_I2C_BACKUP)
 163              		.loc 1 214 0
 164 0002 244B     		ldr	r3, .L15
 165 0004 1B78     		ldrb	r3, [r3]	@ zero_extendqisi2
 166 0006 13F0040F 		tst	r3, #4
 167 000a 0DD0     		beq	.L11
 215:Generated_Source\PSoC5/I2C_PM.c ****     /* Low power mode was Sleep - backup regulator is enabled */
 216:Generated_Source\PSoC5/I2C_PM.c ****     {
 217:Generated_Source\PSoC5/I2C_PM.c ****         /* Enable backup regulator in active mode */
 218:Generated_Source\PSoC5/I2C_PM.c ****         intState = CyEnterCriticalSection();
 168              		.loc 1 218 0
 169 000c FFF7FEFF 		bl	CyEnterCriticalSection
 170              	.LVL4:
 219:Generated_Source\PSoC5/I2C_PM.c ****         I2C_PWRSYS_CR1_REG &= (uint8) ~I2C_PWRSYS_CR1_I2C_REG_BACKUP;
 171              		.loc 1 219 0
 172 0010 204A     		ldr	r2, .L15
 173 0012 1378     		ldrb	r3, [r2]	@ zero_extendqisi2
 174 0014 03F0FB03 		and	r3, r3, #251
 175 0018 1370     		strb	r3, [r2]
 220:Generated_Source\PSoC5/I2C_PM.c ****         CyExitCriticalSection(intState);
 176              		.loc 1 220 0
 177 001a FFF7FEFF 		bl	CyExitCriticalSection
 178              	.LVL5:
 221:Generated_Source\PSoC5/I2C_PM.c **** 
ARM GAS  C:\Users\isaac\AppData\Local\Temp\ccWb6vyk.s 			page 8


 222:Generated_Source\PSoC5/I2C_PM.c ****         /* Restore master */
 223:Generated_Source\PSoC5/I2C_PM.c ****         I2C_CFG_REG = I2C_backup.cfg;
 179              		.loc 1 223 0
 180 001e 1E4B     		ldr	r3, .L15+4
 181 0020 9A78     		ldrb	r2, [r3, #2]	@ zero_extendqisi2
 182 0022 1E4B     		ldr	r3, .L15+8
 183 0024 1A70     		strb	r2, [r3]
 184 0026 1FE0     		b	.L12
 185              	.L11:
 224:Generated_Source\PSoC5/I2C_PM.c ****     }
 225:Generated_Source\PSoC5/I2C_PM.c ****     else
 226:Generated_Source\PSoC5/I2C_PM.c ****     /* Low power mode was Hibernate - backup regulator is disabled. All registers are cleared */
 227:Generated_Source\PSoC5/I2C_PM.c ****     {
 228:Generated_Source\PSoC5/I2C_PM.c ****     #if (I2C_WAKEUP_ENABLED)
 229:Generated_Source\PSoC5/I2C_PM.c ****         /* Disable power to block before register restore */
 230:Generated_Source\PSoC5/I2C_PM.c ****         intState = CyEnterCriticalSection();
 186              		.loc 1 230 0
 187 0028 FFF7FEFF 		bl	CyEnterCriticalSection
 188              	.LVL6:
 231:Generated_Source\PSoC5/I2C_PM.c ****         I2C_ACT_PWRMGR_REG  &= (uint8) ~I2C_ACT_PWR_EN;
 189              		.loc 1 231 0
 190 002c 1C4A     		ldr	r2, .L15+12
 191 002e 1378     		ldrb	r3, [r2]	@ zero_extendqisi2
 192 0030 03F0FB03 		and	r3, r3, #251
 193 0034 1370     		strb	r3, [r2]
 232:Generated_Source\PSoC5/I2C_PM.c ****         I2C_STBY_PWRMGR_REG &= (uint8) ~I2C_STBY_PWR_EN;
 194              		.loc 1 232 0
 195 0036 1032     		adds	r2, r2, #16
 196 0038 1378     		ldrb	r3, [r2]	@ zero_extendqisi2
 197 003a 03F0FB03 		and	r3, r3, #251
 198 003e 1370     		strb	r3, [r2]
 233:Generated_Source\PSoC5/I2C_PM.c ****         CyExitCriticalSection(intState);
 199              		.loc 1 233 0
 200 0040 FFF7FEFF 		bl	CyExitCriticalSection
 201              	.LVL7:
 234:Generated_Source\PSoC5/I2C_PM.c **** 
 235:Generated_Source\PSoC5/I2C_PM.c ****         /* Enable component in I2C_Wakeup() after register restore */
 236:Generated_Source\PSoC5/I2C_PM.c ****         I2C_backup.enableState = I2C_ENABLE;
 202              		.loc 1 236 0
 203 0044 144B     		ldr	r3, .L15+4
 204 0046 0122     		movs	r2, #1
 205 0048 1A70     		strb	r2, [r3]
 237:Generated_Source\PSoC5/I2C_PM.c ****     #endif /* (I2C_WAKEUP_ENABLED) */
 238:Generated_Source\PSoC5/I2C_PM.c **** 
 239:Generated_Source\PSoC5/I2C_PM.c ****         /* Restore component registers after Hibernate */
 240:Generated_Source\PSoC5/I2C_PM.c ****         I2C_XCFG_REG    = I2C_backup.xcfg;
 206              		.loc 1 240 0
 207 004a 5978     		ldrb	r1, [r3, #1]	@ zero_extendqisi2
 208 004c 154A     		ldr	r2, .L15+16
 209 004e 1170     		strb	r1, [r2]
 241:Generated_Source\PSoC5/I2C_PM.c ****         I2C_CFG_REG     = I2C_backup.cfg;
 210              		.loc 1 241 0
 211 0050 9978     		ldrb	r1, [r3, #2]	@ zero_extendqisi2
 212 0052 0E32     		adds	r2, r2, #14
 213 0054 1170     		strb	r1, [r2]
 242:Generated_Source\PSoC5/I2C_PM.c ****         I2C_ADDR_REG    = I2C_backup.addr;
 214              		.loc 1 242 0
ARM GAS  C:\Users\isaac\AppData\Local\Temp\ccWb6vyk.s 			page 9


 215 0056 D978     		ldrb	r1, [r3, #3]	@ zero_extendqisi2
 216 0058 0C3A     		subs	r2, r2, #12
 217 005a 1170     		strb	r1, [r2]
 243:Generated_Source\PSoC5/I2C_PM.c ****         I2C_CLKDIV1_REG = I2C_backup.clkDiv1;
 218              		.loc 1 243 0
 219 005c 1979     		ldrb	r1, [r3, #4]	@ zero_extendqisi2
 220 005e 1132     		adds	r2, r2, #17
 221 0060 1170     		strb	r1, [r2]
 244:Generated_Source\PSoC5/I2C_PM.c ****         I2C_CLKDIV2_REG = I2C_backup.clkDiv2;
 222              		.loc 1 244 0
 223 0062 5A79     		ldrb	r2, [r3, #5]	@ zero_extendqisi2
 224 0064 104B     		ldr	r3, .L15+20
 225 0066 1A70     		strb	r2, [r3]
 226              	.L12:
 245:Generated_Source\PSoC5/I2C_PM.c ****     }
 246:Generated_Source\PSoC5/I2C_PM.c **** 
 247:Generated_Source\PSoC5/I2C_PM.c **** #if (I2C_WAKEUP_ENABLED)
 248:Generated_Source\PSoC5/I2C_PM.c ****     I2C_DisableInt();
 227              		.loc 1 248 0
 228 0068 4FF40042 		mov	r2, #32768
 229 006c 0F4B     		ldr	r3, .L15+24
 230 006e 1A60     		str	r2, [r3]
 249:Generated_Source\PSoC5/I2C_PM.c ****     (void) CyIntSetVector(I2C_ISR_NUMBER, &I2C_ISR);
 231              		.loc 1 249 0
 232 0070 0F49     		ldr	r1, .L15+28
 233 0072 0F20     		movs	r0, #15
 234 0074 FFF7FEFF 		bl	CyIntSetVector
 235              	.LVL8:
 250:Generated_Source\PSoC5/I2C_PM.c ****     if (0u != I2C_wakeupSource)
 236              		.loc 1 250 0
 237 0078 0E4B     		ldr	r3, .L15+32
 238 007a 1B78     		ldrb	r3, [r3]	@ zero_extendqisi2
 239 007c 13F0FF0F 		tst	r3, #255
 240 0080 03D0     		beq	.L13
 251:Generated_Source\PSoC5/I2C_PM.c ****     {
 252:Generated_Source\PSoC5/I2C_PM.c ****         /* Generate interrupt to process incoming transaction */
 253:Generated_Source\PSoC5/I2C_PM.c ****         I2C_SetPendingInt();
 241              		.loc 1 253 0
 242 0082 4FF40042 		mov	r2, #32768
 243 0086 0C4B     		ldr	r3, .L15+36
 244 0088 1A60     		str	r2, [r3]
 245              	.L13:
 254:Generated_Source\PSoC5/I2C_PM.c ****     }
 255:Generated_Source\PSoC5/I2C_PM.c ****     I2C_EnableInt();
 246              		.loc 1 255 0
 247 008a 4FF40042 		mov	r2, #32768
 248 008e 0B4B     		ldr	r3, .L15+40
 249 0090 1A60     		str	r2, [r3]
 250 0092 08BD     		pop	{r3, pc}
 251              	.L16:
 252              		.align	2
 253              	.L15:
 254 0094 31430040 		.word	1073759025
 255 0098 00000000 		.word	.LANCHOR0
 256 009c D6490040 		.word	1073760726
 257 00a0 A5430040 		.word	1073759141
 258 00a4 C8490040 		.word	1073760712
ARM GAS  C:\Users\isaac\AppData\Local\Temp\ccWb6vyk.s 			page 10


 259 00a8 DC490040 		.word	1073760732
 260 00ac 80E100E0 		.word	-536813184
 261 00b0 00000000 		.word	I2C_ISR
 262 00b4 00000000 		.word	I2C_wakeupSource
 263 00b8 00E200E0 		.word	-536813056
 264 00bc 00E100E0 		.word	-536813312
 265              		.cfi_endproc
 266              	.LFE2:
 267              		.size	I2C_RestoreConfig, .-I2C_RestoreConfig
 268              		.section	.text.I2C_Wakeup,"ax",%progbits
 269              		.align	2
 270              		.global	I2C_Wakeup
 271              		.thumb
 272              		.thumb_func
 273              		.type	I2C_Wakeup, %function
 274              	I2C_Wakeup:
 275              	.LFB3:
 256:Generated_Source\PSoC5/I2C_PM.c **** #endif /* (I2C_WAKEUP_ENABLED) */
 257:Generated_Source\PSoC5/I2C_PM.c **** 
 258:Generated_Source\PSoC5/I2C_PM.c **** #else
 259:Generated_Source\PSoC5/I2C_PM.c ****     I2C_CFG_REG = I2C_backup.control;
 260:Generated_Source\PSoC5/I2C_PM.c **** #endif /* (I2C_FF_IMPLEMENTED) */
 261:Generated_Source\PSoC5/I2C_PM.c **** 
 262:Generated_Source\PSoC5/I2C_PM.c **** #if (I2C_TIMEOUT_ENABLED)
 263:Generated_Source\PSoC5/I2C_PM.c ****     I2C_TimeoutRestoreConfig();
 264:Generated_Source\PSoC5/I2C_PM.c **** #endif /* (I2C_TIMEOUT_ENABLED) */
 265:Generated_Source\PSoC5/I2C_PM.c **** }
 266:Generated_Source\PSoC5/I2C_PM.c **** 
 267:Generated_Source\PSoC5/I2C_PM.c **** 
 268:Generated_Source\PSoC5/I2C_PM.c **** /*******************************************************************************
 269:Generated_Source\PSoC5/I2C_PM.c **** * Function Name: I2C_Wakeup
 270:Generated_Source\PSoC5/I2C_PM.c **** ********************************************************************************
 271:Generated_Source\PSoC5/I2C_PM.c **** *
 272:Generated_Source\PSoC5/I2C_PM.c **** * Summary:
 273:Generated_Source\PSoC5/I2C_PM.c **** *  This is the preferred method to prepare the component for active mode
 274:Generated_Source\PSoC5/I2C_PM.c **** *  operation (when device exits sleep mode). The Enable wakeup from Sleep Mode
 275:Generated_Source\PSoC5/I2C_PM.c **** *  selection influences this function implementation:
 276:Generated_Source\PSoC5/I2C_PM.c **** *   Unchecked: Restores the component non-retention configuration registers
 277:Generated_Source\PSoC5/I2C_PM.c **** *              by calling I2C_RestoreConfig(). If the component was enabled
 278:Generated_Source\PSoC5/I2C_PM.c **** *              before the I2C_Sleep() function was called, I2C_Wakeup()
 279:Generated_Source\PSoC5/I2C_PM.c **** *              re-enables it.
 280:Generated_Source\PSoC5/I2C_PM.c **** *   Checked:   Enables  master functionality if it was enabled before sleep,
 281:Generated_Source\PSoC5/I2C_PM.c **** *              and disables the backup regulator of the I2C hardware.
 282:Generated_Source\PSoC5/I2C_PM.c **** *              The incoming transaction continues as soon as the regular
 283:Generated_Source\PSoC5/I2C_PM.c **** *              I2C interrupt handler is set up (global interrupts has to be
 284:Generated_Source\PSoC5/I2C_PM.c **** *              enabled to service I2C component interrupt).
 285:Generated_Source\PSoC5/I2C_PM.c **** *
 286:Generated_Source\PSoC5/I2C_PM.c **** * Parameters:
 287:Generated_Source\PSoC5/I2C_PM.c **** *  None.
 288:Generated_Source\PSoC5/I2C_PM.c **** *
 289:Generated_Source\PSoC5/I2C_PM.c **** * Return:
 290:Generated_Source\PSoC5/I2C_PM.c **** *  None.
 291:Generated_Source\PSoC5/I2C_PM.c **** *
 292:Generated_Source\PSoC5/I2C_PM.c **** * Reentrant:
 293:Generated_Source\PSoC5/I2C_PM.c **** *  No.
 294:Generated_Source\PSoC5/I2C_PM.c **** *
 295:Generated_Source\PSoC5/I2C_PM.c **** * Side Effects:
ARM GAS  C:\Users\isaac\AppData\Local\Temp\ccWb6vyk.s 			page 11


 296:Generated_Source\PSoC5/I2C_PM.c **** *  Calling this function before I2C_SaveConfig() or
 297:Generated_Source\PSoC5/I2C_PM.c **** *  I2C_Sleep() will lead to unpredictable results.
 298:Generated_Source\PSoC5/I2C_PM.c **** *
 299:Generated_Source\PSoC5/I2C_PM.c **** *******************************************************************************/
 300:Generated_Source\PSoC5/I2C_PM.c **** void I2C_Wakeup(void) 
 301:Generated_Source\PSoC5/I2C_PM.c **** {
 276              		.loc 1 301 0
 277              		.cfi_startproc
 278              		@ args = 0, pretend = 0, frame = 0
 279              		@ frame_needed = 0, uses_anonymous_args = 0
 280 0000 08B5     		push	{r3, lr}
 281              		.cfi_def_cfa_offset 8
 282              		.cfi_offset 3, -8
 283              		.cfi_offset 14, -4
 302:Generated_Source\PSoC5/I2C_PM.c ****     I2C_RestoreConfig();
 284              		.loc 1 302 0
 285 0002 FFF7FEFF 		bl	I2C_RestoreConfig
 286              	.LVL9:
 303:Generated_Source\PSoC5/I2C_PM.c **** 
 304:Generated_Source\PSoC5/I2C_PM.c ****     /* Restore component enable state */
 305:Generated_Source\PSoC5/I2C_PM.c ****     if (0u != I2C_backup.enableState)
 287              		.loc 1 305 0
 288 0006 054B     		ldr	r3, .L20
 289 0008 1B78     		ldrb	r3, [r3]	@ zero_extendqisi2
 290 000a 2BB1     		cbz	r3, .L17
 306:Generated_Source\PSoC5/I2C_PM.c ****     {
 307:Generated_Source\PSoC5/I2C_PM.c ****         I2C_Enable();
 291              		.loc 1 307 0
 292 000c FFF7FEFF 		bl	I2C_Enable
 293              	.LVL10:
 308:Generated_Source\PSoC5/I2C_PM.c ****         I2C_EnableInt();
 294              		.loc 1 308 0
 295 0010 4FF40042 		mov	r2, #32768
 296 0014 024B     		ldr	r3, .L20+4
 297 0016 1A60     		str	r2, [r3]
 298              	.L17:
 299 0018 08BD     		pop	{r3, pc}
 300              	.L21:
 301 001a 00BF     		.align	2
 302              	.L20:
 303 001c 00000000 		.word	.LANCHOR0
 304 0020 00E100E0 		.word	-536813312
 305              		.cfi_endproc
 306              	.LFE3:
 307              		.size	I2C_Wakeup, .-I2C_Wakeup
 308              		.comm	I2C_wakeupSource,1,1
 309              		.global	I2C_backup
 310              		.data
 311              		.align	2
 312              		.set	.LANCHOR0,. + 0
 313              		.type	I2C_backup, %object
 314              		.size	I2C_backup, 6
 315              	I2C_backup:
 316 0000 00       		.byte	0
 317 0001 C1       		.byte	-63
 318 0002 C1       		.byte	-63
 319 0003 01       		.byte	1
ARM GAS  C:\Users\isaac\AppData\Local\Temp\ccWb6vyk.s 			page 12


 320 0004 0F       		.byte	15
 321 0005 00       		.byte	0
 322              		.text
 323              	.Letext0:
 324              		.file 2 "Generated_Source\\PSoC5\\cytypes.h"
 325              		.file 3 "Generated_Source\\PSoC5\\I2C.h"
 326              		.file 4 "Generated_Source\\PSoC5\\CyLib.h"