ARM GAS  C:\Users\isaac\AppData\Local\Temp\cckyEm0C.s 			page 1


   1              		.syntax unified
   2              		.cpu cortex-m3
   3              		.fpu softvfp
   4              		.eabi_attribute 20, 1
   5              		.eabi_attribute 21, 1
   6              		.eabi_attribute 23, 3
   7              		.eabi_attribute 24, 1
   8              		.eabi_attribute 25, 1
   9              		.eabi_attribute 26, 1
  10              		.eabi_attribute 30, 1
  11              		.eabi_attribute 34, 1
  12              		.eabi_attribute 18, 4
  13              		.thumb
  14              		.syntax unified
  15              		.file	"main.c"
  16              		.text
  17              	.Ltext0:
  18              		.cfi_sections	.debug_frame
  19              		.section	.text.main,"ax",%progbits
  20              		.align	2
  21              		.global	main
  22              		.thumb
  23              		.thumb_func
  24              		.type	main, %function
  25              	main:
  26              	.LFB64:
  27              		.file 1 "main.c"
   1:main.c        **** #include "project.h"
   2:main.c        **** #include "stdio.h"
   3:main.c        **** 
   4:main.c        **** int pos_bar = 0;
   5:main.c        **** int pos_mun = 0;
   6:main.c        **** int relpos = 7;
   7:main.c        **** int rebote = 0;
   8:main.c        **** int old_pos = 0;
   9:main.c        **** uint16 sen_old = 0;
  10:main.c        **** uint16 sen_old_old = 0;
  11:main.c        **** int SensorOldTest;
  12:main.c        **** int SensorInt;
  13:main.c        **** int SensorOldInt;
  14:main.c        **** int main(void)
  15:main.c        **** {
  28              		.loc 1 15 0
  29              		.cfi_startproc
  30              		@ args = 0, pretend = 0, frame = 56
  31              		@ frame_needed = 0, uses_anonymous_args = 0
  32 0000 70B5     		push	{r4, r5, r6, lr}
  33              		.cfi_def_cfa_offset 16
  34              		.cfi_offset 4, -16
  35              		.cfi_offset 5, -12
  36              		.cfi_offset 6, -8
  37              		.cfi_offset 14, -4
  38 0002 92B0     		sub	sp, sp, #72
  39              		.cfi_def_cfa_offset 88
  40              	.LVL0:
  16:main.c        ****     uint16 Sensor;
  17:main.c        ****     uint16 SensorOld = 0xFFFF;
ARM GAS  C:\Users\isaac\AppData\Local\Temp\cckyEm0C.s 			page 2


  18:main.c        ****     char msg[50];
  19:main.c        ****     CyGlobalIntEnable;
  41              		.loc 1 19 0
  42              		.syntax unified
  43              	@ 19 "main.c" 1
  44 0004 62B6     		CPSIE   i
  45              	@ 0 "" 2
  20:main.c        **** 
  21:main.c        ****     UART_Start();
  46              		.loc 1 21 0
  47              		.thumb
  48              		.syntax unified
  49 0006 FFF7FEFF 		bl	UART_Start
  50              	.LVL1:
  22:main.c        ****     CapSense_Start();
  51              		.loc 1 22 0
  52 000a FFF7FEFF 		bl	CapSense_Start
  53              	.LVL2:
  23:main.c        ****     LCD_Start();
  54              		.loc 1 23 0
  55 000e FFF7FEFF 		bl	LCD_Start
  56              	.LVL3:
  24:main.c        **** 
  25:main.c        ****     CapSense_InitializeAllBaselines();
  57              		.loc 1 25 0
  58 0012 FFF7FEFF 		bl	CapSense_InitializeAllBaselines
  59              	.LVL4:
  26:main.c        ****     CapSense_ScanEnabledWidgets();
  60              		.loc 1 26 0
  61 0016 FFF7FEFF 		bl	CapSense_ScanEnabledWidgets
  62              	.LVL5:
  17:main.c        ****     char msg[50];
  63              		.loc 1 17 0
  64 001a 4FF6FF76 		movw	r6, #65535
  65              	.LVL6:
  66              	.L18:
  27:main.c        **** 
  28:main.c        ****     for (;;)
  29:main.c        ****     {
  30:main.c        ****         LCD_ClearDisplay();
  67              		.loc 1 30 0
  68 001e 0120     		movs	r0, #1
  69 0020 FFF7FEFF 		bl	LCD_WriteControl
  70              	.LVL7:
  31:main.c        ****         if (!CapSense_IsBusy())
  71              		.loc 1 31 0
  72 0024 FFF7FEFF 		bl	CapSense_IsBusy
  73              	.LVL8:
  74 0028 F8B9     		cbnz	r0, .L2
  32:main.c        ****         {
  33:main.c        ****             SensorOldTest = Sensor;
  75              		.loc 1 33 0
  76 002a 5F4B     		ldr	r3, .L20
  77 002c 1D60     		str	r5, [r3]
  34:main.c        ****             Sensor = CapSense_GetCentroidPos(CapSense_LINEARSLIDER0__LS);
  78              		.loc 1 34 0
  79 002e FFF7FEFF 		bl	CapSense_GetCentroidPos
ARM GAS  C:\Users\isaac\AppData\Local\Temp\cckyEm0C.s 			page 3


  80              	.LVL9:
  81 0032 0546     		mov	r5, r0
  82              	.LVL10:
  35:main.c        ****             if (Sensor != 0xFFFF && Sensor != SensorOld)
  83              		.loc 1 35 0
  84 0034 4FF6FF73 		movw	r3, #65535
  85 0038 9842     		cmp	r0, r3
  86 003a 12D0     		beq	.L3
  87              		.loc 1 35 0 is_stmt 0 discriminator 1
  88 003c 8642     		cmp	r6, r0
  89 003e 10D0     		beq	.L3
  36:main.c        ****             {
  37:main.c        ****                 sprintf(msg, "Sensor: %d, %d, %d, %d, %d\r\n", Sensor,SensorOld,old_pos,pos_mun,pos
  90              		.loc 1 37 0 is_stmt 1
  91 0040 5A4B     		ldr	r3, .L20+4
  92 0042 1A68     		ldr	r2, [r3]
  93 0044 0292     		str	r2, [sp, #8]
  94 0046 5A68     		ldr	r2, [r3, #4]
  95 0048 0192     		str	r2, [sp, #4]
  96 004a 9B68     		ldr	r3, [r3, #8]
  97 004c 0093     		str	r3, [sp]
  98 004e 3346     		mov	r3, r6
  99 0050 0246     		mov	r2, r0
 100 0052 5749     		ldr	r1, .L20+8
 101 0054 05A8     		add	r0, sp, #20
 102              	.LVL11:
 103 0056 FFF7FEFF 		bl	sprintf
 104              	.LVL12:
  38:main.c        ****                 UART_PutString(msg);
 105              		.loc 1 38 0
 106 005a 05A8     		add	r0, sp, #20
 107 005c FFF7FEFF 		bl	UART_PutString
 108              	.LVL13:
  39:main.c        ****                 SensorOld = Sensor;
 109              		.loc 1 39 0
 110 0060 2E46     		mov	r6, r5
 111              	.LVL14:
 112              	.L3:
  40:main.c        ****             }
  41:main.c        ****             CapSense_UpdateEnabledBaselines();
 113              		.loc 1 41 0
 114 0062 FFF7FEFF 		bl	CapSense_UpdateEnabledBaselines
 115              	.LVL15:
  42:main.c        ****             CapSense_ScanEnabledWidgets();
 116              		.loc 1 42 0
 117 0066 FFF7FEFF 		bl	CapSense_ScanEnabledWidgets
 118              	.LVL16:
 119              	.L2:
  43:main.c        ****         }
  44:main.c        ****         SensorInt = Sensor;
 120              		.loc 1 44 0
 121 006a 524B     		ldr	r3, .L20+12
 122 006c 1D60     		str	r5, [r3]
  45:main.c        ****         SensorOldInt = SensorOldTest;
 123              		.loc 1 45 0
 124 006e 4E4B     		ldr	r3, .L20
 125 0070 1B68     		ldr	r3, [r3]
ARM GAS  C:\Users\isaac\AppData\Local\Temp\cckyEm0C.s 			page 4


 126 0072 514A     		ldr	r2, .L20+16
 127 0074 1360     		str	r3, [r2]
  46:main.c        ****         if (SensorOld != 0xFFFF)
 128              		.loc 1 46 0
 129 0076 4FF6FF72 		movw	r2, #65535
 130 007a 9642     		cmp	r6, r2
 131 007c 00F08E80 		beq	.L4
  47:main.c        ****         {
  48:main.c        ****            if ((sen_old != Sensor) &&(sen_old_old != SensorOldTest)){
 132              		.loc 1 48 0
 133 0080 4A4A     		ldr	r2, .L20+4
 134 0082 9289     		ldrh	r2, [r2, #12]
 135 0084 9542     		cmp	r5, r2
 136 0086 31D0     		beq	.L5
 137              		.loc 1 48 0 is_stmt 0 discriminator 1
 138 0088 484A     		ldr	r2, .L20+4
 139 008a D289     		ldrh	r2, [r2, #14]
 140 008c 9342     		cmp	r3, r2
 141 008e 2DD0     		beq	.L5
  49:main.c        ****                 UART_PutString("Here\n");
 142              		.loc 1 49 0 is_stmt 1
 143 0090 4A48     		ldr	r0, .L20+20
 144 0092 FFF7FEFF 		bl	UART_PutString
 145              	.LVL17:
  50:main.c        ****                 if (SensorInt < SensorOldInt)
 146              		.loc 1 50 0
 147 0096 474B     		ldr	r3, .L20+12
 148 0098 1A68     		ldr	r2, [r3]
 149 009a 474B     		ldr	r3, .L20+16
 150 009c 1B68     		ldr	r3, [r3]
 151 009e 9A42     		cmp	r2, r3
 152 00a0 11DA     		bge	.L6
  51:main.c        ****                 {
  52:main.c        ****                     UART_PutString("Right\n");
 153              		.loc 1 52 0
 154 00a2 4748     		ldr	r0, .L20+24
 155 00a4 FFF7FEFF 		bl	UART_PutString
 156              	.LVL18:
  53:main.c        ****                     if (pos_bar != -7)
 157              		.loc 1 53 0
 158 00a8 404B     		ldr	r3, .L20+4
 159 00aa 1B68     		ldr	r3, [r3]
 160 00ac 13F1070F 		cmn	r3, #7
 161 00b0 02D0     		beq	.L7
  54:main.c        ****                     {
  55:main.c        ****                         pos_bar--;
 162              		.loc 1 55 0
 163 00b2 013B     		subs	r3, r3, #1
 164 00b4 3D4A     		ldr	r2, .L20+4
 165 00b6 1360     		str	r3, [r2]
 166              	.L7:
  56:main.c        ****                     }
  57:main.c        ****                     if (pos_mun != 0)
 167              		.loc 1 57 0
 168 00b8 3C4B     		ldr	r3, .L20+4
 169 00ba 5B68     		ldr	r3, [r3, #4]
 170 00bc B3B1     		cbz	r3, .L5
ARM GAS  C:\Users\isaac\AppData\Local\Temp\cckyEm0C.s 			page 5


  58:main.c        ****                     {
  59:main.c        ****                         pos_mun--;
 171              		.loc 1 59 0
 172 00be 013B     		subs	r3, r3, #1
 173 00c0 3A4A     		ldr	r2, .L20+4
 174 00c2 5360     		str	r3, [r2, #4]
 175 00c4 12E0     		b	.L5
 176              	.L6:
  60:main.c        ****                     }
  61:main.c        ****                 }
  62:main.c        ****                 else if (SensorInt > SensorOldInt)
 177              		.loc 1 62 0
 178 00c6 9A42     		cmp	r2, r3
 179 00c8 10DD     		ble	.L5
  63:main.c        ****                 {
  64:main.c        ****                     UART_PutString("Left\n");
 180              		.loc 1 64 0
 181 00ca 3E48     		ldr	r0, .L20+28
 182 00cc FFF7FEFF 		bl	UART_PutString
 183              	.LVL19:
  65:main.c        ****                     if (pos_bar != 7)
 184              		.loc 1 65 0
 185 00d0 364B     		ldr	r3, .L20+4
 186 00d2 1B68     		ldr	r3, [r3]
 187 00d4 072B     		cmp	r3, #7
 188 00d6 02D0     		beq	.L8
  66:main.c        ****                     {
  67:main.c        ****                         pos_bar++;
 189              		.loc 1 67 0
 190 00d8 0133     		adds	r3, r3, #1
 191 00da 344A     		ldr	r2, .L20+4
 192 00dc 1360     		str	r3, [r2]
 193              	.L8:
  68:main.c        ****                     }
  69:main.c        ****                     if (pos_mun != 15)
 194              		.loc 1 69 0
 195 00de 334B     		ldr	r3, .L20+4
 196 00e0 5B68     		ldr	r3, [r3, #4]
 197 00e2 0F2B     		cmp	r3, #15
 198 00e4 02D0     		beq	.L5
  70:main.c        ****                     {
  71:main.c        ****                         pos_mun++;
 199              		.loc 1 71 0
 200 00e6 0133     		adds	r3, r3, #1
 201 00e8 304A     		ldr	r2, .L20+4
 202 00ea 5360     		str	r3, [r2, #4]
 203              	.L5:
  72:main.c        ****                     }
  73:main.c        ****                 }
  74:main.c        ****             }
  75:main.c        ****             if (relpos < 0)
 204              		.loc 1 75 0
 205 00ec 364B     		ldr	r3, .L20+32
 206 00ee 1B68     		ldr	r3, [r3]
 207 00f0 002B     		cmp	r3, #0
 208 00f2 05DA     		bge	.L9
  76:main.c        ****             {
ARM GAS  C:\Users\isaac\AppData\Local\Temp\cckyEm0C.s 			page 6


  77:main.c        ****                 relpos = pos_bar * -1;
 209              		.loc 1 77 0
 210 00f4 2D4B     		ldr	r3, .L20+4
 211 00f6 1B68     		ldr	r3, [r3]
 212 00f8 5B42     		negs	r3, r3
 213 00fa 334A     		ldr	r2, .L20+32
 214 00fc 1360     		str	r3, [r2]
 215 00fe 03E0     		b	.L10
 216              	.L9:
  78:main.c        ****             }
  79:main.c        ****             else
  80:main.c        ****             {
  81:main.c        ****                 relpos = pos_bar;
 217              		.loc 1 81 0
 218 0100 2A4B     		ldr	r3, .L20+4
 219 0102 1A68     		ldr	r2, [r3]
 220 0104 304B     		ldr	r3, .L20+32
 221 0106 1A60     		str	r2, [r3]
 222              	.L10:
  82:main.c        ****             }
  83:main.c        ****             LCD_Position(0, 7);
 223              		.loc 1 83 0
 224 0108 0721     		movs	r1, #7
 225 010a 0020     		movs	r0, #0
 226 010c FFF7FEFF 		bl	LCD_Position
 227              	.LVL20:
  84:main.c        ****             LCD_PutChar(LCD_CUSTOM_0);
 228              		.loc 1 84 0
 229 0110 0020     		movs	r0, #0
 230 0112 FFF7FEFF 		bl	LCD_PutChar
 231              	.LVL21:
  85:main.c        ****             LCD_Position(0, 8);
 232              		.loc 1 85 0
 233 0116 0821     		movs	r1, #8
 234 0118 0020     		movs	r0, #0
 235 011a FFF7FEFF 		bl	LCD_Position
 236              	.LVL22:
  86:main.c        ****             LCD_PutChar(LCD_CUSTOM_0);
 237              		.loc 1 86 0
 238 011e 0020     		movs	r0, #0
 239 0120 FFF7FEFF 		bl	LCD_PutChar
 240              	.LVL23:
 241              	.LBB2:
  87:main.c        ****             for (int i = 0; i <= relpos; i++)
 242              		.loc 1 87 0
 243 0124 0024     		movs	r4, #0
 244 0126 1DE0     		b	.L11
 245              	.LVL24:
 246              	.L15:
  88:main.c        ****             {
  89:main.c        ****                 if (pos_bar == 0)
 247              		.loc 1 89 0
 248 0128 204B     		ldr	r3, .L20+4
 249 012a 1B68     		ldr	r3, [r3]
 250 012c 1BB9     		cbnz	r3, .L12
  90:main.c        ****                 {
  91:main.c        ****                     LCD_Position(0, 8);
ARM GAS  C:\Users\isaac\AppData\Local\Temp\cckyEm0C.s 			page 7


 251              		.loc 1 91 0
 252 012e 0821     		movs	r1, #8
 253 0130 0020     		movs	r0, #0
 254 0132 FFF7FEFF 		bl	LCD_Position
 255              	.LVL25:
 256              	.L12:
  92:main.c        ****                 }
  93:main.c        ****                 if (pos_bar < 0)
 257              		.loc 1 93 0
 258 0136 1D4B     		ldr	r3, .L20+4
 259 0138 1B68     		ldr	r3, [r3]
 260 013a 002B     		cmp	r3, #0
 261 013c 06DA     		bge	.L13
  94:main.c        ****                 {
  95:main.c        ****                     LCD_Position(0, 7 - i);
 262              		.loc 1 95 0
 263 013e C4F10701 		rsb	r1, r4, #7
 264 0142 C9B2     		uxtb	r1, r1
 265 0144 0020     		movs	r0, #0
 266 0146 FFF7FEFF 		bl	LCD_Position
 267              	.LVL26:
 268 014a 07E0     		b	.L14
 269              	.L13:
  96:main.c        ****                 }
  97:main.c        ****                 else if (pos_bar > 0)
 270              		.loc 1 97 0
 271 014c 002B     		cmp	r3, #0
 272 014e 05DD     		ble	.L14
  98:main.c        ****                 {
  99:main.c        ****                     LCD_Position(0, 8 + i);
 273              		.loc 1 99 0
 274 0150 04F10801 		add	r1, r4, #8
 275 0154 C9B2     		uxtb	r1, r1
 276 0156 0020     		movs	r0, #0
 277 0158 FFF7FEFF 		bl	LCD_Position
 278              	.LVL27:
 279              	.L14:
 100:main.c        ****                 }
 101:main.c        ****                 LCD_PutChar(LCD_CUSTOM_0);
 280              		.loc 1 101 0 discriminator 2
 281 015c 0020     		movs	r0, #0
 282 015e FFF7FEFF 		bl	LCD_PutChar
 283              	.LVL28:
  87:main.c        ****             {
 284              		.loc 1 87 0 discriminator 2
 285 0162 0134     		adds	r4, r4, #1
 286              	.LVL29:
 287              	.L11:
  87:main.c        ****             {
 288              		.loc 1 87 0 is_stmt 0 discriminator 1
 289 0164 184B     		ldr	r3, .L20+32
 290 0166 1B68     		ldr	r3, [r3]
 291 0168 9C42     		cmp	r4, r3
 292 016a DDDD     		ble	.L15
 293              	.LBE2:
 102:main.c        ****             }
 103:main.c        ****             //Imprimir muñeco
ARM GAS  C:\Users\isaac\AppData\Local\Temp\cckyEm0C.s 			page 8


 104:main.c        **** 
 105:main.c        ****             LCD_Position(1, pos_mun);
 294              		.loc 1 105 0 is_stmt 1
 295 016c 0F4C     		ldr	r4, .L20+4
 296              	.LVL30:
 297 016e 2179     		ldrb	r1, [r4, #4]	@ zero_extendqisi2
 298 0170 0120     		movs	r0, #1
 299 0172 FFF7FEFF 		bl	LCD_Position
 300              	.LVL31:
 106:main.c        ****             if (rebote == 0)
 301              		.loc 1 106 0
 302 0176 2369     		ldr	r3, [r4, #16]
 303 0178 2BB9     		cbnz	r3, .L16
 107:main.c        ****             {
 108:main.c        ****                 LCD_PutChar(LCD_CUSTOM_1);
 304              		.loc 1 108 0
 305 017a 0120     		movs	r0, #1
 306 017c FFF7FEFF 		bl	LCD_PutChar
 307              	.LVL32:
 109:main.c        ****                 rebote = 1;
 308              		.loc 1 109 0
 309 0180 0122     		movs	r2, #1
 310 0182 2261     		str	r2, [r4, #16]
 311 0184 07E0     		b	.L17
 312              	.L16:
 110:main.c        ****             }
 111:main.c        ****             else if (rebote == 1)
 313              		.loc 1 111 0
 314 0186 012B     		cmp	r3, #1
 315 0188 05D1     		bne	.L17
 112:main.c        ****             {
 113:main.c        ****                 LCD_PutChar(LCD_CUSTOM_2);
 316              		.loc 1 113 0
 317 018a 0220     		movs	r0, #2
 318 018c FFF7FEFF 		bl	LCD_PutChar
 319              	.LVL33:
 114:main.c        ****                 rebote = 0;
 320              		.loc 1 114 0
 321 0190 0022     		movs	r2, #0
 322 0192 064B     		ldr	r3, .L20+4
 323 0194 1A61     		str	r2, [r3, #16]
 324              	.L17:
 115:main.c        ****             }
 116:main.c        ****             CyDelay(5);
 325              		.loc 1 116 0
 326 0196 0520     		movs	r0, #5
 327 0198 FFF7FEFF 		bl	CyDelay
 328              	.LVL34:
 329              	.L4:
 117:main.c        ****         }
 118:main.c        ****         sen_old = Sensor;
 330              		.loc 1 118 0
 331 019c 034B     		ldr	r3, .L20+4
 332 019e 9D81     		strh	r5, [r3, #12]	@ movhi
 119:main.c        ****         sen_old_old = SensorOldTest;
 333              		.loc 1 119 0
 334 01a0 014A     		ldr	r2, .L20
ARM GAS  C:\Users\isaac\AppData\Local\Temp\cckyEm0C.s 			page 9


 335 01a2 1268     		ldr	r2, [r2]
 336 01a4 DA81     		strh	r2, [r3, #14]	@ movhi
 120:main.c        ****     }
 337              		.loc 1 120 0
 338 01a6 3AE7     		b	.L18
 339              	.L21:
 340              		.align	2
 341              	.L20:
 342 01a8 00000000 		.word	SensorOldTest
 343 01ac 00000000 		.word	.LANCHOR0
 344 01b0 00000000 		.word	.LC0
 345 01b4 00000000 		.word	SensorInt
 346 01b8 00000000 		.word	SensorOldInt
 347 01bc 20000000 		.word	.LC1
 348 01c0 28000000 		.word	.LC2
 349 01c4 30000000 		.word	.LC3
 350 01c8 00000000 		.word	.LANCHOR1
 351              		.cfi_endproc
 352              	.LFE64:
 353              		.size	main, .-main
 354              		.comm	SensorOldInt,4,4
 355              		.comm	SensorInt,4,4
 356              		.comm	SensorOldTest,4,4
 357              		.global	sen_old_old
 358              		.global	sen_old
 359              		.global	old_pos
 360              		.global	rebote
 361              		.global	relpos
 362              		.global	pos_mun
 363              		.global	pos_bar
 364              		.data
 365              		.align	2
 366              		.set	.LANCHOR1,. + 0
 367              		.type	relpos, %object
 368              		.size	relpos, 4
 369              	relpos:
 370 0000 07000000 		.word	7
 371              		.section	.rodata.str1.4,"aMS",%progbits,1
 372              		.align	2
 373              	.LC0:
 374 0000 53656E73 		.ascii	"Sensor: %d, %d, %d, %d, %d\015\012\000"
 374      6F723A20 
 374      25642C20 
 374      25642C20 
 374      25642C20 
 375 001d 000000   		.space	3
 376              	.LC1:
 377 0020 48657265 		.ascii	"Here\012\000"
 377      0A00
 378 0026 0000     		.space	2
 379              	.LC2:
 380 0028 52696768 		.ascii	"Right\012\000"
 380      740A00
 381 002f 00       		.space	1
 382              	.LC3:
 383 0030 4C656674 		.ascii	"Left\012\000"
 383      0A00
ARM GAS  C:\Users\isaac\AppData\Local\Temp\cckyEm0C.s 			page 10


 384              		.bss
 385              		.align	2
 386              		.set	.LANCHOR0,. + 0
 387              		.type	pos_bar, %object
 388              		.size	pos_bar, 4
 389              	pos_bar:
 390 0000 00000000 		.space	4
 391              		.type	pos_mun, %object
 392              		.size	pos_mun, 4
 393              	pos_mun:
 394 0004 00000000 		.space	4
 395              		.type	old_pos, %object
 396              		.size	old_pos, 4
 397              	old_pos:
 398 0008 00000000 		.space	4
 399              		.type	sen_old, %object
 400              		.size	sen_old, 2
 401              	sen_old:
 402 000c 0000     		.space	2
 403              		.type	sen_old_old, %object
 404              		.size	sen_old_old, 2
 405              	sen_old_old:
 406 000e 0000     		.space	2
 407              		.type	rebote, %object
 408              		.size	rebote, 4
 409              	rebote:
 410 0010 00000000 		.space	4
 411              		.text
 412              	.Letext0:
 413              		.file 2 "c:\\program files (x86)\\cypress\\psoc creator\\4.2\\psoc creator\\import\\gnu\\arm\\5.4.
 414              		.file 3 "c:\\program files (x86)\\cypress\\psoc creator\\4.2\\psoc creator\\import\\gnu\\arm\\5.4.
 415              		.file 4 "Generated_Source\\PSoC5/cytypes.h"
 416              		.file 5 "Generated_Source\\PSoC5/core_cm3.h"
 417              		.file 6 "Generated_Source\\PSoC5/LCD.h"
 418              		.file 7 "Generated_Source\\PSoC5/UART.h"
 419              		.file 8 "Generated_Source\\PSoC5/CapSense.h"
 420              		.file 9 "Generated_Source\\PSoC5/CapSense_CSHL.h"
 421              		.file 10 "c:\\program files (x86)\\cypress\\psoc creator\\4.2\\psoc creator\\import\\gnu\\arm\\5.4
 422              		.file 11 "Generated_Source\\PSoC5/CyLib.h"